   1              		.cpu cortex-m3
   2              		.eabi_attribute 20, 1
   3              		.eabi_attribute 21, 1
   4              		.eabi_attribute 23, 3
   5              		.eabi_attribute 24, 1
   6              		.eabi_attribute 25, 1
   7              		.eabi_attribute 26, 1
   8              		.eabi_attribute 30, 4
   9              		.eabi_attribute 34, 1
  10              		.eabi_attribute 18, 4
  11              		.file	"cdecode.c"
  12              		.text
  13              	.Ltext0:
  14              		.cfi_sections	.debug_frame
  15              		.section	.text.base64_decode_value,"ax",%progbits
  16              		.align	1
  17              		.global	base64_decode_value
  18              		.syntax unified
  19              		.thumb
  20              		.thumb_func
  21              		.fpu softvfp
  23              	base64_decode_value:
  24              	.LFB0:
  25              		.file 1 "base64/cdecode.c"
   1:base64/cdecode.c **** /*
   2:base64/cdecode.c **** cdecoder.c - c source to a base64 decoding algorithm implementation
   3:base64/cdecode.c **** 
   4:base64/cdecode.c **** This is part of the libb64 project, and has been placed in the public domain.
   5:base64/cdecode.c **** For details, see http://sourceforge.net/projects/libb64
   6:base64/cdecode.c **** */
   7:base64/cdecode.c **** 
   8:base64/cdecode.c **** #include "cdecode.h"
   9:base64/cdecode.c **** 
  10:base64/cdecode.c **** int base64_decode_value(char value_in)
  11:base64/cdecode.c **** {
  26              		.loc 1 11 0
  27              		.cfi_startproc
  28              		@ args = 0, pretend = 0, frame = 0
  29              		@ frame_needed = 0, uses_anonymous_args = 0
  30              		@ link register save eliminated.
  31              	.LVL0:
  12:base64/cdecode.c **** 	static const char decoding[] = {62,-1,-1,-1,63,52,53,54,55,56,57,58,59,60,61,-1,-1,-1,-2,-1,-1,-1,
  13:base64/cdecode.c **** 	static const char decoding_size = sizeof(decoding);
  14:base64/cdecode.c **** 	value_in -= 43;
  32              		.loc 1 14 0
  33 0000 2B38     		subs	r0, r0, #43
  34              	.LVL1:
  35 0002 C0B2     		uxtb	r0, r0
  36              	.LVL2:
  15:base64/cdecode.c **** 	if (value_in < 0 || value_in > decoding_size) return -1;
  37              		.loc 1 15 0
  38 0004 5028     		cmp	r0, #80
  16:base64/cdecode.c **** 	return decoding[(int)value_in];
  39              		.loc 1 16 0
  40 0006 9ABF     		itte	ls
  41 0008 024B     		ldrls	r3, .L4
  42 000a 185C     		ldrbls	r0, [r3, r0]	@ zero_extendqisi2
  43              	.LVL3:
  15:base64/cdecode.c **** 	if (value_in < 0 || value_in > decoding_size) return -1;
  44              		.loc 1 15 0
  45 000c 4FF0FF30 		movhi	r0, #-1
  17:base64/cdecode.c **** }
  46              		.loc 1 17 0
  47 0010 7047     		bx	lr
  48              	.L5:
  49 0012 00BF     		.align	2
  50              	.L4:
  51 0014 00000000 		.word	.LANCHOR0
  52              		.cfi_endproc
  53              	.LFE0:
  55              		.section	.text.base64_init_decodestate,"ax",%progbits
  56              		.align	1
  57              		.global	base64_init_decodestate
  58              		.syntax unified
  59              		.thumb
  60              		.thumb_func
  61              		.fpu softvfp
  63              	base64_init_decodestate:
  64              	.LFB1:
  18:base64/cdecode.c **** 
  19:base64/cdecode.c **** void base64_init_decodestate(base64_decodestate* state_in)
  20:base64/cdecode.c **** {
  65              		.loc 1 20 0
  66              		.cfi_startproc
  67              		@ args = 0, pretend = 0, frame = 0
  68              		@ frame_needed = 0, uses_anonymous_args = 0
  69              		@ link register save eliminated.
  70              	.LVL4:
  21:base64/cdecode.c **** 	state_in->step = step_a;
  71              		.loc 1 21 0
  72 0000 0023     		movs	r3, #0
  73 0002 0370     		strb	r3, [r0]
  22:base64/cdecode.c **** 	state_in->plainchar = 0;
  74              		.loc 1 22 0
  75 0004 4370     		strb	r3, [r0, #1]
  23:base64/cdecode.c **** }
  76              		.loc 1 23 0
  77 0006 7047     		bx	lr
  78              		.cfi_endproc
  79              	.LFE1:
  81              		.section	.text.base64_decode_block,"ax",%progbits
  82              		.align	1
  83              		.global	base64_decode_block
  84              		.syntax unified
  85              		.thumb
  86              		.thumb_func
  87              		.fpu softvfp
  89              	base64_decode_block:
  90              	.LFB2:
  24:base64/cdecode.c **** 
  25:base64/cdecode.c **** int base64_decode_block(const char* code_in, const int length_in, char* plaintext_out, base64_decod
  26:base64/cdecode.c **** {
  91              		.loc 1 26 0
  92              		.cfi_startproc
  93              		@ args = 0, pretend = 0, frame = 0
  94              		@ frame_needed = 0, uses_anonymous_args = 0
  95              	.LVL5:
  96 0000 2DE9F843 		push	{r3, r4, r5, r6, r7, r8, r9, lr}
  97              		.cfi_def_cfa_offset 32
  98              		.cfi_offset 3, -32
  99              		.cfi_offset 4, -28
 100              		.cfi_offset 5, -24
 101              		.cfi_offset 6, -20
 102              		.cfi_offset 7, -16
 103              		.cfi_offset 8, -12
 104              		.cfi_offset 9, -8
 105              		.cfi_offset 14, -4
 106              		.loc 1 26 0
 107 0004 1D46     		mov	r5, r3
  27:base64/cdecode.c **** 	const char* codechar = code_in;
  28:base64/cdecode.c **** 	char* plainchar = plaintext_out;
  29:base64/cdecode.c **** 	char fragment;
  30:base64/cdecode.c **** 	
  31:base64/cdecode.c **** 	*plainchar = state_in->plainchar;
 108              		.loc 1 31 0
 109 0006 5B78     		ldrb	r3, [r3, #1]	@ zero_extendqisi2
 110              	.LVL6:
  26:base64/cdecode.c **** 	const char* codechar = code_in;
 111              		.loc 1 26 0
 112 0008 0646     		mov	r6, r0
 113              	.LVL7:
 114              		.loc 1 31 0
 115 000a 1370     		strb	r3, [r2]
  32:base64/cdecode.c **** 	
  33:base64/cdecode.c **** 	switch (state_in->step)
 116              		.loc 1 33 0
 117 000c 2B78     		ldrb	r3, [r5]	@ zero_extendqisi2
 118 000e 032B     		cmp	r3, #3
 119 0010 67D8     		bhi	.L18
 120 0012 DFE803F0 		tbb	[pc, r3]
 121              	.LVL8:
 122              	.L10:
 123 0016 02       		.byte	(.L19-.L10)/2
 124 0017 1A       		.byte	(.L20-.L10)/2
 125 0018 36       		.byte	(.L21-.L10)/2
 126 0019 55       		.byte	(.L22-.L10)/2
 127              		.p2align 1
 128              	.L19:
 129 001a 1446     		mov	r4, r2
  27:base64/cdecode.c **** 	char* plainchar = plaintext_out;
 130              		.loc 1 27 0
 131 001c 3746     		mov	r7, r6
 132              	.LVL9:
 133              	.L9:
  34:base64/cdecode.c **** 	{
  35:base64/cdecode.c **** 		while (1)
  36:base64/cdecode.c **** 		{
  37:base64/cdecode.c **** 	case step_a:
  38:base64/cdecode.c **** 			do {
  39:base64/cdecode.c **** 				if (codechar == code_in+length_in)
 134              		.loc 1 39 0
 135 001e 7318     		adds	r3, r6, r1
 136 0020 9F42     		cmp	r7, r3
 137 0022 06D1     		bne	.L14
  40:base64/cdecode.c **** 				{
  41:base64/cdecode.c **** 					state_in->step = step_a;
 138              		.loc 1 41 0
 139 0024 0023     		movs	r3, #0
 140              	.LVL10:
 141              	.L23:
  42:base64/cdecode.c **** 					state_in->plainchar = *plainchar;
  43:base64/cdecode.c **** 					return plainchar - plaintext_out;
  44:base64/cdecode.c **** 				}
  45:base64/cdecode.c **** 				fragment = (char)base64_decode_value(*codechar++);
  46:base64/cdecode.c **** 			} while (fragment < 0);
  47:base64/cdecode.c **** 			*plainchar    = (fragment & 0x03f) << 2;
  48:base64/cdecode.c **** 	case step_b:
  49:base64/cdecode.c **** 			do {
  50:base64/cdecode.c **** 				if (codechar == code_in+length_in)
  51:base64/cdecode.c **** 				{
  52:base64/cdecode.c **** 					state_in->step = step_b;
 142              		.loc 1 52 0
 143 0026 2B70     		strb	r3, [r5]
  53:base64/cdecode.c **** 					state_in->plainchar = *plainchar;
 144              		.loc 1 53 0
 145 0028 2378     		ldrb	r3, [r4]	@ zero_extendqisi2
  54:base64/cdecode.c **** 					return plainchar - plaintext_out;
 146              		.loc 1 54 0
 147 002a A01A     		subs	r0, r4, r2
  53:base64/cdecode.c **** 					state_in->plainchar = *plainchar;
 148              		.loc 1 53 0
 149 002c 6B70     		strb	r3, [r5, #1]
 150              	.LVL11:
 151              	.L7:
  55:base64/cdecode.c **** 				}
  56:base64/cdecode.c **** 				fragment = (char)base64_decode_value(*codechar++);
  57:base64/cdecode.c **** 			} while (fragment < 0);
  58:base64/cdecode.c **** 			*plainchar++ |= (fragment & 0x030) >> 4;
  59:base64/cdecode.c **** 			*plainchar    = (fragment & 0x00f) << 4;
  60:base64/cdecode.c **** 	case step_c:
  61:base64/cdecode.c **** 			do {
  62:base64/cdecode.c **** 				if (codechar == code_in+length_in)
  63:base64/cdecode.c **** 				{
  64:base64/cdecode.c **** 					state_in->step = step_c;
  65:base64/cdecode.c **** 					state_in->plainchar = *plainchar;
  66:base64/cdecode.c **** 					return plainchar - plaintext_out;
  67:base64/cdecode.c **** 				}
  68:base64/cdecode.c **** 				fragment = (char)base64_decode_value(*codechar++);
  69:base64/cdecode.c **** 			} while (fragment < 0);
  70:base64/cdecode.c **** 			*plainchar++ |= (fragment & 0x03c) >> 2;
  71:base64/cdecode.c **** 			*plainchar    = (fragment & 0x003) << 6;
  72:base64/cdecode.c **** 	case step_d:
  73:base64/cdecode.c **** 			do {
  74:base64/cdecode.c **** 				if (codechar == code_in+length_in)
  75:base64/cdecode.c **** 				{
  76:base64/cdecode.c **** 					state_in->step = step_d;
  77:base64/cdecode.c **** 					state_in->plainchar = *plainchar;
  78:base64/cdecode.c **** 					return plainchar - plaintext_out;
  79:base64/cdecode.c **** 				}
  80:base64/cdecode.c **** 				fragment = (char)base64_decode_value(*codechar++);
  81:base64/cdecode.c **** 			} while (fragment < 0);
  82:base64/cdecode.c **** 			*plainchar++   |= (fragment & 0x03f);
  83:base64/cdecode.c **** 		}
  84:base64/cdecode.c **** 	}
  85:base64/cdecode.c **** 	/* control should not reach here */
  86:base64/cdecode.c **** 	return plainchar - plaintext_out;
  87:base64/cdecode.c **** }
 152              		.loc 1 87 0
 153 002e BDE8F883 		pop	{r3, r4, r5, r6, r7, r8, r9, pc}
 154              	.LVL12:
 155              	.L14:
  45:base64/cdecode.c **** 			} while (fragment < 0);
 156              		.loc 1 45 0
 157 0032 3878     		ldrb	r0, [r7]	@ zero_extendqisi2
 158 0034 FFF7FEFF 		bl	base64_decode_value
 159              	.LVL13:
  47:base64/cdecode.c **** 	case step_b:
 160              		.loc 1 47 0
 161 0038 8000     		lsls	r0, r0, #2
  45:base64/cdecode.c **** 			} while (fragment < 0);
 162              		.loc 1 45 0
 163 003a 07F10109 		add	r9, r7, #1
 164              	.LVL14:
  47:base64/cdecode.c **** 	case step_b:
 165              		.loc 1 47 0
 166 003e 2070     		strb	r0, [r4]
 167              	.L11:
  50:base64/cdecode.c **** 				{
 168              		.loc 1 50 0
 169 0040 7318     		adds	r3, r6, r1
 170 0042 9945     		cmp	r9, r3
 171 0044 04D1     		bne	.L15
  52:base64/cdecode.c **** 					state_in->plainchar = *plainchar;
 172              		.loc 1 52 0
 173 0046 0123     		movs	r3, #1
 174 0048 EDE7     		b	.L23
 175              	.LVL15:
 176              	.L20:
  33:base64/cdecode.c **** 	{
 177              		.loc 1 33 0
 178 004a 1446     		mov	r4, r2
  27:base64/cdecode.c **** 	char* plainchar = plaintext_out;
 179              		.loc 1 27 0
 180 004c B146     		mov	r9, r6
 181 004e F7E7     		b	.L11
 182              	.LVL16:
 183              	.L15:
  56:base64/cdecode.c **** 			} while (fragment < 0);
 184              		.loc 1 56 0
 185 0050 99F80000 		ldrb	r0, [r9]	@ zero_extendqisi2
 186 0054 FFF7FEFF 		bl	base64_decode_value
 187              	.LVL17:
  58:base64/cdecode.c **** 			*plainchar    = (fragment & 0x00f) << 4;
 188              		.loc 1 58 0
 189 0058 94F800C0 		ldrb	ip, [r4]	@ zero_extendqisi2
 190 005c C0F30113 		ubfx	r3, r0, #4, #2
 191 0060 43EA0C03 		orr	r3, r3, ip
  59:base64/cdecode.c **** 	case step_c:
 192              		.loc 1 59 0
 193 0064 0001     		lsls	r0, r0, #4
  56:base64/cdecode.c **** 			} while (fragment < 0);
 194              		.loc 1 56 0
 195 0066 09F10108 		add	r8, r9, #1
 196              	.LVL18:
  58:base64/cdecode.c **** 			*plainchar    = (fragment & 0x00f) << 4;
 197              		.loc 1 58 0
 198 006a 671C     		adds	r7, r4, #1
 199              	.LVL19:
 200 006c 2370     		strb	r3, [r4]
  59:base64/cdecode.c **** 	case step_c:
 201              		.loc 1 59 0
 202 006e 6070     		strb	r0, [r4, #1]
 203              	.L12:
  62:base64/cdecode.c **** 				{
 204              		.loc 1 62 0
 205 0070 7318     		adds	r3, r6, r1
 206 0072 9845     		cmp	r8, r3
 207 0074 08D1     		bne	.L16
  64:base64/cdecode.c **** 					state_in->plainchar = *plainchar;
 208              		.loc 1 64 0
 209 0076 0223     		movs	r3, #2
 210 0078 2B70     		strb	r3, [r5]
  65:base64/cdecode.c **** 					return plainchar - plaintext_out;
 211              		.loc 1 65 0
 212 007a 3B78     		ldrb	r3, [r7]	@ zero_extendqisi2
  66:base64/cdecode.c **** 				}
 213              		.loc 1 66 0
 214 007c B81A     		subs	r0, r7, r2
  65:base64/cdecode.c **** 					return plainchar - plaintext_out;
 215              		.loc 1 65 0
 216 007e 6B70     		strb	r3, [r5, #1]
  66:base64/cdecode.c **** 				}
 217              		.loc 1 66 0
 218 0080 D5E7     		b	.L7
 219              	.LVL20:
 220              	.L21:
  33:base64/cdecode.c **** 	{
 221              		.loc 1 33 0
 222 0082 1746     		mov	r7, r2
  27:base64/cdecode.c **** 	char* plainchar = plaintext_out;
 223              		.loc 1 27 0
 224 0084 B046     		mov	r8, r6
 225 0086 F3E7     		b	.L12
 226              	.LVL21:
 227              	.L16:
  68:base64/cdecode.c **** 			} while (fragment < 0);
 228              		.loc 1 68 0
 229 0088 98F80000 		ldrb	r0, [r8]	@ zero_extendqisi2
 230 008c FFF7FEFF 		bl	base64_decode_value
 231              	.LVL22:
  70:base64/cdecode.c **** 			*plainchar    = (fragment & 0x003) << 6;
 232              		.loc 1 70 0
 233 0090 97F800C0 		ldrb	ip, [r7]	@ zero_extendqisi2
 234 0094 C0F38303 		ubfx	r3, r0, #2, #4
 235 0098 43EA0C03 		orr	r3, r3, ip
  71:base64/cdecode.c **** 	case step_d:
 236              		.loc 1 71 0
 237 009c 8001     		lsls	r0, r0, #6
  68:base64/cdecode.c **** 			} while (fragment < 0);
 238              		.loc 1 68 0
 239 009e 08F10104 		add	r4, r8, #1
 240              	.LVL23:
  70:base64/cdecode.c **** 			*plainchar    = (fragment & 0x003) << 6;
 241              		.loc 1 70 0
 242 00a2 3B70     		strb	r3, [r7]
 243 00a4 07F10108 		add	r8, r7, #1
 244              	.LVL24:
  71:base64/cdecode.c **** 	case step_d:
 245              		.loc 1 71 0
 246 00a8 7870     		strb	r0, [r7, #1]
 247              	.L13:
  74:base64/cdecode.c **** 				{
 248              		.loc 1 74 0
 249 00aa 7318     		adds	r3, r6, r1
 250 00ac 9C42     		cmp	r4, r3
 251 00ae 0AD1     		bne	.L17
  76:base64/cdecode.c **** 					state_in->plainchar = *plainchar;
 252              		.loc 1 76 0
 253 00b0 0323     		movs	r3, #3
 254 00b2 2B70     		strb	r3, [r5]
  77:base64/cdecode.c **** 					return plainchar - plaintext_out;
 255              		.loc 1 77 0
 256 00b4 98F80030 		ldrb	r3, [r8]	@ zero_extendqisi2
  78:base64/cdecode.c **** 				}
 257              		.loc 1 78 0
 258 00b8 A8EB0200 		sub	r0, r8, r2
  77:base64/cdecode.c **** 					return plainchar - plaintext_out;
 259              		.loc 1 77 0
 260 00bc 6B70     		strb	r3, [r5, #1]
  78:base64/cdecode.c **** 				}
 261              		.loc 1 78 0
 262 00be B6E7     		b	.L7
 263              	.LVL25:
 264              	.L22:
  33:base64/cdecode.c **** 	{
 265              		.loc 1 33 0
 266 00c0 9046     		mov	r8, r2
  27:base64/cdecode.c **** 	char* plainchar = plaintext_out;
 267              		.loc 1 27 0
 268 00c2 3446     		mov	r4, r6
 269 00c4 F1E7     		b	.L13
 270              	.LVL26:
 271              	.L17:
  80:base64/cdecode.c **** 			} while (fragment < 0);
 272              		.loc 1 80 0
 273 00c6 2078     		ldrb	r0, [r4]	@ zero_extendqisi2
 274 00c8 FFF7FEFF 		bl	base64_decode_value
 275              	.LVL27:
  82:base64/cdecode.c **** 		}
 276              		.loc 1 82 0
 277 00cc 98F80030 		ldrb	r3, [r8]	@ zero_extendqisi2
 278 00d0 00F03F00 		and	r0, r0, #63
 279 00d4 1843     		orrs	r0, r0, r3
  80:base64/cdecode.c **** 			} while (fragment < 0);
 280              		.loc 1 80 0
 281 00d6 671C     		adds	r7, r4, #1
 282              	.LVL28:
  82:base64/cdecode.c **** 		}
 283              		.loc 1 82 0
 284 00d8 88F80000 		strb	r0, [r8]
 285 00dc 08F10104 		add	r4, r8, #1
 286              	.LVL29:
  37:base64/cdecode.c **** 			do {
 287              		.loc 1 37 0
 288 00e0 9DE7     		b	.L9
 289              	.LVL30:
 290              	.L18:
  86:base64/cdecode.c **** }
 291              		.loc 1 86 0
 292 00e2 0020     		movs	r0, #0
 293 00e4 A3E7     		b	.L7
 294              		.cfi_endproc
 295              	.LFE2:
 297              		.section	.rodata.decoding.4120,"a",%progbits
 298              		.set	.LANCHOR0,. + 0
 301              	decoding.4120:
 302 0000 3E       		.byte	62
 303 0001 FF       		.byte	-1
 304 0002 FF       		.byte	-1
 305 0003 FF       		.byte	-1
 306 0004 3F       		.byte	63
 307 0005 34       		.byte	52
 308 0006 35       		.byte	53
 309 0007 36       		.byte	54
 310 0008 37       		.byte	55
 311 0009 38       		.byte	56
 312 000a 39       		.byte	57
 313 000b 3A       		.byte	58
 314 000c 3B       		.byte	59
 315 000d 3C       		.byte	60
 316 000e 3D       		.byte	61
 317 000f FF       		.byte	-1
 318 0010 FF       		.byte	-1
 319 0011 FF       		.byte	-1
 320 0012 FE       		.byte	-2
 321 0013 FF       		.byte	-1
 322 0014 FF       		.byte	-1
 323 0015 FF       		.byte	-1
 324 0016 00       		.byte	0
 325 0017 01       		.byte	1
 326 0018 02       		.byte	2
 327 0019 03       		.byte	3
 328 001a 04       		.byte	4
 329 001b 05       		.byte	5
 330 001c 06       		.byte	6
 331 001d 07       		.byte	7
 332 001e 08       		.byte	8
 333 001f 09       		.byte	9
 334 0020 0A       		.byte	10
 335 0021 0B       		.byte	11
 336 0022 0C       		.byte	12
 337 0023 0D       		.byte	13
 338 0024 0E       		.byte	14
 339 0025 0F       		.byte	15
 340 0026 10       		.byte	16
 341 0027 11       		.byte	17
 342 0028 12       		.byte	18
 343 0029 13       		.byte	19
 344 002a 14       		.byte	20
 345 002b 15       		.byte	21
 346 002c 16       		.byte	22
 347 002d 17       		.byte	23
 348 002e 18       		.byte	24
 349 002f 19       		.byte	25
 350 0030 FF       		.byte	-1
 351 0031 FF       		.byte	-1
 352 0032 FF       		.byte	-1
 353 0033 FF       		.byte	-1
 354 0034 FF       		.byte	-1
 355 0035 FF       		.byte	-1
 356 0036 1A       		.byte	26
 357 0037 1B       		.byte	27
 358 0038 1C       		.byte	28
 359 0039 1D       		.byte	29
 360 003a 1E       		.byte	30
 361 003b 1F       		.byte	31
 362 003c 20       		.byte	32
 363 003d 21       		.byte	33
 364 003e 22       		.byte	34
 365 003f 23       		.byte	35
 366 0040 24       		.byte	36
 367 0041 25       		.byte	37
 368 0042 26       		.byte	38
 369 0043 27       		.byte	39
 370 0044 28       		.byte	40
 371 0045 29       		.byte	41
 372 0046 2A       		.byte	42
 373 0047 2B       		.byte	43
 374 0048 2C       		.byte	44
 375 0049 2D       		.byte	45
 376 004a 2E       		.byte	46
 377 004b 2F       		.byte	47
 378 004c 30       		.byte	48
 379 004d 31       		.byte	49
 380 004e 32       		.byte	50
 381 004f 33       		.byte	51
 382              		.text
 383              	.Letext0:
 384              		.file 2 "base64/cdecode.h"