   1              		.syntax unified
   2              		.cpu cortex-m3
   3              		.fpu softvfp
   4              		.eabi_attribute 20, 1
   5              		.eabi_attribute 21, 1
   6              		.eabi_attribute 23, 3
   7              		.eabi_attribute 24, 1
   8              		.eabi_attribute 25, 1
   9              		.eabi_attribute 26, 1
  10              		.eabi_attribute 30, 2
  11              		.eabi_attribute 34, 1
  12              		.eabi_attribute 18, 4
  13              		.thumb
  14              		.file	"sha256.c"
  15              		.text
  16              	.Ltext0:
  17              		.cfi_sections	.debug_frame
  18              		.section	.text.sha256_starts,"ax",%progbits
  19              		.align	2
  20              		.global	sha256_starts
  21              		.thumb
  22              		.thumb_func
  24              	sha256_starts:
  25              	.LFB0:
  26              		.file 1 "25519/sha256.c"
   1:25519/sha256.c **** #include <string.h>
   2:25519/sha256.c **** #include "sha256.h"
   3:25519/sha256.c **** 
   4:25519/sha256.c **** #define uchar unsigned char // 8-bit byte
   5:25519/sha256.c **** #define uint unsigned int // 32-bit word
   6:25519/sha256.c **** // DBL_INT_ADD treats two unsigned ints a and b as one 64-bit integer and adds c to it
   7:25519/sha256.c **** #define DBL_INT_ADD(a,b,c) if (a > 0xffffffff - (c)) ++b; a += c;
   8:25519/sha256.c **** #define ROTLEFT(a,b) (((a) << (b)) | ((a) >> (32-(b))))
   9:25519/sha256.c **** #define ROTRIGHT(a,b) (((a) >> (b)) | ((a) << (32-(b))))
  10:25519/sha256.c **** 
  11:25519/sha256.c **** #define CH(x,y,z) (((x) & (y)) ^ (~(x) & (z)))
  12:25519/sha256.c **** #define MAJ(x,y,z) (((x) & (y)) ^ ((x) & (z)) ^ ((y) & (z)))
  13:25519/sha256.c **** #define EP0(x) (ROTRIGHT(x,2) ^ ROTRIGHT(x,13) ^ ROTRIGHT(x,22))
  14:25519/sha256.c **** #define EP1(x) (ROTRIGHT(x,6) ^ ROTRIGHT(x,11) ^ ROTRIGHT(x,25))
  15:25519/sha256.c **** #define SIG0(x) (ROTRIGHT(x,7) ^ ROTRIGHT(x,18) ^ ((x) >> 3))
  16:25519/sha256.c **** #define SIG1(x) (ROTRIGHT(x,17) ^ ROTRIGHT(x,19) ^ ((x) >> 10))
  17:25519/sha256.c **** 
  18:25519/sha256.c **** uint k[64] = {
  19:25519/sha256.c ****    0x428a2f98,0x71374491,0xb5c0fbcf,0xe9b5dba5,0x3956c25b,0x59f111f1,0x923f82a4,0xab1c5ed5,
  20:25519/sha256.c ****    0xd807aa98,0x12835b01,0x243185be,0x550c7dc3,0x72be5d74,0x80deb1fe,0x9bdc06a7,0xc19bf174,
  21:25519/sha256.c ****    0xe49b69c1,0xefbe4786,0x0fc19dc6,0x240ca1cc,0x2de92c6f,0x4a7484aa,0x5cb0a9dc,0x76f988da,
  22:25519/sha256.c ****    0x983e5152,0xa831c66d,0xb00327c8,0xbf597fc7,0xc6e00bf3,0xd5a79147,0x06ca6351,0x14292967,
  23:25519/sha256.c ****    0x27b70a85,0x2e1b2138,0x4d2c6dfc,0x53380d13,0x650a7354,0x766a0abb,0x81c2c92e,0x92722c85,
  24:25519/sha256.c ****    0xa2bfe8a1,0xa81a664b,0xc24b8b70,0xc76c51a3,0xd192e819,0xd6990624,0xf40e3585,0x106aa070,
  25:25519/sha256.c ****    0x19a4c116,0x1e376c08,0x2748774c,0x34b0bcb5,0x391c0cb3,0x4ed8aa4a,0x5b9cca4f,0x682e6ff3,
  26:25519/sha256.c ****    0x748f82ee,0x78a5636f,0x84c87814,0x8cc70208,0x90befffa,0xa4506ceb,0xbef9a3f7,0xc67178f2
  27:25519/sha256.c **** };
  28:25519/sha256.c **** 
  29:25519/sha256.c **** 
  30:25519/sha256.c **** 
  31:25519/sha256.c **** #define GET_UINT32(n,b,i)                       \
  32:25519/sha256.c **** {                                               \
  33:25519/sha256.c ****     (n) = ( (uint32) (b)[(i)    ] << 24 )       \
  34:25519/sha256.c ****         | ( (uint32) (b)[(i) + 1] << 16 )       \
  35:25519/sha256.c ****         | ( (uint32) (b)[(i) + 2] <<  8 )       \
  36:25519/sha256.c ****         | ( (uint32) (b)[(i) + 3]       );      \
  37:25519/sha256.c **** }
  38:25519/sha256.c **** 
  39:25519/sha256.c **** #define PUT_UINT32(n,b,i)                       \
  40:25519/sha256.c **** {                                               \
  41:25519/sha256.c ****     (b)[(i)    ] = (uint8) ( (n) >> 24 );       \
  42:25519/sha256.c ****     (b)[(i) + 1] = (uint8) ( (n) >> 16 );       \
  43:25519/sha256.c ****     (b)[(i) + 2] = (uint8) ( (n) >>  8 );       \
  44:25519/sha256.c ****     (b)[(i) + 3] = (uint8) ( (n)       );       \
  45:25519/sha256.c **** }
  46:25519/sha256.c **** 
  47:25519/sha256.c **** void sha256_starts( sha256_context *ctx )
  48:25519/sha256.c **** {
  27              		.loc 1 48 0
  28              		.cfi_startproc
  29              		@ args = 0, pretend = 0, frame = 0
  30              		@ frame_needed = 0, uses_anonymous_args = 0
  31              		@ link register save eliminated.
  32              	.LVL0:
  33 0000 2DE9F001 		push	{r4, r5, r6, r7, r8}
  34              		.cfi_def_cfa_offset 20
  35              		.cfi_offset 4, -20
  36              		.cfi_offset 5, -16
  37              		.cfi_offset 6, -12
  38              		.cfi_offset 7, -8
  39              		.cfi_offset 8, -4
  49:25519/sha256.c ****     ctx->total[0] = 0;
  50:25519/sha256.c ****     ctx->total[1] = 0;
  51:25519/sha256.c **** 
  52:25519/sha256.c ****     ctx->state[0] = 0x6A09E667;
  53:25519/sha256.c ****     ctx->state[1] = 0xBB67AE85;
  40              		.loc 1 53 0
  41 0004 DFF848C0 		ldr	ip, .L2+24
  52:25519/sha256.c ****     ctx->state[0] = 0x6A09E667;
  42              		.loc 1 52 0
  43 0008 DFF84880 		ldr	r8, .L2+28
  54:25519/sha256.c ****     ctx->state[2] = 0x3C6EF372;
  44              		.loc 1 54 0
  45 000c 0A4F     		ldr	r7, .L2
  55:25519/sha256.c ****     ctx->state[3] = 0xA54FF53A;
  46              		.loc 1 55 0
  47 000e 0B4E     		ldr	r6, .L2+4
  56:25519/sha256.c ****     ctx->state[4] = 0x510E527F;
  48              		.loc 1 56 0
  49 0010 0B4D     		ldr	r5, .L2+8
  57:25519/sha256.c ****     ctx->state[5] = 0x9B05688C;
  50              		.loc 1 57 0
  51 0012 0C4C     		ldr	r4, .L2+12
  58:25519/sha256.c ****     ctx->state[6] = 0x1F83D9AB;
  52              		.loc 1 58 0
  53 0014 0C49     		ldr	r1, .L2+16
  59:25519/sha256.c ****     ctx->state[7] = 0x5BE0CD19;
  54              		.loc 1 59 0
  55 0016 0D4A     		ldr	r2, .L2+20
  49:25519/sha256.c ****     ctx->total[0] = 0;
  56              		.loc 1 49 0
  57 0018 0023     		movs	r3, #0
  52:25519/sha256.c ****     ctx->state[0] = 0x6A09E667;
  58              		.loc 1 52 0
  59 001a C0F80880 		str	r8, [r0, #8]
  54:25519/sha256.c ****     ctx->state[2] = 0x3C6EF372;
  60              		.loc 1 54 0
  61 001e 0761     		str	r7, [r0, #16]
  55:25519/sha256.c ****     ctx->state[3] = 0xA54FF53A;
  62              		.loc 1 55 0
  63 0020 4661     		str	r6, [r0, #20]
  56:25519/sha256.c ****     ctx->state[4] = 0x510E527F;
  64              		.loc 1 56 0
  65 0022 8561     		str	r5, [r0, #24]
  57:25519/sha256.c ****     ctx->state[5] = 0x9B05688C;
  66              		.loc 1 57 0
  67 0024 C461     		str	r4, [r0, #28]
  53:25519/sha256.c ****     ctx->state[1] = 0xBB67AE85;
  68              		.loc 1 53 0
  69 0026 C0F80CC0 		str	ip, [r0, #12]
  58:25519/sha256.c ****     ctx->state[6] = 0x1F83D9AB;
  70              		.loc 1 58 0
  71 002a 0162     		str	r1, [r0, #32]
  72              		.loc 1 59 0
  73 002c 4262     		str	r2, [r0, #36]
  49:25519/sha256.c ****     ctx->total[0] = 0;
  74              		.loc 1 49 0
  75 002e 0360     		str	r3, [r0]
  50:25519/sha256.c ****     ctx->total[1] = 0;
  76              		.loc 1 50 0
  77 0030 4360     		str	r3, [r0, #4]
  60:25519/sha256.c **** }
  78              		.loc 1 60 0
  79 0032 BDE8F001 		pop	{r4, r5, r6, r7, r8}
  80 0036 7047     		bx	lr
  81              	.L3:
  82              		.align	2
  83              	.L2:
  84 0038 72F36E3C 		.word	1013904242
  85 003c 3AF54FA5 		.word	-1521486534
  86 0040 7F520E51 		.word	1359893119
  87 0044 8C68059B 		.word	-1694144372
  88 0048 ABD9831F 		.word	528734635
  89 004c 19CDE05B 		.word	1541459225
  90 0050 85AE67BB 		.word	-1150833019
  91 0054 67E6096A 		.word	1779033703
  92              		.cfi_endproc
  93              	.LFE0:
  95              		.section	.text.sha256_process,"ax",%progbits
  96              		.align	2
  97              		.global	sha256_process
  98              		.thumb
  99              		.thumb_func
 101              	sha256_process:
 102              	.LFB1:
  61:25519/sha256.c **** 
  62:25519/sha256.c **** void sha256_process( sha256_context *ctx, uint8 data[64] )
  63:25519/sha256.c **** {
 103              		.loc 1 63 0
 104              		.cfi_startproc
 105              		@ args = 0, pretend = 0, frame = 112
 106              		@ frame_needed = 0, uses_anonymous_args = 0
 107              		@ link register save eliminated.
 108              	.LVL1:
 109 0000 2DE9F00F 		push	{r4, r5, r6, r7, r8, r9, r10, fp}
 110              		.cfi_def_cfa_offset 32
 111              		.cfi_offset 4, -32
 112              		.cfi_offset 5, -28
 113              		.cfi_offset 6, -24
 114              		.cfi_offset 7, -20
 115              		.cfi_offset 8, -16
 116              		.cfi_offset 9, -12
 117              		.cfi_offset 10, -8
 118              		.cfi_offset 11, -4
 119 0004 9CB0     		sub	sp, sp, #112
 120              		.cfi_def_cfa_offset 144
 121              		.loc 1 63 0
 122 0006 1990     		str	r0, [sp, #100]
  64:25519/sha256.c ****     uint32 temp1, temp2, W[64];
  65:25519/sha256.c ****     uint32 A, B, C, D, E, F, G, H;
  66:25519/sha256.c **** 
  67:25519/sha256.c ****     GET_UINT32( W[0],  data,  0 );
  68:25519/sha256.c ****     GET_UINT32( W[1],  data,  4 );
  69:25519/sha256.c ****     GET_UINT32( W[2],  data,  8 );
  70:25519/sha256.c ****     GET_UINT32( W[3],  data, 12 );
  71:25519/sha256.c ****     GET_UINT32( W[4],  data, 16 );
  72:25519/sha256.c ****     GET_UINT32( W[5],  data, 20 );
  73:25519/sha256.c ****     GET_UINT32( W[6],  data, 24 );
  74:25519/sha256.c ****     GET_UINT32( W[7],  data, 28 );
  75:25519/sha256.c ****     GET_UINT32( W[8],  data, 32 );
  76:25519/sha256.c ****     GET_UINT32( W[9],  data, 36 );
  77:25519/sha256.c ****     GET_UINT32( W[10], data, 40 );
  78:25519/sha256.c ****     GET_UINT32( W[11], data, 44 );
  79:25519/sha256.c ****     GET_UINT32( W[12], data, 48 );
  80:25519/sha256.c ****     GET_UINT32( W[13], data, 52 );
  81:25519/sha256.c ****     GET_UINT32( W[14], data, 56 );
  82:25519/sha256.c ****     GET_UINT32( W[15], data, 60 );
  83:25519/sha256.c **** 
  84:25519/sha256.c **** #define  SHR(x,n) ((x & 0xFFFFFFFF) >> n)
  85:25519/sha256.c **** #define ROTR(x,n) (SHR(x,n) | (x << (32 - n)))
  86:25519/sha256.c **** 
  87:25519/sha256.c **** #define S0(x) (ROTR(x, 7) ^ ROTR(x,18) ^  SHR(x, 3))
  88:25519/sha256.c **** #define S1(x) (ROTR(x,17) ^ ROTR(x,19) ^  SHR(x,10))
  89:25519/sha256.c **** 
  90:25519/sha256.c **** #define S2(x) (ROTR(x, 2) ^ ROTR(x,13) ^ ROTR(x,22))
  91:25519/sha256.c **** #define S3(x) (ROTR(x, 6) ^ ROTR(x,11) ^ ROTR(x,25))
  92:25519/sha256.c **** 
  93:25519/sha256.c **** #define F0(x,y,z) ((x & y) | (z & (x | y)))
  94:25519/sha256.c **** #define F1(x,y,z) (z ^ (x & (y ^ z)))
  95:25519/sha256.c **** 
  96:25519/sha256.c **** #define R(t)                                    \
  97:25519/sha256.c **** (                                               \
  98:25519/sha256.c ****     W[t] = S1(W[t -  2]) + W[t -  7] +          \
  99:25519/sha256.c ****            S0(W[t - 15]) + W[t - 16]            \
 100:25519/sha256.c **** )
 101:25519/sha256.c **** 
 102:25519/sha256.c **** #define P(a,b,c,d,e,f,g,h,x,K)                  \
 103:25519/sha256.c **** {                                               \
 104:25519/sha256.c ****     temp1 = h + S3(e) + F1(e,f,g) + K + x;      \
 105:25519/sha256.c ****     temp2 = S2(a) + F0(a,b,c);                  \
 106:25519/sha256.c ****     d += temp1; h = temp1 + temp2;              \
 107:25519/sha256.c **** }
 108:25519/sha256.c **** 
 109:25519/sha256.c ****     A = ctx->state[0];
 110:25519/sha256.c ****     B = ctx->state[1];
 111:25519/sha256.c ****     C = ctx->state[2];
 112:25519/sha256.c ****     D = ctx->state[3];
 113:25519/sha256.c ****     E = ctx->state[4];
 114:25519/sha256.c ****     F = ctx->state[5];
 115:25519/sha256.c ****     G = ctx->state[6];
 123              		.loc 1 115 0
 124 0008 199A     		ldr	r2, [sp, #100]
 113:25519/sha256.c ****     E = ctx->state[4];
 125              		.loc 1 113 0
 126 000a 8069     		ldr	r0, [r0, #24]
 127              	.LVL2:
 114:25519/sha256.c ****     F = ctx->state[5];
 128              		.loc 1 114 0
 129 000c 199B     		ldr	r3, [sp, #100]
 116:25519/sha256.c ****     H = ctx->state[7];
 130              		.loc 1 116 0
 131 000e 199C     		ldr	r4, [sp, #100]
 109:25519/sha256.c ****     A = ctx->state[0];
 132              		.loc 1 109 0
 133 0010 199E     		ldr	r6, [sp, #100]
 113:25519/sha256.c ****     E = ctx->state[4];
 134              		.loc 1 113 0
 135 0012 0490     		str	r0, [sp, #16]
 115:25519/sha256.c ****     G = ctx->state[6];
 136              		.loc 1 115 0
 137 0014 126A     		ldr	r2, [r2, #32]
 138              	.LVL3:
 114:25519/sha256.c ****     F = ctx->state[5];
 139              		.loc 1 114 0
 140 0016 DB69     		ldr	r3, [r3, #28]
 141              	.LVL4:
 117:25519/sha256.c **** 
 118:25519/sha256.c ****     P( A, B, C, D, E, F, G, H, W[ 0], 0x428A2F98 );
 142              		.loc 1 118 0
 143 0018 4FEAB015 		ror	r5, r0, #6
 110:25519/sha256.c ****     B = ctx->state[1];
 144              		.loc 1 110 0
 145 001c 1998     		ldr	r0, [sp, #100]
 116:25519/sha256.c ****     H = ctx->state[7];
 146              		.loc 1 116 0
 147 001e 646A     		ldr	r4, [r4, #36]
 148              	.LVL5:
 109:25519/sha256.c ****     A = ctx->state[0];
 149              		.loc 1 109 0
 150 0020 B668     		ldr	r6, [r6, #8]
 115:25519/sha256.c ****     G = ctx->state[6];
 151              		.loc 1 115 0
 152 0022 0292     		str	r2, [sp, #8]
 114:25519/sha256.c ****     F = ctx->state[5];
 153              		.loc 1 114 0
 154 0024 0393     		str	r3, [sp, #12]
 110:25519/sha256.c ****     B = ctx->state[1];
 155              		.loc 1 110 0
 156 0026 C068     		ldr	r0, [r0, #12]
 157              	.LVL6:
 109:25519/sha256.c ****     A = ctx->state[0];
 158              		.loc 1 109 0
 159 0028 0896     		str	r6, [sp, #32]
 116:25519/sha256.c ****     H = ctx->state[7];
 160              		.loc 1 116 0
 161 002a 0194     		str	r4, [sp, #4]
 162              		.loc 1 118 0
 163 002c 049A     		ldr	r2, [sp, #16]
 164 002e 029C     		ldr	r4, [sp, #8]
 165 0030 039E     		ldr	r6, [sp, #12]
 110:25519/sha256.c ****     B = ctx->state[1];
 166              		.loc 1 110 0
 167 0032 0790     		str	r0, [sp, #28]
 111:25519/sha256.c ****     C = ctx->state[2];
 168              		.loc 1 111 0
 169 0034 1998     		ldr	r0, [sp, #100]
 170              		.loc 1 118 0
 171 0036 85EAF225 		eor	r5, r5, r2, ror #11
 172 003a D04B     		ldr	r3, .L5
 173 003c 84EA0602 		eor	r2, r4, r6
 174 0040 049C     		ldr	r4, [sp, #16]
 175 0042 019E     		ldr	r6, [sp, #4]
 111:25519/sha256.c ****     C = ctx->state[2];
 176              		.loc 1 111 0
 177 0044 0069     		ldr	r0, [r0, #16]
  67:25519/sha256.c ****     GET_UINT32( W[0],  data,  0 );
 178              		.loc 1 67 0
 179 0046 4F78     		ldrb	r7, [r1, #1]	@ zero_extendqisi2
 180              		.loc 1 118 0
 181 0048 85EA7465 		eor	r5, r5, r4, ror #25
 182 004c 3344     		add	r3, r3, r6
 183 004e 2240     		ands	r2, r2, r4
 184 0050 089E     		ldr	r6, [sp, #32]
 185 0052 079C     		ldr	r4, [sp, #28]
  67:25519/sha256.c ****     GET_UINT32( W[0],  data,  0 );
 186              		.loc 1 67 0
 187 0054 91F800A0 		ldrb	r10, [r1]	@ zero_extendqisi2
 111:25519/sha256.c ****     C = ctx->state[2];
 188              		.loc 1 111 0
 189 0058 0690     		str	r0, [sp, #24]
  67:25519/sha256.c ****     GET_UINT32( W[0],  data,  0 );
 190              		.loc 1 67 0
 191 005a 91F803C0 		ldrb	ip, [r1, #3]	@ zero_extendqisi2
 192              		.loc 1 118 0
 193 005e 03EB0508 		add	r8, r3, r5
 194 0062 44EA0600 		orr	r0, r4, r6
 195 0066 029B     		ldr	r3, [sp, #8]
 196 0068 069C     		ldr	r4, [sp, #24]
  67:25519/sha256.c ****     GET_UINT32( W[0],  data,  0 );
 197              		.loc 1 67 0
 198 006a 3F04     		lsls	r7, r7, #16
 199 006c 91F80290 		ldrb	r9, [r1, #2]	@ zero_extendqisi2
 200 0070 47EA0A67 		orr	r7, r7, r10, lsl #24
 201 0074 47EA0C07 		orr	r7, r7, ip
 202              		.loc 1 118 0
 203 0078 5A40     		eors	r2, r2, r3
 204 007a 2040     		ands	r0, r0, r4
 205 007c 079B     		ldr	r3, [sp, #28]
 206 007e 089C     		ldr	r4, [sp, #32]
  67:25519/sha256.c ****     GET_UINT32( W[0],  data,  0 );
 207              		.loc 1 67 0
 208 0080 47EA0929 		orr	r9, r7, r9, lsl #8
 209              		.loc 1 118 0
 210 0084 4FEAB606 		ror	r6, r6, #2
 211 0088 03EA0405 		and	r5, r3, r4
  68:25519/sha256.c ****     GET_UINT32( W[1],  data,  4 );
 212              		.loc 1 68 0
 213 008c 91F805A0 		ldrb	r10, [r1, #5]	@ zero_extendqisi2
 214              		.loc 1 118 0
 215 0090 86EA7436 		eor	r6, r6, r4, ror #13
  68:25519/sha256.c ****     GET_UINT32( W[1],  data,  4 );
 216              		.loc 1 68 0
 217 0094 0C79     		ldrb	r4, [r1, #4]	@ zero_extendqisi2
  67:25519/sha256.c ****     GET_UINT32( W[0],  data,  0 );
 218              		.loc 1 67 0
 219 0096 CDF86C90 		str	r9, [sp, #108]
 220              	.LVL7:
 112:25519/sha256.c ****     D = ctx->state[3];
 221              		.loc 1 112 0
 222 009a 199F     		ldr	r7, [sp, #100]
 223              		.loc 1 118 0
 224 009c 089B     		ldr	r3, [sp, #32]
 112:25519/sha256.c ****     D = ctx->state[3];
 225              		.loc 1 112 0
 226 009e 7F69     		ldr	r7, [r7, #20]
 227              		.loc 1 118 0
 228 00a0 2843     		orrs	r0, r0, r5
  68:25519/sha256.c ****     GET_UINT32( W[1],  data,  4 );
 229              		.loc 1 68 0
 230 00a2 4FEA0A4A 		lsl	r10, r10, #16
 231 00a6 CD79     		ldrb	r5, [r1, #7]	@ zero_extendqisi2
 232              		.loc 1 118 0
 233 00a8 86EAB356 		eor	r6, r6, r3, ror #22
  68:25519/sha256.c ****     GET_UINT32( W[1],  data,  4 );
 234              		.loc 1 68 0
 235 00ac 4AEA046A 		orr	r10, r10, r4, lsl #24
 236 00b0 8C79     		ldrb	r4, [r1, #6]	@ zero_extendqisi2
 112:25519/sha256.c ****     D = ctx->state[3];
 237              		.loc 1 112 0
 238 00b2 0597     		str	r7, [sp, #20]
 239              		.loc 1 118 0
 240 00b4 3044     		add	r0, r0, r6
  68:25519/sha256.c ****     GET_UINT32( W[1],  data,  4 );
 241              		.loc 1 68 0
 242 00b6 4AEA050A 		orr	r10, r10, r5
 119:25519/sha256.c ****     P( H, A, B, C, D, E, F, G, W[ 1], 0x71374491 );
 243              		.loc 1 119 0
 244 00ba 039E     		ldr	r6, [sp, #12]
 118:25519/sha256.c ****     P( A, B, C, D, E, F, G, H, W[ 0], 0x428A2F98 );
 245              		.loc 1 118 0
 246 00bc 4244     		add	r2, r2, r8
 247 00be BC46     		mov	ip, r7
 248              		.loc 1 119 0
 249 00c0 049F     		ldr	r7, [sp, #16]
 118:25519/sha256.c ****     P( A, B, C, D, E, F, G, H, W[ 0], 0x428A2F98 );
 250              		.loc 1 118 0
 251 00c2 4A44     		add	r2, r2, r9
  68:25519/sha256.c ****     GET_UINT32( W[1],  data,  4 );
 252              		.loc 1 68 0
 253 00c4 4AEA0424 		orr	r4, r10, r4, lsl #8
 118:25519/sha256.c ****     P( A, B, C, D, E, F, G, H, W[ 0], 0x428A2F98 );
 254              		.loc 1 118 0
 255 00c8 00EB020B 		add	fp, r0, r2
 256 00cc 9444     		add	ip, ip, r2
  68:25519/sha256.c ****     GET_UINT32( W[1],  data,  4 );
 257              		.loc 1 68 0
 258 00ce 0D94     		str	r4, [sp, #52]
 259              	.LVL8:
 260              		.loc 1 119 0
 261 00d0 039D     		ldr	r5, [sp, #12]
 262 00d2 089C     		ldr	r4, [sp, #32]
 263              	.LVL9:
 264 00d4 86EA0702 		eor	r2, r6, r7
 265 00d8 0298     		ldr	r0, [sp, #8]
 266 00da 0CEA0202 		and	r2, ip, r2
 267 00de A84B     		ldr	r3, .L5+4
 268 00e0 DDF83490 		ldr	r9, [sp, #52]
 269              	.LVL10:
 270 00e4 4BEA0407 		orr	r7, fp, r4
 271 00e8 6A40     		eors	r2, r2, r5
 272 00ea 0BEA0405 		and	r5, fp, r4
 273 00ee 079C     		ldr	r4, [sp, #28]
 274 00f0 0344     		add	r3, r3, r0
 275 00f2 4FEABC18 		ror	r8, ip, #6
 276 00f6 4FEABB06 		ror	r6, fp, #2
 277 00fa 4B44     		add	r3, r3, r9
 278 00fc 88EAFC28 		eor	r8, r8, ip, ror #11
 279 0100 2740     		ands	r7, r7, r4
 280 0102 86EA7B36 		eor	r6, r6, fp, ror #13
  69:25519/sha256.c ****     GET_UINT32( W[2],  data,  8 );
 281              		.loc 1 69 0
 282 0106 487A     		ldrb	r0, [r1, #9]	@ zero_extendqisi2
 283              		.loc 1 119 0
 284 0108 88EA7C68 		eor	r8, r8, ip, ror #25
 285 010c 86EABB56 		eor	r6, r6, fp, ror #22
 286 0110 1344     		add	r3, r3, r2
 287 0112 2F43     		orrs	r7, r7, r5
  69:25519/sha256.c ****     GET_UINT32( W[2],  data,  8 );
 288              		.loc 1 69 0
 289 0114 0C7A     		ldrb	r4, [r1, #8]	@ zero_extendqisi2
 290              		.loc 1 119 0
 291 0116 4344     		add	r3, r3, r8
 292 0118 3744     		add	r7, r7, r6
  69:25519/sha256.c ****     GET_UINT32( W[2],  data,  8 );
 293              		.loc 1 69 0
 294 011a CD7A     		ldrb	r5, [r1, #11]	@ zero_extendqisi2
 295              		.loc 1 119 0
 296 011c 1F44     		add	r7, r7, r3
  69:25519/sha256.c ****     GET_UINT32( W[2],  data,  8 );
 297              		.loc 1 69 0
 298 011e 0004     		lsls	r0, r0, #16
 299              		.loc 1 119 0
 300 0120 0B97     		str	r7, [sp, #44]
 301 0122 069E     		ldr	r6, [sp, #24]
 120:25519/sha256.c ****     P( G, H, A, B, C, D, E, F, W[ 2], 0xB5C0FBCF );
 302              		.loc 1 120 0
 303 0124 049F     		ldr	r7, [sp, #16]
  69:25519/sha256.c ****     GET_UINT32( W[2],  data,  8 );
 304              		.loc 1 69 0
 305 0126 40EA0460 		orr	r0, r0, r4, lsl #24
 306 012a 8C7A     		ldrb	r4, [r1, #10]	@ zero_extendqisi2
 307 012c 2843     		orrs	r0, r0, r5
 119:25519/sha256.c ****     P( H, A, B, C, D, E, F, G, W[ 1], 0x71374491 );
 308              		.loc 1 119 0
 309 012e 1E44     		add	r6, r6, r3
 310              		.loc 1 120 0
 311 0130 8CEA0709 		eor	r9, ip, r7
  69:25519/sha256.c ****     GET_UINT32( W[2],  data,  8 );
 312              		.loc 1 69 0
 313 0134 40EA0424 		orr	r4, r0, r4, lsl #8
 314 0138 0E94     		str	r4, [sp, #56]
 315              	.LVL11:
 316              		.loc 1 120 0
 317 013a 0398     		ldr	r0, [sp, #12]
 318 013c 06EA0909 		and	r9, r6, r9
 319 0140 904A     		ldr	r2, .L5+8
 320 0142 0B9B     		ldr	r3, [sp, #44]
 321 0144 89EA0709 		eor	r9, r9, r7
 322 0148 0E9F     		ldr	r7, [sp, #56]
 323 014a 0244     		add	r2, r2, r0
 324 014c DDF82CA0 		ldr	r10, [sp, #44]
 325 0150 43EA0B08 		orr	r8, r3, fp
 326 0154 4FEAB304 		ror	r4, r3, #2
 327              	.LVL12:
 328 0158 3A44     		add	r2, r2, r7
 329 015a 03EA0B07 		and	r7, r3, fp
 330              	.LVL13:
 331 015e 089B     		ldr	r3, [sp, #32]
  70:25519/sha256.c ****     GET_UINT32( W[3],  data, 12 );
 332              		.loc 1 70 0
 333 0160 487B     		ldrb	r0, [r1, #13]	@ zero_extendqisi2
 334              		.loc 1 120 0
 335 0162 4FEAB615 		ror	r5, r6, #6
 336 0166 08EA0308 		and	r8, r8, r3
 337 016a 84EA7A34 		eor	r4, r4, r10, ror #13
  70:25519/sha256.c ****     GET_UINT32( W[3],  data, 12 );
 338              		.loc 1 70 0
 339 016e 0B7B     		ldrb	r3, [r1, #12]	@ zero_extendqisi2
 340              		.loc 1 120 0
 341 0170 84EABA54 		eor	r4, r4, r10, ror #22
 342 0174 85EAF625 		eor	r5, r5, r6, ror #11
 343 0178 48EA0708 		orr	r8, r8, r7
  70:25519/sha256.c ****     GET_UINT32( W[3],  data, 12 );
 344              		.loc 1 70 0
 345 017c 0004     		lsls	r0, r0, #16
 346 017e CF7B     		ldrb	r7, [r1, #15]	@ zero_extendqisi2
 347              		.loc 1 120 0
 348 0180 85EA7665 		eor	r5, r5, r6, ror #25
 349 0184 4A44     		add	r2, r2, r9
 350 0186 A044     		add	r8, r8, r4
  70:25519/sha256.c ****     GET_UINT32( W[3],  data, 12 );
 351              		.loc 1 70 0
 352 0188 40EA0363 		orr	r3, r0, r3, lsl #24
 353 018c 8C7B     		ldrb	r4, [r1, #14]	@ zero_extendqisi2
 354              		.loc 1 120 0
 355 018e 2A44     		add	r2, r2, r5
  70:25519/sha256.c ****     GET_UINT32( W[3],  data, 12 );
 356              		.loc 1 70 0
 357 0190 3B43     		orrs	r3, r3, r7
 358              		.loc 1 120 0
 359 0192 079D     		ldr	r5, [sp, #28]
 360 0194 9044     		add	r8, r8, r2
  70:25519/sha256.c ****     GET_UINT32( W[3],  data, 12 );
 361              		.loc 1 70 0
 362 0196 43EA0424 		orr	r4, r3, r4, lsl #8
 363              		.loc 1 120 0
 364 019a 1544     		add	r5, r5, r2
 365 019c CDF83080 		str	r8, [sp, #48]
  71:25519/sha256.c ****     GET_UINT32( W[4],  data, 16 );
 366              		.loc 1 71 0
 367 01a0 4F7C     		ldrb	r7, [r1, #17]	@ zero_extendqisi2
 121:25519/sha256.c ****     P( F, G, H, A, B, C, D, E, W[ 3], 0xE9B5DBA5 );
 368              		.loc 1 121 0
 369 01a2 7948     		ldr	r0, .L5+12
  70:25519/sha256.c ****     GET_UINT32( W[3],  data, 12 );
 370              		.loc 1 70 0
 371 01a4 0F94     		str	r4, [sp, #60]
 372              	.LVL14:
 373              		.loc 1 121 0
 374 01a6 049A     		ldr	r2, [sp, #16]
  71:25519/sha256.c ****     GET_UINT32( W[4],  data, 16 );
 375              		.loc 1 71 0
 376 01a8 0B7C     		ldrb	r3, [r1, #16]	@ zero_extendqisi2
 377              		.loc 1 121 0
 378 01aa 1044     		add	r0, r0, r2
 379 01ac 0B9A     		ldr	r2, [sp, #44]
  71:25519/sha256.c ****     GET_UINT32( W[4],  data, 16 );
 380              		.loc 1 71 0
 381 01ae 0A93     		str	r3, [sp, #40]
 382              		.loc 1 121 0
 383 01b0 0F9B     		ldr	r3, [sp, #60]
 384 01b2 48EA0204 		orr	r4, r8, r2
 385              	.LVL15:
 386 01b6 4FEAB802 		ror	r2, r8, #2
  71:25519/sha256.c ****     GET_UINT32( W[4],  data, 16 );
 387              		.loc 1 71 0
 388 01ba 91F81380 		ldrb	r8, [r1, #19]	@ zero_extendqisi2
 389              		.loc 1 121 0
 390 01be 0344     		add	r3, r3, r0
 391              	.LVL16:
 392 01c0 0993     		str	r3, [sp, #36]
  71:25519/sha256.c ****     GET_UINT32( W[4],  data, 16 );
 393              		.loc 1 71 0
 394 01c2 CDF84080 		str	r8, [sp, #64]
 395              		.loc 1 121 0
 396 01c6 0C9B     		ldr	r3, [sp, #48]
 397 01c8 DDF82C80 		ldr	r8, [sp, #44]
 398 01cc 86EA0C0A 		eor	r10, r6, ip
 399 01d0 03EA0800 		and	r0, r3, r8
 400 01d4 05EA0A0A 		and	r10, r5, r10
 401 01d8 82EA7332 		eor	r2, r2, r3, ror #13
 402 01dc 099B     		ldr	r3, [sp, #36]
  71:25519/sha256.c ****     GET_UINT32( W[4],  data, 16 );
 403              		.loc 1 71 0
 404 01de DDF82880 		ldr	r8, [sp, #40]
 405              		.loc 1 121 0
 406 01e2 04EA0B04 		and	r4, r4, fp
 407 01e6 8AEA0C0A 		eor	r10, r10, ip
 408 01ea 9A44     		add	r10, r10, r3
 409 01ec 4FEAB519 		ror	r9, r5, #6
 410 01f0 0C9B     		ldr	r3, [sp, #48]
 411 01f2 2043     		orrs	r0, r0, r4
  71:25519/sha256.c ****     GET_UINT32( W[4],  data, 16 );
 412              		.loc 1 71 0
 413 01f4 3F04     		lsls	r7, r7, #16
 414 01f6 109C     		ldr	r4, [sp, #64]
 415              		.loc 1 121 0
 416 01f8 89EAF529 		eor	r9, r9, r5, ror #11
  71:25519/sha256.c ****     GET_UINT32( W[4],  data, 16 );
 417              		.loc 1 71 0
 418 01fc 47EA0867 		orr	r7, r7, r8, lsl #24
 419 0200 91F81280 		ldrb	r8, [r1, #18]	@ zero_extendqisi2
 420              		.loc 1 121 0
 421 0204 82EAB352 		eor	r2, r2, r3, ror #22
  71:25519/sha256.c ****     GET_UINT32( W[4],  data, 16 );
 422              		.loc 1 71 0
 423 0208 2743     		orrs	r7, r7, r4
 424              		.loc 1 121 0
 425 020a 89EA7569 		eor	r9, r9, r5, ror #25
 426 020e D144     		add	r9, r9, r10
  71:25519/sha256.c ****     GET_UINT32( W[4],  data, 16 );
 427              		.loc 1 71 0
 428 0210 47EA0828 		orr	r8, r7, r8, lsl #8
 429              		.loc 1 121 0
 430 0214 1044     		add	r0, r0, r2
  72:25519/sha256.c ****     GET_UINT32( W[5],  data, 20 );
 431              		.loc 1 72 0
 432 0216 4F7D     		ldrb	r7, [r1, #21]	@ zero_extendqisi2
 122:25519/sha256.c ****     P( E, F, G, H, A, B, C, D, W[ 4], 0x3956C25B );
 433              		.loc 1 122 0
 434 0218 0C9A     		ldr	r2, [sp, #48]
 435 021a 5C4B     		ldr	r3, .L5+16
 121:25519/sha256.c ****     P( F, G, H, A, B, C, D, E, W[ 3], 0xE9B5DBA5 );
 436              		.loc 1 121 0
 437 021c 4844     		add	r0, r0, r9
 438 021e 0990     		str	r0, [sp, #36]
  72:25519/sha256.c ****     GET_UINT32( W[5],  data, 20 );
 439              		.loc 1 72 0
 440 0220 1297     		str	r7, [sp, #72]
  71:25519/sha256.c ****     GET_UINT32( W[4],  data, 16 );
 441              		.loc 1 71 0
 442 0222 CDF84080 		str	r8, [sp, #64]
 443              	.LVL17:
 444              		.loc 1 122 0
 445 0226 4344     		add	r3, r3, r8
 446 0228 4FEAB007 		ror	r7, r0, #2
 447 022c 40EA0208 		orr	r8, r0, r2
 448              	.LVL18:
  72:25519/sha256.c ****     GET_UINT32( W[5],  data, 20 );
 449              		.loc 1 72 0
 450 0230 087D     		ldrb	r0, [r1, #20]	@ zero_extendqisi2
 121:25519/sha256.c ****     P( F, G, H, A, B, C, D, E, W[ 3], 0xE9B5DBA5 );
 451              		.loc 1 121 0
 452 0232 089C     		ldr	r4, [sp, #32]
  72:25519/sha256.c ****     GET_UINT32( W[5],  data, 20 );
 453              		.loc 1 72 0
 454 0234 1190     		str	r0, [sp, #68]
 455              		.loc 1 122 0
 456 0236 6344     		add	r3, r3, ip
 457 0238 0B98     		ldr	r0, [sp, #44]
 121:25519/sha256.c ****     P( F, G, H, A, B, C, D, E, W[ 3], 0xE9B5DBA5 );
 458              		.loc 1 121 0
 459 023a 4C44     		add	r4, r4, r9
 460              		.loc 1 122 0
 461 023c 0A93     		str	r3, [sp, #40]
 462 023e 85EA060A 		eor	r10, r5, r6
 463 0242 099B     		ldr	r3, [sp, #36]
 464 0244 08EA0008 		and	r8, r8, r0
 465 0248 04EA0A0A 		and	r10, r4, r10
 466 024c 0A98     		ldr	r0, [sp, #40]
 467 024e 03EA020C 		and	ip, r3, r2
 468 0252 8AEA060A 		eor	r10, r10, r6
 469 0256 87EA7337 		eor	r7, r7, r3, ror #13
  72:25519/sha256.c ****     GET_UINT32( W[5],  data, 20 );
 470              		.loc 1 72 0
 471 025a 129B     		ldr	r3, [sp, #72]
 472              		.loc 1 122 0
 473 025c 4FEAB419 		ror	r9, r4, #6
 474 0260 8244     		add	r10, r10, r0
 475 0262 48EA0C0C 		orr	ip, r8, ip
  72:25519/sha256.c ****     GET_UINT32( W[5],  data, 20 );
 476              		.loc 1 72 0
 477 0266 1198     		ldr	r0, [sp, #68]
 478              		.loc 1 122 0
 479 0268 DDF82480 		ldr	r8, [sp, #36]
 480 026c 89EAF429 		eor	r9, r9, r4, ror #11
  72:25519/sha256.c ****     GET_UINT32( W[5],  data, 20 );
 481              		.loc 1 72 0
 482 0270 1A04     		lsls	r2, r3, #16
 483 0272 CB7D     		ldrb	r3, [r1, #23]	@ zero_extendqisi2
 484              		.loc 1 122 0
 485 0274 89EA7469 		eor	r9, r9, r4, ror #25
 486 0278 87EAB857 		eor	r7, r7, r8, ror #22
  72:25519/sha256.c ****     GET_UINT32( W[5],  data, 20 );
 487              		.loc 1 72 0
 488 027c 42EA0062 		orr	r2, r2, r0, lsl #24
 489 0280 91F81680 		ldrb	r8, [r1, #22]	@ zero_extendqisi2
 490              		.loc 1 122 0
 491 0284 CA44     		add	r10, r10, r9
  72:25519/sha256.c ****     GET_UINT32( W[5],  data, 20 );
 492              		.loc 1 72 0
 493 0286 1A43     		orrs	r2, r2, r3
 494              		.loc 1 122 0
 495 0288 BC44     		add	ip, ip, r7
 496 028a D444     		add	ip, ip, r10
  72:25519/sha256.c ****     GET_UINT32( W[5],  data, 20 );
 497              		.loc 1 72 0
 498 028c 42EA0828 		orr	r8, r2, r8, lsl #8
 123:25519/sha256.c ****     P( D, E, F, G, H, A, B, C, W[ 5], 0x59F111F1 );
 499              		.loc 1 123 0
 500 0290 3F4B     		ldr	r3, .L5+20
 122:25519/sha256.c ****     P( E, F, G, H, A, B, C, D, W[ 4], 0x3956C25B );
 501              		.loc 1 122 0
 502 0292 CDF828C0 		str	ip, [sp, #40]
  72:25519/sha256.c ****     GET_UINT32( W[5],  data, 20 );
 503              		.loc 1 72 0
 504 0296 CDF84480 		str	r8, [sp, #68]
  73:25519/sha256.c ****     GET_UINT32( W[6],  data, 24 );
 505              		.loc 1 73 0
 506 029a 4A7E     		ldrb	r2, [r1, #25]	@ zero_extendqisi2
 507              		.loc 1 123 0
 508 029c 4344     		add	r3, r3, r8
  73:25519/sha256.c ****     GET_UINT32( W[6],  data, 24 );
 509              		.loc 1 73 0
 510 029e 1292     		str	r2, [sp, #72]
 511              		.loc 1 123 0
 512 02a0 1E44     		add	r6, r6, r3
 513 02a2 0A9A     		ldr	r2, [sp, #40]
 514 02a4 099B     		ldr	r3, [sp, #36]
 515 02a6 099F     		ldr	r7, [sp, #36]
 516 02a8 02EA0308 		and	r8, r2, r3
 517 02ac 0A9B     		ldr	r3, [sp, #40]
 518 02ae 4CEA0709 		orr	r9, ip, r7
 519 02b2 4FEABC0C 		ror	ip, ip, #2
 122:25519/sha256.c ****     P( E, F, G, H, A, B, C, D, W[ 4], 0x3956C25B );
 520              		.loc 1 122 0
 521 02b6 0AEB0B00 		add	r0, r10, fp
 522              	.LVL19:
 523              		.loc 1 123 0
 524 02ba 0C9A     		ldr	r2, [sp, #48]
 525 02bc 84EA050B 		eor	fp, r4, r5
 526 02c0 8CEA733C 		eor	ip, ip, r3, ror #13
  73:25519/sha256.c ****     GET_UINT32( W[6],  data, 24 );
 527              		.loc 1 73 0
 528 02c4 129B     		ldr	r3, [sp, #72]
 529 02c6 0F7E     		ldrb	r7, [r1, #24]	@ zero_extendqisi2
 530              		.loc 1 123 0
 531 02c8 00EA0B0B 		and	fp, r0, fp
 532 02cc 8BEA050B 		eor	fp, fp, r5
 533 02d0 09EA0209 		and	r9, r9, r2
  73:25519/sha256.c ****     GET_UINT32( W[6],  data, 24 );
 534              		.loc 1 73 0
 535 02d4 1A04     		lsls	r2, r3, #16
 536 02d6 CB7E     		ldrb	r3, [r1, #27]	@ zero_extendqisi2
 537              		.loc 1 123 0
 538 02d8 5E44     		add	r6, r6, fp
  73:25519/sha256.c ****     GET_UINT32( W[6],  data, 24 );
 539              		.loc 1 73 0
 540 02da 42EA0762 		orr	r2, r2, r7, lsl #24
 541 02de 91F81AB0 		ldrb	fp, [r1, #26]	@ zero_extendqisi2
 542 02e2 42EA0307 		orr	r7, r2, r3
 543              		.loc 1 123 0
 544 02e6 49EA0808 		orr	r8, r9, r8
 545 02ea DDF82890 		ldr	r9, [sp, #40]
  73:25519/sha256.c ****     GET_UINT32( W[6],  data, 24 );
 546              		.loc 1 73 0
 547 02ee 47EA0B2B 		orr	fp, r7, fp, lsl #8
 548 02f2 CDF848B0 		str	fp, [sp, #72]
 549              		.loc 1 123 0
 550 02f6 8CEAB95C 		eor	ip, ip, r9, ror #22
 551 02fa 4FEAB01A 		ror	r10, r0, #6
 552 02fe 8AEAF02A 		eor	r10, r10, r0, ror #11
 553 0302 E044     		add	r8, r8, ip
 124:25519/sha256.c ****     P( C, D, E, F, G, H, A, B, W[ 6], 0x923F82A4 );
 554              		.loc 1 124 0
 555 0304 234B     		ldr	r3, .L5+24
 556 0306 DDF848C0 		ldr	ip, [sp, #72]
 123:25519/sha256.c ****     P( D, E, F, G, H, A, B, C, W[ 5], 0x59F111F1 );
 557              		.loc 1 123 0
 558 030a 8AEA706A 		eor	r10, r10, r0, ror #25
 559 030e 5644     		add	r6, r6, r10
 560              		.loc 1 124 0
 561 0310 6344     		add	r3, r3, ip
 123:25519/sha256.c ****     P( D, E, F, G, H, A, B, C, W[ 5], 0x59F111F1 );
 562              		.loc 1 123 0
 563 0312 B044     		add	r8, r8, r6
 564              		.loc 1 124 0
 565 0314 1D44     		add	r5, r5, r3
 566 0316 0A9B     		ldr	r3, [sp, #40]
 123:25519/sha256.c ****     P( D, E, F, G, H, A, B, C, W[ 5], 0x59F111F1 );
 567              		.loc 1 123 0
 568 0318 0B9A     		ldr	r2, [sp, #44]
  74:25519/sha256.c ****     GET_UINT32( W[7],  data, 28 );
 569              		.loc 1 74 0
 570 031a 91F81DA0 		ldrb	r10, [r1, #29]	@ zero_extendqisi2
 123:25519/sha256.c ****     P( D, E, F, G, H, A, B, C, W[ 5], 0x59F111F1 );
 571              		.loc 1 123 0
 572 031e CDF82C80 		str	r8, [sp, #44]
 573              		.loc 1 124 0
 574 0322 48EA0909 		orr	r9, r8, r9
 575 0326 4FEAB80C 		ror	ip, r8, #2
 576 032a 08EA0308 		and	r8, r8, r3
 577 032e 0B9B     		ldr	r3, [sp, #44]
  74:25519/sha256.c ****     GET_UINT32( W[7],  data, 28 );
 578              		.loc 1 74 0
 579 0330 CDF84CA0 		str	r10, [sp, #76]
 123:25519/sha256.c ****     P( D, E, F, G, H, A, B, C, W[ 5], 0x59F111F1 );
 580              		.loc 1 123 0
 581 0334 3244     		add	r2, r2, r6
 582              	.LVL20:
 583              		.loc 1 124 0
 584 0336 80EA040B 		eor	fp, r0, r4
 585              	.LVL21:
 586 033a 099E     		ldr	r6, [sp, #36]
 587 033c 8CEA733C 		eor	ip, ip, r3, ror #13
  74:25519/sha256.c ****     GET_UINT32( W[7],  data, 28 );
 588              		.loc 1 74 0
 589 0340 139B     		ldr	r3, [sp, #76]
 590 0342 0F7F     		ldrb	r7, [r1, #28]	@ zero_extendqisi2
 591              		.loc 1 124 0
 592 0344 02EA0B0B 		and	fp, r2, fp
 593 0348 8BEA040B 		eor	fp, fp, r4
 594 034c 09EA0609 		and	r9, r9, r6
  74:25519/sha256.c ****     GET_UINT32( W[7],  data, 28 );
 595              		.loc 1 74 0
 596 0350 1E04     		lsls	r6, r3, #16
 597 0352 CB7F     		ldrb	r3, [r1, #31]	@ zero_extendqisi2
 598              		.loc 1 124 0
 599 0354 5D44     		add	r5, r5, fp
  74:25519/sha256.c ****     GET_UINT32( W[7],  data, 28 );
 600              		.loc 1 74 0
 601 0356 46EA0766 		orr	r6, r6, r7, lsl #24
 602 035a 91F81EB0 		ldrb	fp, [r1, #30]	@ zero_extendqisi2
 603 035e 1E43     		orrs	r6, r6, r3
 604              		.loc 1 124 0
 605 0360 4FEAB21A 		ror	r10, r2, #6
 606 0364 49EA0808 		orr	r8, r9, r8
 607 0368 DDF82C90 		ldr	r9, [sp, #44]
  74:25519/sha256.c ****     GET_UINT32( W[7],  data, 28 );
 608              		.loc 1 74 0
 609 036c 46EA0B2B 		orr	fp, r6, fp, lsl #8
 610              		.loc 1 124 0
 611 0370 8AEAF22A 		eor	r10, r10, r2, ror #11
  74:25519/sha256.c ****     GET_UINT32( W[7],  data, 28 );
 612              		.loc 1 74 0
 613 0374 CDF84CB0 		str	fp, [sp, #76]
 614 0378 0EE0     		b	.L6
 615              	.L7:
 616 037a 00BF     		.align	2
 617              	.L5:
 618 037c 982F8A42 		.word	1116352408
 619 0380 91443771 		.word	1899447441
 620 0384 CFFBC0B5 		.word	-1245643825
 621 0388 A5DBB5E9 		.word	-373957723
 622 038c 5BC25639 		.word	961987163
 623 0390 F111F159 		.word	1508970993
 624 0394 A4823F92 		.word	-1841331548
 625              	.L6:
 626              		.loc 1 124 0
 627 0398 8CEAB95C 		eor	ip, ip, r9, ror #22
 628 039c 8AEA726A 		eor	r10, r10, r2, ror #25
 629 03a0 AA44     		add	r10, r10, r5
 630 03a2 E044     		add	r8, r8, ip
 125:25519/sha256.c ****     P( B, C, D, E, F, G, H, A, W[ 7], 0xAB1C5ED5 );
 631              		.loc 1 125 0
 632 03a4 E94D     		ldr	r5, .L8
 633 03a6 DDF84CC0 		ldr	ip, [sp, #76]
 124:25519/sha256.c ****     P( C, D, E, F, G, H, A, B, W[ 6], 0x923F82A4 );
 634              		.loc 1 124 0
 635 03aa 0C9B     		ldr	r3, [sp, #48]
 636              		.loc 1 125 0
 637 03ac 6544     		add	r5, r5, ip
 124:25519/sha256.c ****     P( C, D, E, F, G, H, A, B, W[ 6], 0x923F82A4 );
 638              		.loc 1 124 0
 639 03ae D044     		add	r8, r8, r10
 640              		.loc 1 125 0
 641 03b0 2C44     		add	r4, r4, r5
 642 03b2 0B9D     		ldr	r5, [sp, #44]
 124:25519/sha256.c ****     P( C, D, E, F, G, H, A, B, W[ 6], 0x923F82A4 );
 643              		.loc 1 124 0
 644 03b4 5344     		add	r3, r3, r10
 645              	.LVL22:
 646 03b6 CDF83080 		str	r8, [sp, #48]
  75:25519/sha256.c ****     GET_UINT32( W[8],  data, 32 );
 647              		.loc 1 75 0
 648 03ba 91F821A0 		ldrb	r10, [r1, #33]	@ zero_extendqisi2
 649              		.loc 1 125 0
 650 03be 0A9E     		ldr	r6, [sp, #40]
 651 03c0 48EA0909 		orr	r9, r8, r9
 652 03c4 4FEAB80C 		ror	ip, r8, #2
 653 03c8 08EA0508 		and	r8, r8, r5
 654 03cc 0C9D     		ldr	r5, [sp, #48]
  75:25519/sha256.c ****     GET_UINT32( W[8],  data, 32 );
 655              		.loc 1 75 0
 656 03ce CDF850A0 		str	r10, [sp, #80]
 657              		.loc 1 125 0
 658 03d2 82EA000B 		eor	fp, r2, r0
 659              	.LVL23:
 660 03d6 09EA0609 		and	r9, r9, r6
 661 03da 8CEA753C 		eor	ip, ip, r5, ror #13
  75:25519/sha256.c ****     GET_UINT32( W[8],  data, 32 );
 662              		.loc 1 75 0
 663 03de 149D     		ldr	r5, [sp, #80]
 664 03e0 91F82070 		ldrb	r7, [r1, #32]	@ zero_extendqisi2
 665              		.loc 1 125 0
 666 03e4 03EA0B0B 		and	fp, r3, fp
 667 03e8 4FEAB31A 		ror	r10, r3, #6
 668 03ec 49EA0808 		orr	r8, r9, r8
 669 03f0 DDF83090 		ldr	r9, [sp, #48]
 670 03f4 8BEA000B 		eor	fp, fp, r0
 671 03f8 8AEAF32A 		eor	r10, r10, r3, ror #11
  75:25519/sha256.c ****     GET_UINT32( W[8],  data, 32 );
 672              		.loc 1 75 0
 673 03fc 2E04     		lsls	r6, r5, #16
 674 03fe 91F82350 		ldrb	r5, [r1, #35]	@ zero_extendqisi2
 675              		.loc 1 125 0
 676 0402 8AEA736A 		eor	r10, r10, r3, ror #25
 677 0406 8CEAB95C 		eor	ip, ip, r9, ror #22
  75:25519/sha256.c ****     GET_UINT32( W[8],  data, 32 );
 678              		.loc 1 75 0
 679 040a 46EA0766 		orr	r6, r6, r7, lsl #24
 680              		.loc 1 125 0
 681 040e 5C44     		add	r4, r4, fp
 682 0410 5444     		add	r4, r4, r10
  75:25519/sha256.c ****     GET_UINT32( W[8],  data, 32 );
 683              		.loc 1 75 0
 684 0412 3543     		orrs	r5, r5, r6
 685              		.loc 1 125 0
 686 0414 E044     		add	r8, r8, ip
 687 0416 099E     		ldr	r6, [sp, #36]
  75:25519/sha256.c ****     GET_UINT32( W[8],  data, 32 );
 688              		.loc 1 75 0
 689 0418 91F822B0 		ldrb	fp, [r1, #34]	@ zero_extendqisi2
 690              		.loc 1 125 0
 691 041c A044     		add	r8, r8, r4
 692 041e CDF82480 		str	r8, [sp, #36]
 693 0422 2644     		add	r6, r6, r4
 126:25519/sha256.c ****     P( A, B, C, D, E, F, G, H, W[ 8], 0xD807AA98 );
 694              		.loc 1 126 0
 695 0424 DDF824C0 		ldr	ip, [sp, #36]
 696 0428 0C9C     		ldr	r4, [sp, #48]
  76:25519/sha256.c ****     GET_UINT32( W[9],  data, 36 );
 697              		.loc 1 76 0
 698 042a 91F825A0 		ldrb	r10, [r1, #37]	@ zero_extendqisi2
 699              		.loc 1 126 0
 700 042e C84F     		ldr	r7, .L8+4
  75:25519/sha256.c ****     GET_UINT32( W[8],  data, 32 );
 701              		.loc 1 75 0
 702 0430 45EA0B2B 		orr	fp, r5, fp, lsl #8
  76:25519/sha256.c ****     GET_UINT32( W[9],  data, 36 );
 703              		.loc 1 76 0
 704 0434 CDF850A0 		str	r10, [sp, #80]
  75:25519/sha256.c ****     GET_UINT32( W[8],  data, 32 );
 705              		.loc 1 75 0
 706 0438 CDF868B0 		str	fp, [sp, #104]
 707              		.loc 1 126 0
 708 043c 83EA0209 		eor	r9, r3, r2
 709 0440 5F44     		add	r7, r7, fp
 710 0442 4FEABC0A 		ror	r10, ip, #2
 711 0446 4CEA040B 		orr	fp, ip, r4
 712 044a 0CEA040C 		and	ip, ip, r4
 713 044e 099C     		ldr	r4, [sp, #36]
 714 0450 06EA0909 		and	r9, r6, r9
 715 0454 89EA0209 		eor	r9, r9, r2
 716 0458 3844     		add	r0, r0, r7
 717 045a 8AEA743A 		eor	r10, r10, r4, ror #13
 718 045e 0B9F     		ldr	r7, [sp, #44]
  76:25519/sha256.c ****     GET_UINT32( W[9],  data, 36 );
 719              		.loc 1 76 0
 720 0460 149C     		ldr	r4, [sp, #80]
 721 0462 91F82450 		ldrb	r5, [r1, #36]	@ zero_extendqisi2
 722              		.loc 1 126 0
 723 0466 4FEAB618 		ror	r8, r6, #6
 724 046a 4844     		add	r0, r0, r9
 725 046c DDF82490 		ldr	r9, [sp, #36]
 726 0470 88EAF628 		eor	r8, r8, r6, ror #11
 727 0474 0BEA070B 		and	fp, fp, r7
  76:25519/sha256.c ****     GET_UINT32( W[9],  data, 36 );
 728              		.loc 1 76 0
 729 0478 2704     		lsls	r7, r4, #16
 730 047a 91F82740 		ldrb	r4, [r1, #39]	@ zero_extendqisi2
 731              		.loc 1 126 0
 732 047e 88EA7668 		eor	r8, r8, r6, ror #25
 733 0482 8AEAB95A 		eor	r10, r10, r9, ror #22
  76:25519/sha256.c ****     GET_UINT32( W[9],  data, 36 );
 734              		.loc 1 76 0
 735 0486 47EA0565 		orr	r5, r7, r5, lsl #24
 736              		.loc 1 126 0
 737 048a 4BEA0C0B 		orr	fp, fp, ip
  76:25519/sha256.c ****     GET_UINT32( W[9],  data, 36 );
 738              		.loc 1 76 0
 739 048e 91F82670 		ldrb	r7, [r1, #38]	@ zero_extendqisi2
 740              		.loc 1 126 0
 741 0492 4044     		add	r0, r0, r8
  76:25519/sha256.c ****     GET_UINT32( W[9],  data, 36 );
 742              		.loc 1 76 0
 743 0494 2C43     		orrs	r4, r4, r5
 744              		.loc 1 126 0
 745 0496 D344     		add	fp, fp, r10
 127:25519/sha256.c ****     P( H, A, B, C, D, E, F, G, W[ 9], 0x12835B01 );
 746              		.loc 1 127 0
 747 0498 AE4D     		ldr	r5, .L8+8
 126:25519/sha256.c ****     P( A, B, C, D, E, F, G, H, W[ 8], 0xD807AA98 );
 748              		.loc 1 126 0
 749 049a DDF82890 		ldr	r9, [sp, #40]
  76:25519/sha256.c ****     GET_UINT32( W[9],  data, 36 );
 750              		.loc 1 76 0
 751 049e 44EA0727 		orr	r7, r4, r7, lsl #8
 126:25519/sha256.c ****     P( A, B, C, D, E, F, G, H, W[ 8], 0xD807AA98 );
 752              		.loc 1 126 0
 753 04a2 8344     		add	fp, fp, r0
 754 04a4 CDF828B0 		str	fp, [sp, #40]
 755              		.loc 1 127 0
 756 04a8 3D44     		add	r5, r5, r7
 126:25519/sha256.c ****     P( A, B, C, D, E, F, G, H, W[ 8], 0xD807AA98 );
 757              		.loc 1 126 0
 758 04aa 8144     		add	r9, r9, r0
 759              		.loc 1 127 0
 760 04ac 2A44     		add	r2, r2, r5
 761 04ae 0998     		ldr	r0, [sp, #36]
 762 04b0 0A9D     		ldr	r5, [sp, #40]
  77:25519/sha256.c ****     GET_UINT32( W[10], data, 40 );
 763              		.loc 1 77 0
 764 04b2 91F829A0 		ldrb	r10, [r1, #41]	@ zero_extendqisi2
  76:25519/sha256.c ****     GET_UINT32( W[9],  data, 36 );
 765              		.loc 1 76 0
 766 04b6 1497     		str	r7, [sp, #80]
 767              		.loc 1 127 0
 768 04b8 4BEA000B 		orr	fp, fp, r0
 769 04bc 05EA0007 		and	r7, r5, r0
 770 04c0 0C98     		ldr	r0, [sp, #48]
  77:25519/sha256.c ****     GET_UINT32( W[10], data, 40 );
 771              		.loc 1 77 0
 772 04c2 CDF854A0 		str	r10, [sp, #84]
 773              		.loc 1 127 0
 774 04c6 0A9C     		ldr	r4, [sp, #40]
 775 04c8 86EA0308 		eor	r8, r6, r3
 776 04cc 0BEA000B 		and	fp, fp, r0
  77:25519/sha256.c ****     GET_UINT32( W[10], data, 40 );
 777              		.loc 1 77 0
 778 04d0 1598     		ldr	r0, [sp, #84]
 779              		.loc 1 127 0
 780 04d2 09EA0808 		and	r8, r9, r8
 781 04d6 4FEAB91C 		ror	ip, r9, #6
 782 04da 4FEAB40A 		ror	r10, r4, #2
 783 04de 4BEA070B 		orr	fp, fp, r7
  77:25519/sha256.c ****     GET_UINT32( W[10], data, 40 );
 784              		.loc 1 77 0
 785 04e2 91F82840 		ldrb	r4, [r1, #40]	@ zero_extendqisi2
 786              		.loc 1 127 0
 787 04e6 0A9F     		ldr	r7, [sp, #40]
 788 04e8 88EA0308 		eor	r8, r8, r3
 789 04ec 8CEAF92C 		eor	ip, ip, r9, ror #11
 790 04f0 8AEA753A 		eor	r10, r10, r5, ror #13
  77:25519/sha256.c ****     GET_UINT32( W[10], data, 40 );
 791              		.loc 1 77 0
 792 04f4 0504     		lsls	r5, r0, #16
 793 04f6 91F82B00 		ldrb	r0, [r1, #43]	@ zero_extendqisi2
 794              		.loc 1 127 0
 795 04fa 8CEA796C 		eor	ip, ip, r9, ror #25
 796 04fe 8AEAB75A 		eor	r10, r10, r7, ror #22
 797 0502 4244     		add	r2, r2, r8
  77:25519/sha256.c ****     GET_UINT32( W[10], data, 40 );
 798              		.loc 1 77 0
 799 0504 45EA0464 		orr	r4, r5, r4, lsl #24
 800              		.loc 1 127 0
 801 0508 6244     		add	r2, r2, ip
  77:25519/sha256.c ****     GET_UINT32( W[10], data, 40 );
 802              		.loc 1 77 0
 803 050a 91F82A80 		ldrb	r8, [r1, #42]	@ zero_extendqisi2
 804 050e 0443     		orrs	r4, r4, r0
 805              		.loc 1 127 0
 806 0510 D344     		add	fp, fp, r10
 128:25519/sha256.c ****     P( G, H, A, B, C, D, E, F, W[10], 0x243185BE );
 807              		.loc 1 128 0
 808 0512 0A98     		ldr	r0, [sp, #40]
 127:25519/sha256.c ****     P( H, A, B, C, D, E, F, G, W[ 9], 0x12835B01 );
 809              		.loc 1 127 0
 810 0514 9344     		add	fp, fp, r2
 811              		.loc 1 128 0
 812 0516 904D     		ldr	r5, .L8+12
 127:25519/sha256.c ****     P( H, A, B, C, D, E, F, G, W[ 9], 0x12835B01 );
 813              		.loc 1 127 0
 814 0518 0B9F     		ldr	r7, [sp, #44]
  77:25519/sha256.c ****     GET_UINT32( W[10], data, 40 );
 815              		.loc 1 77 0
 816 051a 44EA0828 		orr	r8, r4, r8, lsl #8
 817              		.loc 1 128 0
 818 051e 4BEA000C 		orr	ip, fp, r0
 819 0522 0998     		ldr	r0, [sp, #36]
 127:25519/sha256.c ****     P( H, A, B, C, D, E, F, G, W[ 9], 0x12835B01 );
 820              		.loc 1 127 0
 821 0524 CDF82CB0 		str	fp, [sp, #44]
 822              		.loc 1 128 0
 823 0528 4544     		add	r5, r5, r8
 127:25519/sha256.c ****     P( H, A, B, C, D, E, F, G, W[ 9], 0x12835B01 );
 824              		.loc 1 127 0
 825 052a 1744     		add	r7, r7, r2
 826              		.loc 1 128 0
 827 052c 89EA060A 		eor	r10, r9, r6
 828 0530 4FEABB04 		ror	r4, fp, #2
 829 0534 2B44     		add	r3, r3, r5
  78:25519/sha256.c ****     GET_UINT32( W[11], data, 44 );
 830              		.loc 1 78 0
 831 0536 91F82CB0 		ldrb	fp, [r1, #44]	@ zero_extendqisi2
 832              		.loc 1 128 0
 833 053a 0B9D     		ldr	r5, [sp, #44]
 834 053c 0CEA000C 		and	ip, ip, r0
 835 0540 0A98     		ldr	r0, [sp, #40]
 836 0542 07EA0A0A 		and	r10, r7, r10
  78:25519/sha256.c ****     GET_UINT32( W[11], data, 44 );
 837              		.loc 1 78 0
 838 0546 CDF858B0 		str	fp, [sp, #88]
 839 054a 91F82D20 		ldrb	r2, [r1, #45]	@ zero_extendqisi2
 840              		.loc 1 128 0
 841 054e 05EA000B 		and	fp, r5, r0
 842 0552 8AEA060A 		eor	r10, r10, r6
  77:25519/sha256.c ****     GET_UINT32( W[10], data, 40 );
 843              		.loc 1 77 0
 844 0556 CDF85480 		str	r8, [sp, #84]
 845              		.loc 1 128 0
 846 055a 5344     		add	r3, r3, r10
 847 055c 4FEAB718 		ror	r8, r7, #6
 848 0560 DDF82CA0 		ldr	r10, [sp, #44]
 849 0564 4CEA0B0C 		orr	ip, ip, fp
  78:25519/sha256.c ****     GET_UINT32( W[11], data, 44 );
 850              		.loc 1 78 0
 851 0568 DDF858B0 		ldr	fp, [sp, #88]
 852              		.loc 1 128 0
 853 056c 88EAF728 		eor	r8, r8, r7, ror #11
 854 0570 84EA7534 		eor	r4, r4, r5, ror #13
  78:25519/sha256.c ****     GET_UINT32( W[11], data, 44 );
 855              		.loc 1 78 0
 856 0574 1204     		lsls	r2, r2, #16
 857 0576 91F82F50 		ldrb	r5, [r1, #47]	@ zero_extendqisi2
 858              		.loc 1 128 0
 859 057a 88EA7768 		eor	r8, r8, r7, ror #25
 860 057e 84EABA54 		eor	r4, r4, r10, ror #22
  78:25519/sha256.c ****     GET_UINT32( W[11], data, 44 );
 861              		.loc 1 78 0
 862 0582 42EA0B62 		orr	r2, r2, fp, lsl #24
 863              		.loc 1 128 0
 864 0586 DDF830A0 		ldr	r10, [sp, #48]
  78:25519/sha256.c ****     GET_UINT32( W[11], data, 44 );
 865              		.loc 1 78 0
 866 058a 91F82EB0 		ldrb	fp, [r1, #46]	@ zero_extendqisi2
 867              		.loc 1 128 0
 868 058e 4344     		add	r3, r3, r8
 869 0590 A444     		add	ip, ip, r4
  78:25519/sha256.c ****     GET_UINT32( W[11], data, 44 );
 870              		.loc 1 78 0
 871 0592 2A43     		orrs	r2, r2, r5
 129:25519/sha256.c ****     P( F, G, H, A, B, C, D, E, W[11], 0x550C7DC3 );
 872              		.loc 1 129 0
 873 0594 714C     		ldr	r4, .L8+16
 128:25519/sha256.c ****     P( G, H, A, B, C, D, E, F, W[10], 0x243185BE );
 874              		.loc 1 128 0
 875 0596 0CEB0308 		add	r8, ip, r3
 876 059a 9A44     		add	r10, r10, r3
  78:25519/sha256.c ****     GET_UINT32( W[11], data, 44 );
 877              		.loc 1 78 0
 878 059c 42EA0B2B 		orr	fp, r2, fp, lsl #8
 879              		.loc 1 129 0
 880 05a0 87EA090C 		eor	ip, r7, r9
 881 05a4 5C44     		add	r4, r4, fp
 882 05a6 0AEA0C0C 		and	ip, r10, ip
  78:25519/sha256.c ****     GET_UINT32( W[11], data, 44 );
 883              		.loc 1 78 0
 884 05aa CDF858B0 		str	fp, [sp, #88]
 885              		.loc 1 129 0
 886 05ae 8CEA090C 		eor	ip, ip, r9
 887 05b2 0B9A     		ldr	r2, [sp, #44]
 888 05b4 2644     		add	r6, r6, r4
 889 05b6 DDF828B0 		ldr	fp, [sp, #40]
  79:25519/sha256.c ****     GET_UINT32( W[12], data, 48 );
 890              		.loc 1 79 0
 891 05ba 91F83040 		ldrb	r4, [r1, #48]	@ zero_extendqisi2
 892              		.loc 1 129 0
 893 05be 6644     		add	r6, r6, ip
 894 05c0 DDF82CC0 		ldr	ip, [sp, #44]
 895 05c4 48EA0200 		orr	r0, r8, r2
  79:25519/sha256.c ****     GET_UINT32( W[12], data, 48 );
 896              		.loc 1 79 0
 897 05c8 0C94     		str	r4, [sp, #48]
 898 05ca 91F83130 		ldrb	r3, [r1, #49]	@ zero_extendqisi2
 899              		.loc 1 129 0
 900 05ce 00EA0B00 		and	r0, r0, fp
 901 05d2 08EA0C0B 		and	fp, r8, ip
 902 05d6 4FEABA15 		ror	r5, r10, #6
 903 05da 4FEAB802 		ror	r2, r8, #2
 904 05de 40EA0B00 		orr	r0, r0, fp
  79:25519/sha256.c ****     GET_UINT32( W[12], data, 48 );
 905              		.loc 1 79 0
 906 05e2 DDF830B0 		ldr	fp, [sp, #48]
 907 05e6 91F83340 		ldrb	r4, [r1, #51]	@ zero_extendqisi2
 908              		.loc 1 129 0
 909 05ea 85EAFA25 		eor	r5, r5, r10, ror #11
 910 05ee 82EA7832 		eor	r2, r2, r8, ror #13
  79:25519/sha256.c ****     GET_UINT32( W[12], data, 48 );
 911              		.loc 1 79 0
 912 05f2 1B04     		lsls	r3, r3, #16
 913              		.loc 1 129 0
 914 05f4 85EA7A65 		eor	r5, r5, r10, ror #25
 915 05f8 82EAB852 		eor	r2, r2, r8, ror #22
  79:25519/sha256.c ****     GET_UINT32( W[12], data, 48 );
 916              		.loc 1 79 0
 917 05fc 43EA0B63 		orr	r3, r3, fp, lsl #24
 918 0600 91F832B0 		ldrb	fp, [r1, #50]	@ zero_extendqisi2
 919              		.loc 1 129 0
 920 0604 2E44     		add	r6, r6, r5
  79:25519/sha256.c ****     GET_UINT32( W[12], data, 48 );
 921              		.loc 1 79 0
 922 0606 2343     		orrs	r3, r3, r4
 923              		.loc 1 129 0
 924 0608 1044     		add	r0, r0, r2
 130:25519/sha256.c ****     P( E, F, G, H, A, B, C, D, W[12], 0x72BE5D74 );
 925              		.loc 1 130 0
 926 060a 554A     		ldr	r2, .L8+20
 129:25519/sha256.c ****     P( F, G, H, A, B, C, D, E, W[11], 0x550C7DC3 );
 927              		.loc 1 129 0
 928 060c 099C     		ldr	r4, [sp, #36]
  79:25519/sha256.c ****     GET_UINT32( W[12], data, 48 );
 929              		.loc 1 79 0
 930 060e 43EA0B2B 		orr	fp, r3, fp, lsl #8
 129:25519/sha256.c ****     P( F, G, H, A, B, C, D, E, W[11], 0x550C7DC3 );
 931              		.loc 1 129 0
 932 0612 3044     		add	r0, r0, r6
 933 0614 0990     		str	r0, [sp, #36]
 934              		.loc 1 130 0
 935 0616 5A44     		add	r2, r2, fp
 129:25519/sha256.c ****     P( F, G, H, A, B, C, D, E, W[11], 0x550C7DC3 );
 936              		.loc 1 129 0
 937 0618 3444     		add	r4, r4, r6
 938              		.loc 1 130 0
 939 061a 9144     		add	r9, r9, r2
 940 061c 8AEA0706 		eor	r6, r10, r7
 941 0620 099A     		ldr	r2, [sp, #36]
 942 0622 2640     		ands	r6, r6, r4
  80:25519/sha256.c ****     GET_UINT32( W[13], data, 52 );
 943              		.loc 1 80 0
 944 0624 91F83530 		ldrb	r3, [r1, #53]	@ zero_extendqisi2
 945              		.loc 1 130 0
 946 0628 7E40     		eors	r6, r6, r7
 947 062a 4FEAB20C 		ror	ip, r2, #2
  79:25519/sha256.c ****     GET_UINT32( W[12], data, 48 );
 948              		.loc 1 79 0
 949 062e CDF85CB0 		str	fp, [sp, #92]
 950              		.loc 1 130 0
 951 0632 8CEA723C 		eor	ip, ip, r2, ror #13
 952 0636 DDF82CB0 		ldr	fp, [sp, #44]
  80:25519/sha256.c ****     GET_UINT32( W[13], data, 52 );
 953              		.loc 1 80 0
 954 063a 91F83420 		ldrb	r2, [r1, #52]	@ zero_extendqisi2
 955              		.loc 1 130 0
 956 063e B144     		add	r9, r9, r6
 957 0640 099E     		ldr	r6, [sp, #36]
 958 0642 40EA0800 		orr	r0, r0, r8
  80:25519/sha256.c ****     GET_UINT32( W[13], data, 52 );
 959              		.loc 1 80 0
 960 0646 1B04     		lsls	r3, r3, #16
 961              		.loc 1 130 0
 962 0648 00EA0B00 		and	r0, r0, fp
  80:25519/sha256.c ****     GET_UINT32( W[13], data, 52 );
 963              		.loc 1 80 0
 964 064c 43EA0263 		orr	r3, r3, r2, lsl #24
 965 0650 91F837B0 		ldrb	fp, [r1, #55]	@ zero_extendqisi2
 966              		.loc 1 130 0
 967 0654 06EA0802 		and	r2, r6, r8
 968 0658 1043     		orrs	r0, r0, r2
 969 065a 4FEAB415 		ror	r5, r4, #6
  80:25519/sha256.c ****     GET_UINT32( W[13], data, 52 );
 970              		.loc 1 80 0
 971 065e 91F83620 		ldrb	r2, [r1, #54]	@ zero_extendqisi2
 972 0662 43EA0B03 		orr	r3, r3, fp
 973              		.loc 1 130 0
 974 0666 85EAF425 		eor	r5, r5, r4, ror #11
 975 066a 8CEAB65C 		eor	ip, ip, r6, ror #22
 976 066e 85EA7465 		eor	r5, r5, r4, ror #25
 977 0672 8444     		add	ip, ip, r0
  80:25519/sha256.c ****     GET_UINT32( W[13], data, 52 );
 978              		.loc 1 80 0
 979 0674 43EA0222 		orr	r2, r3, r2, lsl #8
 980              		.loc 1 130 0
 981 0678 0A98     		ldr	r0, [sp, #40]
 982 067a A944     		add	r9, r9, r5
  80:25519/sha256.c ****     GET_UINT32( W[13], data, 52 );
 983              		.loc 1 80 0
 984 067c 1892     		str	r2, [sp, #96]
 985              		.loc 1 130 0
 986 067e 0CEB090B 		add	fp, ip, r9
 987 0682 4844     		add	r0, r0, r9
 131:25519/sha256.c ****     P( D, E, F, G, H, A, B, C, W[13], 0x80DEB1FE );
 988              		.loc 1 131 0
 989 0684 374E     		ldr	r6, .L8+24
 990 0686 DDF86090 		ldr	r9, [sp, #96]
 991 068a 84EA0A02 		eor	r2, r4, r10
 992 068e 4E44     		add	r6, r6, r9
 993 0690 0240     		ands	r2, r2, r0
  81:25519/sha256.c ****     GET_UINT32( W[14], data, 56 );
 994              		.loc 1 81 0
 995 0692 91F83950 		ldrb	r5, [r1, #57]	@ zero_extendqisi2
 996              		.loc 1 131 0
 997 0696 82EA0A02 		eor	r2, r2, r10
 998 069a 3E44     		add	r6, r6, r7
 999 069c 099F     		ldr	r7, [sp, #36]
 1000 069e 1644     		add	r6, r6, r2
  81:25519/sha256.c ****     GET_UINT32( W[14], data, 56 );
 1001              		.loc 1 81 0
 1002 06a0 91F83820 		ldrb	r2, [r1, #56]	@ zero_extendqisi2
 1003              		.loc 1 131 0
 1004 06a4 4BEA0703 		orr	r3, fp, r7
  81:25519/sha256.c ****     GET_UINT32( W[14], data, 56 );
 1005              		.loc 1 81 0
 1006 06a8 2D04     		lsls	r5, r5, #16
 1007              		.loc 1 131 0
 1008 06aa 03EA0803 		and	r3, r3, r8
  81:25519/sha256.c ****     GET_UINT32( W[14], data, 56 );
 1009              		.loc 1 81 0
 1010 06ae 45EA0265 		orr	r5, r5, r2, lsl #24
 1011              		.loc 1 131 0
 1012 06b2 0BEA0702 		and	r2, fp, r7
 1013 06b6 1343     		orrs	r3, r3, r2
  81:25519/sha256.c ****     GET_UINT32( W[14], data, 56 );
 1014              		.loc 1 81 0
 1015 06b8 91F83B20 		ldrb	r2, [r1, #59]	@ zero_extendqisi2
 1016 06bc 91F83A70 		ldrb	r7, [r1, #58]	@ zero_extendqisi2
 1017              		.loc 1 131 0
 1018 06c0 4FEAB01C 		ror	ip, r0, #6
 1019 06c4 4FEABB09 		ror	r9, fp, #2
  81:25519/sha256.c ****     GET_UINT32( W[14], data, 56 );
 1020              		.loc 1 81 0
 1021 06c8 1543     		orrs	r5, r5, r2
 1022              		.loc 1 131 0
 1023 06ca 8CEAF02C 		eor	ip, ip, r0, ror #11
 1024 06ce 89EA7B39 		eor	r9, r9, fp, ror #13
 1025 06d2 0B9A     		ldr	r2, [sp, #44]
 1026 06d4 8CEA706C 		eor	ip, ip, r0, ror #25
  81:25519/sha256.c ****     GET_UINT32( W[14], data, 56 );
 1027              		.loc 1 81 0
 1028 06d8 45EA0727 		orr	r7, r5, r7, lsl #8
 1029              		.loc 1 131 0
 1030 06dc 89EABB59 		eor	r9, r9, fp, ror #22
  81:25519/sha256.c ****     GET_UINT32( W[14], data, 56 );
 1031              		.loc 1 81 0
 1032 06e0 0B97     		str	r7, [sp, #44]
 1033              		.loc 1 131 0
 1034 06e2 6644     		add	r6, r6, ip
 1035 06e4 9944     		add	r9, r9, r3
 1036 06e6 3244     		add	r2, r2, r6
 132:25519/sha256.c ****     P( C, D, E, F, G, H, A, B, W[14], 0x9BDC06A7 );
 1037              		.loc 1 132 0
 1038 06e8 1F4B     		ldr	r3, .L8+28
 131:25519/sha256.c ****     P( D, E, F, G, H, A, B, C, W[13], 0x80DEB1FE );
 1039              		.loc 1 131 0
 1040 06ea 4E44     		add	r6, r6, r9
 1041              		.loc 1 132 0
 1042 06ec DDF82C90 		ldr	r9, [sp, #44]
 1043 06f0 80EA0407 		eor	r7, r0, r4
 1044 06f4 4B44     		add	r3, r3, r9
 1045 06f6 1740     		ands	r7, r7, r2
 1046 06f8 DDF824C0 		ldr	ip, [sp, #36]
 1047 06fc 6740     		eors	r7, r7, r4
 1048 06fe 9A44     		add	r10, r10, r3
 1049 0700 BA44     		add	r10, r10, r7
 1050 0702 46EA0B07 		orr	r7, r6, fp
 1051 0706 06EA0B03 		and	r3, r6, fp
  82:25519/sha256.c ****     GET_UINT32( W[15], data, 60 );
 1052              		.loc 1 82 0
 1053 070a 91F83D50 		ldrb	r5, [r1, #61]	@ zero_extendqisi2
 1054              		.loc 1 132 0
 1055 070e 07EA0C07 		and	r7, r7, ip
 1056 0712 1F43     		orrs	r7, r7, r3
 1057 0714 4FEAB60C 		ror	ip, r6, #2
  82:25519/sha256.c ****     GET_UINT32( W[15], data, 60 );
 1058              		.loc 1 82 0
 1059 0718 91F83C30 		ldrb	r3, [r1, #60]	@ zero_extendqisi2
 1060              		.loc 1 132 0
 1061 071c 8CEA763C 		eor	ip, ip, r6, ror #13
  82:25519/sha256.c ****     GET_UINT32( W[15], data, 60 );
 1062              		.loc 1 82 0
 1063 0720 2D04     		lsls	r5, r5, #16
 1064              		.loc 1 132 0
 1065 0722 8CEAB65C 		eor	ip, ip, r6, ror #22
  82:25519/sha256.c ****     GET_UINT32( W[15], data, 60 );
 1066              		.loc 1 82 0
 1067 0726 45EA0365 		orr	r5, r5, r3, lsl #24
 1068 072a 91F83F30 		ldrb	r3, [r1, #63]	@ zero_extendqisi2
 1069              		.loc 1 132 0
 1070 072e 4FEAB219 		ror	r9, r2, #6
 1071 0732 6744     		add	r7, r7, ip
  82:25519/sha256.c ****     GET_UINT32( W[15], data, 60 );
 1072              		.loc 1 82 0
 1073 0734 91F83EC0 		ldrb	ip, [r1, #62]	@ zero_extendqisi2
 1074 0738 1D43     		orrs	r5, r5, r3
 1075              		.loc 1 132 0
 1076 073a 89EAF229 		eor	r9, r9, r2, ror #11
 133:25519/sha256.c ****     P( B, C, D, E, F, G, H, A, W[15], 0xC19BF174 );
 1077              		.loc 1 133 0
 1078 073e 0B49     		ldr	r1, .L8+32
 1079              	.LVL24:
  82:25519/sha256.c ****     GET_UINT32( W[15], data, 60 );
 1080              		.loc 1 82 0
 1081 0740 45EA0C2C 		orr	ip, r5, ip, lsl #8
 132:25519/sha256.c ****     P( C, D, E, F, G, H, A, B, W[14], 0x9BDC06A7 );
 1082              		.loc 1 132 0
 1083 0744 89EA7269 		eor	r9, r9, r2, ror #25
 1084 0748 12E0     		b	.L9
 1085              	.L10:
 1086 074a 00BF     		.align	2
 1087              	.L8:
 1088 074c D55E1CAB 		.word	-1424204075
 1089 0750 98AA07D8 		.word	-670586216
 1090 0754 015B8312 		.word	310598401
 1091 0758 BE853124 		.word	607225278
 1092 075c C37D0C55 		.word	1426881987
 1093 0760 745DBE72 		.word	1925078388
 1094 0764 FEB1DE80 		.word	-2132889090
 1095 0768 A706DC9B 		.word	-1680079193
 1096 076c 74F19BC1 		.word	-1046744716
 1097              	.L9:
 1098 0770 CA44     		add	r10, r10, r9
 1099              		.loc 1 133 0
 1100 0772 6144     		add	r1, r1, ip
  82:25519/sha256.c ****     GET_UINT32( W[15], data, 60 );
 1101              		.loc 1 82 0
 1102 0774 CDF830C0 		str	ip, [sp, #48]
 132:25519/sha256.c ****     P( C, D, E, F, G, H, A, B, W[14], 0x9BDC06A7 );
 1103              		.loc 1 132 0
 1104 0778 0AEB0803 		add	r3, r10, r8
 1105              	.LVL25:
 1106 077c 5744     		add	r7, r7, r10
 1107              	.LVL26:
 1108              		.loc 1 133 0
 1109 077e 0C44     		add	r4, r4, r1
 1110              	.LVL27:
 134:25519/sha256.c ****     P( A, B, C, D, E, F, G, H, R(16), 0xE49B69C1 );
 1111              		.loc 1 134 0
 1112 0780 DDF850A0 		ldr	r10, [sp, #80]
 1113              	.LVL28:
 1114 0784 1B99     		ldr	r1, [sp, #108]
 133:25519/sha256.c ****     P( B, C, D, E, F, G, H, A, W[15], 0xC19BF174 );
 1115              		.loc 1 133 0
 1116 0786 82EA0009 		eor	r9, r2, r0
 1117              		.loc 1 134 0
 1118 078a 8A44     		add	r10, r10, r1
 133:25519/sha256.c ****     P( B, C, D, E, F, G, H, A, W[15], 0xC19BF174 );
 1119              		.loc 1 133 0
 1120 078c 03EA0909 		and	r9, r3, r9
 1121              		.loc 1 134 0
 1122 0790 0B99     		ldr	r1, [sp, #44]
 133:25519/sha256.c ****     P( B, C, D, E, F, G, H, A, W[15], 0xC19BF174 );
 1123              		.loc 1 133 0
 1124 0792 89EA0009 		eor	r9, r9, r0
 1125 0796 4FEAB31C 		ror	ip, r3, #6
 1126 079a 4C44     		add	r4, r4, r9
 1127 079c 8CEAF32C 		eor	ip, ip, r3, ror #11
 1128              		.loc 1 134 0
 1129 07a0 4FEA7149 		ror	r9, r1, #17
 133:25519/sha256.c ****     P( B, C, D, E, F, G, H, A, W[15], 0xC19BF174 );
 1130              		.loc 1 133 0
 1131 07a4 47EA0605 		orr	r5, r7, r6
 1132 07a8 4FEAB708 		ror	r8, r7, #2
 1133              		.loc 1 134 0
 1134 07ac 89EAF149 		eor	r9, r9, r1, ror #19
 133:25519/sha256.c ****     P( B, C, D, E, F, G, H, A, W[15], 0xC19BF174 );
 1135              		.loc 1 133 0
 1136 07b0 8CEA736C 		eor	ip, ip, r3, ror #25
 1137 07b4 A444     		add	ip, ip, r4
 1138              	.LVL29:
 1139 07b6 05EA0B05 		and	r5, r5, fp
 1140              		.loc 1 134 0
 1141 07ba 0D9C     		ldr	r4, [sp, #52]
 133:25519/sha256.c ****     P( B, C, D, E, F, G, H, A, W[15], 0xC19BF174 );
 1142              		.loc 1 133 0
 1143 07bc 88EA7738 		eor	r8, r8, r7, ror #13
 1144              		.loc 1 134 0
 1145 07c0 89EA9129 		eor	r9, r9, r1, lsr #10
 133:25519/sha256.c ****     P( B, C, D, E, F, G, H, A, W[15], 0xC19BF174 );
 1146              		.loc 1 133 0
 1147 07c4 07EA0601 		and	r1, r7, r6
 1148 07c8 88EAB758 		eor	r8, r8, r7, ror #22
 1149 07cc 0D43     		orrs	r5, r5, r1
 1150 07ce 4544     		add	r5, r5, r8
 1151              		.loc 1 134 0
 1152 07d0 4FEAF418 		ror	r8, r4, #7
 1153 07d4 88EAB448 		eor	r8, r8, r4, ror #18
 1154 07d8 88EAD408 		eor	r8, r8, r4, lsr #3
 133:25519/sha256.c ****     P( B, C, D, E, F, G, H, A, W[15], 0xC19BF174 );
 1155              		.loc 1 133 0
 1156 07dc 099C     		ldr	r4, [sp, #36]
 1157              		.loc 1 134 0
 1158 07de D144     		add	r9, r9, r10
 1159 07e0 EB49     		ldr	r1, .L11
 133:25519/sha256.c ****     P( B, C, D, E, F, G, H, A, W[15], 0xC19BF174 );
 1160              		.loc 1 133 0
 1161 07e2 6444     		add	r4, r4, ip
 1162              	.LVL30:
 1163              		.loc 1 134 0
 1164 07e4 C844     		add	r8, r9, r8
 133:25519/sha256.c ****     P( B, C, D, E, F, G, H, A, W[15], 0xC19BF174 );
 1165              		.loc 1 133 0
 1166 07e6 6544     		add	r5, r5, ip
 1167              	.LVL31:
 1168              		.loc 1 134 0
 1169 07e8 4144     		add	r1, r1, r8
 1170 07ea 83EA020C 		eor	ip, r3, r2
 1171              	.LVL32:
 1172 07ee 4FEAB419 		ror	r9, r4, #6
 135:25519/sha256.c ****     P( H, A, B, C, D, E, F, G, R(17), 0xEFBE4786 );
 1173              		.loc 1 135 0
 1174 07f2 DDF834A0 		ldr	r10, [sp, #52]
 134:25519/sha256.c ****     P( A, B, C, D, E, F, G, H, R(16), 0xE49B69C1 );
 1175              		.loc 1 134 0
 1176 07f6 04EA0C0C 		and	ip, r4, ip
 1177 07fa 0844     		add	r0, r0, r1
 1178              	.LVL33:
 1179 07fc 89EAF421 		eor	r1, r9, r4, ror #11
 1180              		.loc 1 135 0
 1181 0800 DDF85490 		ldr	r9, [sp, #84]
 134:25519/sha256.c ****     P( A, B, C, D, E, F, G, H, R(16), 0xE49B69C1 );
 1182              		.loc 1 134 0
 1183 0804 8CEA020C 		eor	ip, ip, r2
 1184 0808 CDF82480 		str	r8, [sp, #36]
 1185              		.loc 1 135 0
 1186 080c D144     		add	r9, r9, r10
 134:25519/sha256.c ****     P( A, B, C, D, E, F, G, H, R(16), 0xE49B69C1 );
 1187              		.loc 1 134 0
 1188 080e 45EA0708 		orr	r8, r5, r7
 1189              		.loc 1 135 0
 1190 0812 DDF830A0 		ldr	r10, [sp, #48]
 134:25519/sha256.c ****     P( A, B, C, D, E, F, G, H, R(16), 0xE49B69C1 );
 1191              		.loc 1 134 0
 1192 0816 81EA7461 		eor	r1, r1, r4, ror #25
 1193 081a 6044     		add	r0, r0, ip
 1194 081c 0844     		add	r0, r0, r1
 1195              	.LVL34:
 1196 081e 08EA0608 		and	r8, r8, r6
 1197 0822 05EA0701 		and	r1, r5, r7
 1198 0826 4FEAB50C 		ror	ip, r5, #2
 1199              		.loc 1 135 0
 1200 082a CDF82890 		str	r9, [sp, #40]
 134:25519/sha256.c ****     P( A, B, C, D, E, F, G, H, R(16), 0xE49B69C1 );
 1201              		.loc 1 134 0
 1202 082e 8CEA753C 		eor	ip, ip, r5, ror #13
 1203              		.loc 1 135 0
 1204 0832 4FEA7A49 		ror	r9, r10, #17
 134:25519/sha256.c ****     P( A, B, C, D, E, F, G, H, R(16), 0xE49B69C1 );
 1205              		.loc 1 134 0
 1206 0836 48EA0108 		orr	r8, r8, r1
 1207              		.loc 1 135 0
 1208 083a 0E99     		ldr	r1, [sp, #56]
 134:25519/sha256.c ****     P( A, B, C, D, E, F, G, H, R(16), 0xE49B69C1 );
 1209              		.loc 1 134 0
 1210 083c 8CEAB55C 		eor	ip, ip, r5, ror #22
 1211              		.loc 1 135 0
 1212 0840 89EAFA49 		eor	r9, r9, r10, ror #19
 1213 0844 89EA9A29 		eor	r9, r9, r10, lsr #10
 134:25519/sha256.c ****     P( A, B, C, D, E, F, G, H, R(16), 0xE49B69C1 );
 1214              		.loc 1 134 0
 1215 0848 E044     		add	r8, r8, ip
 1216              		.loc 1 135 0
 1217 084a DDF828A0 		ldr	r10, [sp, #40]
 1218 084e 4FEAF11C 		ror	ip, r1, #7
 1219 0852 8CEAB14C 		eor	ip, ip, r1, ror #18
 1220 0856 D144     		add	r9, r9, r10
 1221 0858 8CEAD10C 		eor	ip, ip, r1, lsr #3
 1222 085c CD49     		ldr	r1, .L11+4
 134:25519/sha256.c ****     P( A, B, C, D, E, F, G, H, R(16), 0xE49B69C1 );
 1223              		.loc 1 134 0
 1224 085e 8344     		add	fp, fp, r0
 1225              	.LVL35:
 1226              		.loc 1 135 0
 1227 0860 CC44     		add	ip, r9, ip
 1228 0862 84EA0309 		eor	r9, r4, r3
 134:25519/sha256.c ****     P( A, B, C, D, E, F, G, H, R(16), 0xE49B69C1 );
 1229              		.loc 1 134 0
 1230 0866 8044     		add	r8, r8, r0
 1231              	.LVL36:
 1232              		.loc 1 135 0
 1233 0868 6144     		add	r1, r1, ip
 1234 086a 4FEABB10 		ror	r0, fp, #6
 1235              	.LVL37:
 1236 086e 0BEA0909 		and	r9, fp, r9
 1237 0872 CDF828C0 		str	ip, [sp, #40]
 1238 0876 89EA0309 		eor	r9, r9, r3
 136:25519/sha256.c ****     P( G, H, A, B, C, D, E, F, R(18), 0x0FC19DC6 );
 1239              		.loc 1 136 0
 1240 087a DDF858C0 		ldr	ip, [sp, #88]
 135:25519/sha256.c ****     P( H, A, B, C, D, E, F, G, R(17), 0xEFBE4786 );
 1241              		.loc 1 135 0
 1242 087e 0A44     		add	r2, r2, r1
 1243              	.LVL38:
 1244 0880 80EAFB21 		eor	r1, r0, fp, ror #11
 1245              		.loc 1 136 0
 1246 0884 0E98     		ldr	r0, [sp, #56]
 135:25519/sha256.c ****     P( H, A, B, C, D, E, F, G, R(17), 0xEFBE4786 );
 1247              		.loc 1 135 0
 1248 0886 48EA050A 		orr	r10, r8, r5
 1249 088a 81EA7B61 		eor	r1, r1, fp, ror #25
 1250 088e 4A44     		add	r2, r2, r9
 1251 0890 4FEAB809 		ror	r9, r8, #2
 1252 0894 0A44     		add	r2, r2, r1
 1253              	.LVL39:
 1254              		.loc 1 136 0
 1255 0896 8444     		add	ip, ip, r0
 135:25519/sha256.c ****     P( H, A, B, C, D, E, F, G, R(17), 0xEFBE4786 );
 1256              		.loc 1 135 0
 1257 0898 08EA0501 		and	r1, r8, r5
 1258              		.loc 1 136 0
 1259 089c 0F98     		ldr	r0, [sp, #60]
 135:25519/sha256.c ****     P( H, A, B, C, D, E, F, G, R(17), 0xEFBE4786 );
 1260              		.loc 1 135 0
 1261 089e 0AEA070A 		and	r10, r10, r7
 1262 08a2 89EA7839 		eor	r9, r9, r8, ror #13
 1263 08a6 89EAB859 		eor	r9, r9, r8, ror #22
 1264 08aa 4AEA010A 		orr	r10, r10, r1
 1265              		.loc 1 136 0
 1266 08ae CDF834C0 		str	ip, [sp, #52]
 1267              	.LVL40:
 135:25519/sha256.c ****     P( H, A, B, C, D, E, F, G, R(17), 0xEFBE4786 );
 1268              		.loc 1 135 0
 1269 08b2 CA44     		add	r10, r10, r9
 1270              		.loc 1 136 0
 1271 08b4 4FEAF01C 		ror	ip, r0, #7
 1272 08b8 DDF82490 		ldr	r9, [sp, #36]
 1273 08bc 8CEAB04C 		eor	ip, ip, r0, ror #18
 1274 08c0 8CEAD00C 		eor	ip, ip, r0, lsr #3
 1275 08c4 4FEA7941 		ror	r1, r9, #17
 1276 08c8 0D98     		ldr	r0, [sp, #52]
 1277 08ca 81EAF941 		eor	r1, r1, r9, ror #19
 1278 08ce 8444     		add	ip, ip, r0
 1279 08d0 81EA9921 		eor	r1, r1, r9, lsr #10
 1280 08d4 B048     		ldr	r0, .L11+8
 135:25519/sha256.c ****     P( H, A, B, C, D, E, F, G, R(17), 0xEFBE4786 );
 1281              		.loc 1 135 0
 1282 08d6 1644     		add	r6, r6, r2
 1283              	.LVL41:
 1284              		.loc 1 136 0
 1285 08d8 6144     		add	r1, ip, r1
 135:25519/sha256.c ****     P( H, A, B, C, D, E, F, G, R(17), 0xEFBE4786 );
 1286              		.loc 1 135 0
 1287 08da 9244     		add	r10, r10, r2
 1288              	.LVL42:
 1289              		.loc 1 136 0
 1290 08dc 0844     		add	r0, r0, r1
 1291 08de 8BEA0402 		eor	r2, fp, r4
 1292              	.LVL43:
 1293 08e2 4FEAB61C 		ror	ip, r6, #6
 137:25519/sha256.c ****     P( F, G, H, A, B, C, D, E, R(19), 0x240CA1CC );
 1294              		.loc 1 137 0
 1295 08e6 DDF85C90 		ldr	r9, [sp, #92]
 136:25519/sha256.c ****     P( G, H, A, B, C, D, E, F, R(18), 0x0FC19DC6 );
 1296              		.loc 1 136 0
 1297 08ea 3240     		ands	r2, r2, r6
 1298 08ec 0344     		add	r3, r3, r0
 1299              	.LVL44:
 1300 08ee 8CEAF620 		eor	r0, ip, r6, ror #11
 1301              		.loc 1 137 0
 1302 08f2 DDF83CC0 		ldr	ip, [sp, #60]
 136:25519/sha256.c ****     P( G, H, A, B, C, D, E, F, R(18), 0x0FC19DC6 );
 1303              		.loc 1 136 0
 1304 08f6 6240     		eors	r2, r2, r4
 1305 08f8 0D91     		str	r1, [sp, #52]
 1306              		.loc 1 137 0
 1307 08fa E144     		add	r9, r9, ip
 136:25519/sha256.c ****     P( G, H, A, B, C, D, E, F, R(18), 0x0FC19DC6 );
 1308              		.loc 1 136 0
 1309 08fc 4AEA0801 		orr	r1, r10, r8
 1310              		.loc 1 137 0
 1311 0900 DDF840C0 		ldr	ip, [sp, #64]
 136:25519/sha256.c ****     P( G, H, A, B, C, D, E, F, R(18), 0x0FC19DC6 );
 1312              		.loc 1 136 0
 1313 0904 80EA7660 		eor	r0, r0, r6, ror #25
 1314 0908 1344     		add	r3, r3, r2
 1315 090a 0344     		add	r3, r3, r0
 1316              	.LVL45:
 1317 090c 2940     		ands	r1, r1, r5
 1318 090e 0AEA0800 		and	r0, r10, r8
 1319 0912 4FEABA02 		ror	r2, r10, #2
 1320              		.loc 1 137 0
 1321 0916 CDF83890 		str	r9, [sp, #56]
 1322              	.LVL46:
 136:25519/sha256.c ****     P( G, H, A, B, C, D, E, F, R(18), 0x0FC19DC6 );
 1323              		.loc 1 136 0
 1324 091a 82EA7A32 		eor	r2, r2, r10, ror #13
 1325              		.loc 1 137 0
 1326 091e 4FEAFC19 		ror	r9, ip, #7
 136:25519/sha256.c ****     P( G, H, A, B, C, D, E, F, R(18), 0x0FC19DC6 );
 1327              		.loc 1 136 0
 1328 0922 0143     		orrs	r1, r1, r0
 1329              		.loc 1 137 0
 1330 0924 0A98     		ldr	r0, [sp, #40]
 136:25519/sha256.c ****     P( G, H, A, B, C, D, E, F, R(18), 0x0FC19DC6 );
 1331              		.loc 1 136 0
 1332 0926 82EABA52 		eor	r2, r2, r10, ror #22
 1333              		.loc 1 137 0
 1334 092a 89EABC49 		eor	r9, r9, ip, ror #18
 1335 092e 89EADC09 		eor	r9, r9, ip, lsr #3
 136:25519/sha256.c ****     P( G, H, A, B, C, D, E, F, R(18), 0x0FC19DC6 );
 1336              		.loc 1 136 0
 1337 0932 1144     		add	r1, r1, r2
 1338              		.loc 1 137 0
 1339 0934 DDF838C0 		ldr	ip, [sp, #56]
 1340 0938 4FEA7042 		ror	r2, r0, #17
 1341 093c 82EAF042 		eor	r2, r2, r0, ror #19
 1342 0940 CC44     		add	ip, ip, r9
 1343 0942 82EA9022 		eor	r2, r2, r0, lsr #10
 1344 0946 9548     		ldr	r0, .L11+12
 136:25519/sha256.c ****     P( G, H, A, B, C, D, E, F, R(18), 0x0FC19DC6 );
 1345              		.loc 1 136 0
 1346 0948 1F44     		add	r7, r7, r3
 1347              	.LVL47:
 1348              		.loc 1 137 0
 1349 094a 6244     		add	r2, ip, r2
 1350 094c 86EA0B09 		eor	r9, r6, fp
 1351 0950 1044     		add	r0, r0, r2
 1352 0952 07EA0909 		and	r9, r7, r9
 1353 0956 4FEAB71C 		ror	ip, r7, #6
 136:25519/sha256.c ****     P( G, H, A, B, C, D, E, F, R(18), 0x0FC19DC6 );
 1354              		.loc 1 136 0
 1355 095a 1944     		add	r1, r1, r3
 1356              	.LVL48:
 1357              		.loc 1 137 0
 1358 095c 0E92     		str	r2, [sp, #56]
 138:25519/sha256.c ****     P( E, F, G, H, A, B, C, D, R(20), 0x2DE92C6F );
 1359              		.loc 1 138 0
 1360 095e 109B     		ldr	r3, [sp, #64]
 1361              	.LVL49:
 137:25519/sha256.c ****     P( F, G, H, A, B, C, D, E, R(19), 0x240CA1CC );
 1362              		.loc 1 137 0
 1363 0960 89EA0B09 		eor	r9, r9, fp
 1364              		.loc 1 138 0
 1365 0964 189A     		ldr	r2, [sp, #96]
 137:25519/sha256.c ****     P( F, G, H, A, B, C, D, E, R(19), 0x240CA1CC );
 1366              		.loc 1 137 0
 1367 0966 2044     		add	r0, r0, r4
 1368 0968 8CEAF72C 		eor	ip, ip, r7, ror #11
 1369 096c 41EA0A04 		orr	r4, r1, r10
 1370              	.LVL50:
 1371 0970 8CEA776C 		eor	ip, ip, r7, ror #25
 1372 0974 4844     		add	r0, r0, r9
 1373 0976 4FEAB109 		ror	r9, r1, #2
 1374 097a 6044     		add	r0, r0, ip
 1375              	.LVL51:
 1376              		.loc 1 138 0
 1377 097c 1A44     		add	r2, r2, r3
 137:25519/sha256.c ****     P( F, G, H, A, B, C, D, E, R(19), 0x240CA1CC );
 1378              		.loc 1 137 0
 1379 097e 01EA0A0C 		and	ip, r1, r10
 1380              		.loc 1 138 0
 1381 0982 119B     		ldr	r3, [sp, #68]
 137:25519/sha256.c ****     P( F, G, H, A, B, C, D, E, R(19), 0x240CA1CC );
 1382              		.loc 1 137 0
 1383 0984 04EA0804 		and	r4, r4, r8
 1384 0988 89EA7139 		eor	r9, r9, r1, ror #13
 1385 098c 89EAB159 		eor	r9, r9, r1, ror #22
 1386 0990 44EA0C04 		orr	r4, r4, ip
 1387              		.loc 1 138 0
 1388 0994 0F92     		str	r2, [sp, #60]
 1389              	.LVL52:
 137:25519/sha256.c ****     P( F, G, H, A, B, C, D, E, R(19), 0x240CA1CC );
 1390              		.loc 1 137 0
 1391 0996 4C44     		add	r4, r4, r9
 1392              		.loc 1 138 0
 1393 0998 4FEAF312 		ror	r2, r3, #7
 1394 099c DDF83490 		ldr	r9, [sp, #52]
 1395 09a0 82EAB342 		eor	r2, r2, r3, ror #18
 1396 09a4 82EAD302 		eor	r2, r2, r3, lsr #3
 1397 09a8 4FEA794C 		ror	ip, r9, #17
 1398 09ac 0F9B     		ldr	r3, [sp, #60]
 1399 09ae 8CEAF94C 		eor	ip, ip, r9, ror #19
 1400 09b2 1344     		add	r3, r3, r2
 1401 09b4 8CEA992C 		eor	ip, ip, r9, lsr #10
 1402 09b8 794A     		ldr	r2, .L11+16
 1403 09ba 9C44     		add	ip, r3, ip
 1404 09bc 6244     		add	r2, r2, ip
 1405 09be CDF83CC0 		str	ip, [sp, #60]
 137:25519/sha256.c ****     P( F, G, H, A, B, C, D, E, R(19), 0x240CA1CC );
 1406              		.loc 1 137 0
 1407 09c2 0544     		add	r5, r5, r0
 1408              	.LVL53:
 139:25519/sha256.c ****     P( D, E, F, G, H, A, B, C, R(21), 0x4A7484AA );
 1409              		.loc 1 139 0
 1410 09c4 DDF84490 		ldr	r9, [sp, #68]
 138:25519/sha256.c ****     P( E, F, G, H, A, B, C, D, R(20), 0x2DE92C6F );
 1411              		.loc 1 138 0
 1412 09c8 87EA0603 		eor	r3, r7, r6
 1413 09cc 9344     		add	fp, fp, r2
 1414              	.LVL54:
 1415              		.loc 1 139 0
 1416 09ce 0B9A     		ldr	r2, [sp, #44]
 138:25519/sha256.c ****     P( E, F, G, H, A, B, C, D, R(20), 0x2DE92C6F );
 1417              		.loc 1 138 0
 1418 09d0 2B40     		ands	r3, r3, r5
 1419 09d2 4FEAB51C 		ror	ip, r5, #6
 137:25519/sha256.c ****     P( F, G, H, A, B, C, D, E, R(19), 0x240CA1CC );
 1420              		.loc 1 137 0
 1421 09d6 0444     		add	r4, r4, r0
 1422              	.LVL55:
 138:25519/sha256.c ****     P( E, F, G, H, A, B, C, D, R(20), 0x2DE92C6F );
 1423              		.loc 1 138 0
 1424 09d8 7340     		eors	r3, r3, r6
 1425              		.loc 1 139 0
 1426 09da 4A44     		add	r2, r2, r9
 138:25519/sha256.c ****     P( E, F, G, H, A, B, C, D, R(20), 0x2DE92C6F );
 1427              		.loc 1 138 0
 1428 09dc 8CEAF52C 		eor	ip, ip, r5, ror #11
 1429              		.loc 1 139 0
 1430 09e0 1092     		str	r2, [sp, #64]
 1431              	.LVL56:
 138:25519/sha256.c ****     P( E, F, G, H, A, B, C, D, R(20), 0x2DE92C6F );
 1432              		.loc 1 138 0
 1433 09e2 44EA0100 		orr	r0, r4, r1
 1434              	.LVL57:
 1435              		.loc 1 139 0
 1436 09e6 129A     		ldr	r2, [sp, #72]
 138:25519/sha256.c ****     P( E, F, G, H, A, B, C, D, R(20), 0x2DE92C6F );
 1437              		.loc 1 138 0
 1438 09e8 9B44     		add	fp, fp, r3
 1439 09ea 8CEA756C 		eor	ip, ip, r5, ror #25
 1440 09ee DC44     		add	ip, ip, fp
 1441              	.LVL58:
 1442 09f0 00EA0A00 		and	r0, r0, r10
 1443 09f4 04EA010B 		and	fp, r4, r1
 1444 09f8 4FEAB409 		ror	r9, r4, #2
 1445 09fc 89EA7439 		eor	r9, r9, r4, ror #13
 1446              		.loc 1 139 0
 1447 0a00 4FEAF213 		ror	r3, r2, #7
 138:25519/sha256.c ****     P( E, F, G, H, A, B, C, D, R(20), 0x2DE92C6F );
 1448              		.loc 1 138 0
 1449 0a04 40EA0B00 		orr	r0, r0, fp
 1450              		.loc 1 139 0
 1451 0a08 DDF838B0 		ldr	fp, [sp, #56]
 138:25519/sha256.c ****     P( E, F, G, H, A, B, C, D, R(20), 0x2DE92C6F );
 1452              		.loc 1 138 0
 1453 0a0c 89EAB459 		eor	r9, r9, r4, ror #22
 1454              		.loc 1 139 0
 1455 0a10 83EAB243 		eor	r3, r3, r2, ror #18
 1456 0a14 83EAD203 		eor	r3, r3, r2, lsr #3
 138:25519/sha256.c ****     P( E, F, G, H, A, B, C, D, R(20), 0x2DE92C6F );
 1457              		.loc 1 138 0
 1458 0a18 4844     		add	r0, r0, r9
 1459              		.loc 1 139 0
 1460 0a1a 109A     		ldr	r2, [sp, #64]
 1461 0a1c 4FEA7B49 		ror	r9, fp, #17
 1462 0a20 89EAFB49 		eor	r9, r9, fp, ror #19
 1463 0a24 1A44     		add	r2, r2, r3
 1464 0a26 89EA9B29 		eor	r9, r9, fp, lsr #10
 1465 0a2a 5E4B     		ldr	r3, .L11+20
 138:25519/sha256.c ****     P( E, F, G, H, A, B, C, D, R(20), 0x2DE92C6F );
 1466              		.loc 1 138 0
 1467 0a2c E044     		add	r8, r8, ip
 1468              	.LVL59:
 1469              		.loc 1 139 0
 1470 0a2e 9144     		add	r9, r2, r9
 138:25519/sha256.c ****     P( E, F, G, H, A, B, C, D, R(20), 0x2DE92C6F );
 1471              		.loc 1 138 0
 1472 0a30 6044     		add	r0, r0, ip
 1473              	.LVL60:
 1474              		.loc 1 139 0
 1475 0a32 CDF84090 		str	r9, [sp, #64]
 1476 0a36 85EA070C 		eor	ip, r5, r7
 1477              	.LVL61:
 1478 0a3a 4B44     		add	r3, r3, r9
 1479 0a3c 4FEAB819 		ror	r9, r8, #6
 140:25519/sha256.c ****     P( C, D, E, F, G, H, A, B, R(22), 0x5CB0A9DC );
 1480              		.loc 1 140 0
 1481 0a40 DDF848B0 		ldr	fp, [sp, #72]
 139:25519/sha256.c ****     P( D, E, F, G, H, A, B, C, R(21), 0x4A7484AA );
 1482              		.loc 1 139 0
 1483 0a44 08EA0C0C 		and	ip, r8, ip
 1484 0a48 1E44     		add	r6, r6, r3
 1485              	.LVL62:
 1486 0a4a 89EAF823 		eor	r3, r9, r8, ror #11
 1487              		.loc 1 140 0
 1488 0a4e DDF83090 		ldr	r9, [sp, #48]
 139:25519/sha256.c ****     P( D, E, F, G, H, A, B, C, R(21), 0x4A7484AA );
 1489              		.loc 1 139 0
 1490 0a52 8CEA070C 		eor	ip, ip, r7
 1491 0a56 40EA0402 		orr	r2, r0, r4
 1492              		.loc 1 140 0
 1493 0a5a D944     		add	r9, r9, fp
 139:25519/sha256.c ****     P( D, E, F, G, H, A, B, C, R(21), 0x4A7484AA );
 1494              		.loc 1 139 0
 1495 0a5c 83EA7863 		eor	r3, r3, r8, ror #25
 1496              		.loc 1 140 0
 1497 0a60 DDF84CB0 		ldr	fp, [sp, #76]
 139:25519/sha256.c ****     P( D, E, F, G, H, A, B, C, R(21), 0x4A7484AA );
 1498              		.loc 1 139 0
 1499 0a64 6644     		add	r6, r6, ip
 1500 0a66 1E44     		add	r6, r6, r3
 1501              	.LVL63:
 1502 0a68 0A40     		ands	r2, r2, r1
 1503 0a6a 00EA0403 		and	r3, r0, r4
 1504 0a6e 4FEAB00C 		ror	ip, r0, #2
 1505              		.loc 1 140 0
 1506 0a72 CDF84490 		str	r9, [sp, #68]
 1507              	.LVL64:
 139:25519/sha256.c ****     P( D, E, F, G, H, A, B, C, R(21), 0x4A7484AA );
 1508              		.loc 1 139 0
 1509 0a76 8CEA703C 		eor	ip, ip, r0, ror #13
 1510              		.loc 1 140 0
 1511 0a7a 4FEAFB19 		ror	r9, fp, #7
 139:25519/sha256.c ****     P( D, E, F, G, H, A, B, C, R(21), 0x4A7484AA );
 1512              		.loc 1 139 0
 1513 0a7e 1A43     		orrs	r2, r2, r3
 1514              		.loc 1 140 0
 1515 0a80 0F9B     		ldr	r3, [sp, #60]
 139:25519/sha256.c ****     P( D, E, F, G, H, A, B, C, R(21), 0x4A7484AA );
 1516              		.loc 1 139 0
 1517 0a82 8CEAB05C 		eor	ip, ip, r0, ror #22
 1518              		.loc 1 140 0
 1519 0a86 89EABB49 		eor	r9, r9, fp, ror #18
 1520 0a8a 89EADB09 		eor	r9, r9, fp, lsr #3
 139:25519/sha256.c ****     P( D, E, F, G, H, A, B, C, R(21), 0x4A7484AA );
 1521              		.loc 1 139 0
 1522 0a8e 6244     		add	r2, r2, ip
 1523              		.loc 1 140 0
 1524 0a90 DDF844B0 		ldr	fp, [sp, #68]
 1525 0a94 4FEA734C 		ror	ip, r3, #17
 1526 0a98 8CEAF34C 		eor	ip, ip, r3, ror #19
 1527 0a9c CB44     		add	fp, fp, r9
 1528 0a9e 8CEA932C 		eor	ip, ip, r3, lsr #10
 1529 0aa2 DC44     		add	ip, fp, ip
 1530 0aa4 CDF844C0 		str	ip, [sp, #68]
 1531 0aa8 DDF84490 		ldr	r9, [sp, #68]
 1532 0aac 3E4B     		ldr	r3, .L11+24
 139:25519/sha256.c ****     P( D, E, F, G, H, A, B, C, R(21), 0x4A7484AA );
 1533              		.loc 1 139 0
 1534 0aae 3244     		add	r2, r2, r6
 1535 0ab0 B244     		add	r10, r10, r6
 1536              	.LVL65:
 1537              		.loc 1 140 0
 1538 0ab2 88EA050C 		eor	ip, r8, r5
 141:25519/sha256.c ****     P( B, C, D, E, F, G, H, A, R(23), 0x76F988DA );
 1539              		.loc 1 141 0
 1540 0ab6 1A9E     		ldr	r6, [sp, #104]
 1541              	.LVL66:
 140:25519/sha256.c ****     P( C, D, E, F, G, H, A, B, R(22), 0x5CB0A9DC );
 1542              		.loc 1 140 0
 1543 0ab8 4B44     		add	r3, r3, r9
 1544 0aba 0AEA0C0C 		and	ip, r10, ip
 1545 0abe 8CEA050C 		eor	ip, ip, r5
 1546              		.loc 1 141 0
 1547 0ac2 4FEAF61B 		ror	fp, r6, #7
 140:25519/sha256.c ****     P( C, D, E, F, G, H, A, B, R(22), 0x5CB0A9DC );
 1548              		.loc 1 140 0
 1549 0ac6 1F44     		add	r7, r7, r3
 1550              	.LVL67:
 1551 0ac8 4FEABA19 		ror	r9, r10, #6
 1552              		.loc 1 141 0
 1553 0acc 8BEAB64B 		eor	fp, fp, r6, ror #18
 140:25519/sha256.c ****     P( C, D, E, F, G, H, A, B, R(22), 0x5CB0A9DC );
 1554              		.loc 1 140 0
 1555 0ad0 89EAFA29 		eor	r9, r9, r10, ror #11
 1556 0ad4 6744     		add	r7, r7, ip
 1557              		.loc 1 141 0
 1558 0ad6 DDF84CC0 		ldr	ip, [sp, #76]
 140:25519/sha256.c ****     P( C, D, E, F, G, H, A, B, R(22), 0x5CB0A9DC );
 1559              		.loc 1 140 0
 1560 0ada 42EA0003 		orr	r3, r2, r0
 1561 0ade 89EA7A69 		eor	r9, r9, r10, ror #25
 1562              		.loc 1 141 0
 1563 0ae2 8BEAD60B 		eor	fp, fp, r6, lsr #3
 140:25519/sha256.c ****     P( C, D, E, F, G, H, A, B, R(22), 0x5CB0A9DC );
 1564              		.loc 1 140 0
 1565 0ae6 4FEAB206 		ror	r6, r2, #2
 1566 0aea 4F44     		add	r7, r7, r9
 1567              	.LVL68:
 1568 0aec 2340     		ands	r3, r3, r4
 1569              		.loc 1 141 0
 1570 0aee DDF84090 		ldr	r9, [sp, #64]
 1571 0af2 E344     		add	fp, fp, ip
 140:25519/sha256.c ****     P( C, D, E, F, G, H, A, B, R(22), 0x5CB0A9DC );
 1572              		.loc 1 140 0
 1573 0af4 86EA7236 		eor	r6, r6, r2, ror #13
 1574 0af8 02EA000C 		and	ip, r2, r0
 1575 0afc 86EAB256 		eor	r6, r6, r2, ror #22
 1576 0b00 43EA0C03 		orr	r3, r3, ip
 1577 0b04 3344     		add	r3, r3, r6
 1578              		.loc 1 141 0
 1579 0b06 4FEA794C 		ror	ip, r9, #17
 1580 0b0a 099E     		ldr	r6, [sp, #36]
 1581 0b0c 8CEAF94C 		eor	ip, ip, r9, ror #19
 1582 0b10 B344     		add	fp, fp, r6
 1583 0b12 8CEA992C 		eor	ip, ip, r9, lsr #10
 1584 0b16 254E     		ldr	r6, .L11+28
 140:25519/sha256.c ****     P( C, D, E, F, G, H, A, B, R(22), 0x5CB0A9DC );
 1585              		.loc 1 140 0
 1586 0b18 3B44     		add	r3, r3, r7
 1587 0b1a 3944     		add	r1, r1, r7
 1588              	.LVL69:
 1589              		.loc 1 141 0
 1590 0b1c DC44     		add	ip, fp, ip
 142:25519/sha256.c ****     P( A, B, C, D, E, F, G, H, R(24), 0x983E5152 );
 1591              		.loc 1 142 0
 1592 0b1e 149F     		ldr	r7, [sp, #80]
 1593              	.LVL70:
 141:25519/sha256.c ****     P( B, C, D, E, F, G, H, A, R(23), 0x76F988DA );
 1594              		.loc 1 141 0
 1595 0b20 8AEA0809 		eor	r9, r10, r8
 1596 0b24 6644     		add	r6, r6, ip
 1597 0b26 01EA0909 		and	r9, r1, r9
 1598 0b2a CDF848C0 		str	ip, [sp, #72]
 1599              	.LVL71:
 1600 0b2e 3544     		add	r5, r5, r6
 1601              	.LVL72:
 1602              		.loc 1 142 0
 1603 0b30 DDF850C0 		ldr	ip, [sp, #80]
 1604 0b34 4FEAF71B 		ror	fp, r7, #7
 141:25519/sha256.c ****     P( B, C, D, E, F, G, H, A, R(23), 0x76F988DA );
 1605              		.loc 1 141 0
 1606 0b38 89EA0809 		eor	r9, r9, r8
 1607              		.loc 1 142 0
 1608 0b3c 8BEAB74B 		eor	fp, fp, r7, ror #18
 141:25519/sha256.c ****     P( B, C, D, E, F, G, H, A, R(23), 0x76F988DA );
 1609              		.loc 1 141 0
 1610 0b40 A944     		add	r9, r9, r5
 1611              		.loc 1 142 0
 1612 0b42 1A9D     		ldr	r5, [sp, #104]
 1613 0b44 8BEADC0B 		eor	fp, fp, ip, lsr #3
 141:25519/sha256.c ****     P( B, C, D, E, F, G, H, A, R(23), 0x76F988DA );
 1614              		.loc 1 141 0
 1615 0b48 43EA020C 		orr	ip, r3, r2
 1616 0b4c 03EA0206 		and	r6, r3, r2
 1617 0b50 4FEAB117 		ror	r7, r1, #6
 1618 0b54 0CEA000C 		and	ip, ip, r0
 1619              		.loc 1 142 0
 1620 0b58 5D44     		add	r5, r5, fp
 141:25519/sha256.c ****     P( B, C, D, E, F, G, H, A, R(23), 0x76F988DA );
 1621              		.loc 1 141 0
 1622 0b5a 4FEAB30B 		ror	fp, r3, #2
 1623 0b5e 87EAF127 		eor	r7, r7, r1, ror #11
 1624 0b62 8BEA733B 		eor	fp, fp, r3, ror #13
 1625 0b66 4CEA060C 		orr	ip, ip, r6
 1626              		.loc 1 142 0
 1627 0b6a 119E     		ldr	r6, [sp, #68]
 141:25519/sha256.c ****     P( B, C, D, E, F, G, H, A, R(23), 0x76F988DA );
 1628              		.loc 1 141 0
 1629 0b6c 87EA7167 		eor	r7, r7, r1, ror #25
 1630 0b70 8BEAB35B 		eor	fp, fp, r3, ror #22
 1631 0b74 B944     		add	r9, r9, r7
 1632              	.LVL73:
 1633 0b76 DC44     		add	ip, ip, fp
 1634              		.loc 1 142 0
 1635 0b78 4FEA7647 		ror	r7, r6, #17
 1636 0b7c DDF828B0 		ldr	fp, [sp, #40]
 1637 0b80 87EAF647 		eor	r7, r7, r6, ror #19
 1638 0b84 5D44     		add	r5, r5, fp
 1639 0b86 87EA9627 		eor	r7, r7, r6, lsr #10
 1640 0b8a EF19     		adds	r7, r5, r7
 1641 0b8c 10E0     		b	.L12
 1642              	.L13:
 1643 0b8e 00BF     		.align	2
 1644              	.L11:
 1645 0b90 C1699BE4 		.word	-459576895
 1646 0b94 8647BEEF 		.word	-272742522
 1647 0b98 C69DC10F 		.word	264347078
 1648 0b9c CCA10C24 		.word	604807628
 1649 0ba0 6F2CE92D 		.word	770255983
 1650 0ba4 AA84744A 		.word	1249150122
 1651 0ba8 DCA9B05C 		.word	1555081692
 1652 0bac DA88F976 		.word	1996064986
 1653              	.L12:
 1654 0bb0 1397     		str	r7, [sp, #76]
 1655              	.LVL74:
 1656 0bb2 DDF84CB0 		ldr	fp, [sp, #76]
 1657 0bb6 E64E     		ldr	r6, .L14
 141:25519/sha256.c ****     P( B, C, D, E, F, G, H, A, R(23), 0x76F988DA );
 1658              		.loc 1 141 0
 1659 0bb8 CC44     		add	ip, ip, r9
 1660 0bba 4C44     		add	r4, r4, r9
 1661              	.LVL75:
 1662              		.loc 1 142 0
 1663 0bbc 81EA0A05 		eor	r5, r1, r10
 143:25519/sha256.c ****     P( H, A, B, C, D, E, F, G, R(25), 0xA831C66D );
 1664              		.loc 1 143 0
 1665 0bc0 DDF85490 		ldr	r9, [sp, #84]
 1666              	.LVL76:
 142:25519/sha256.c ****     P( A, B, C, D, E, F, G, H, R(24), 0x983E5152 );
 1667              		.loc 1 142 0
 1668 0bc4 5E44     		add	r6, r6, fp
 1669 0bc6 2540     		ands	r5, r5, r4
 1670 0bc8 85EA0A05 		eor	r5, r5, r10
 1671              		.loc 1 143 0
 1672 0bcc 4FEAF917 		ror	r7, r9, #7
 142:25519/sha256.c ****     P( A, B, C, D, E, F, G, H, R(24), 0x983E5152 );
 1673              		.loc 1 142 0
 1674 0bd0 B044     		add	r8, r8, r6
 1675              	.LVL77:
 1676              		.loc 1 143 0
 1677 0bd2 87EAB947 		eor	r7, r7, r9, ror #18
 142:25519/sha256.c ****     P( A, B, C, D, E, F, G, H, R(24), 0x983E5152 );
 1678              		.loc 1 142 0
 1679 0bd6 4FEAB41B 		ror	fp, r4, #6
 1680 0bda A844     		add	r8, r8, r5
 1681              		.loc 1 143 0
 1682 0bdc 149D     		ldr	r5, [sp, #80]
 142:25519/sha256.c ****     P( A, B, C, D, E, F, G, H, R(24), 0x983E5152 );
 1683              		.loc 1 142 0
 1684 0bde 8BEAF42B 		eor	fp, fp, r4, ror #11
 1685              		.loc 1 143 0
 1686 0be2 87EAD907 		eor	r7, r7, r9, lsr #3
 142:25519/sha256.c ****     P( A, B, C, D, E, F, G, H, R(24), 0x983E5152 );
 1687              		.loc 1 142 0
 1688 0be6 4CEA0306 		orr	r6, ip, r3
 1689 0bea 8BEA746B 		eor	fp, fp, r4, ror #25
 1690              		.loc 1 143 0
 1691 0bee 2F44     		add	r7, r7, r5
 142:25519/sha256.c ****     P( A, B, C, D, E, F, G, H, R(24), 0x983E5152 );
 1692              		.loc 1 142 0
 1693 0bf0 4FEABC05 		ror	r5, ip, #2
 1694 0bf4 D844     		add	r8, r8, fp
 1695              	.LVL78:
 1696 0bf6 0CEA0309 		and	r9, ip, r3
 1697              		.loc 1 143 0
 1698 0bfa DDF848B0 		ldr	fp, [sp, #72]
 142:25519/sha256.c ****     P( A, B, C, D, E, F, G, H, R(24), 0x983E5152 );
 1699              		.loc 1 142 0
 1700 0bfe 1640     		ands	r6, r6, r2
 1701 0c00 85EA7C35 		eor	r5, r5, ip, ror #13
 1702 0c04 85EABC55 		eor	r5, r5, ip, ror #22
 1703 0c08 46EA0906 		orr	r6, r6, r9
 1704 0c0c 2E44     		add	r6, r6, r5
 1705              		.loc 1 143 0
 1706 0c0e 4FEA7B49 		ror	r9, fp, #17
 1707 0c12 0D9D     		ldr	r5, [sp, #52]
 1708 0c14 89EAFB49 		eor	r9, r9, fp, ror #19
 1709 0c18 2F44     		add	r7, r7, r5
 1710 0c1a 89EA9B29 		eor	r9, r9, fp, lsr #10
 1711 0c1e B944     		add	r9, r7, r9
 1712 0c20 CDF85090 		str	r9, [sp, #80]
 1713 0c24 DDF850B0 		ldr	fp, [sp, #80]
 1714 0c28 CA4D     		ldr	r5, .L14+4
 144:25519/sha256.c ****     P( G, H, A, B, C, D, E, F, R(26), 0xB00327C8 );
 1715              		.loc 1 144 0
 1716 0c2a DDF85890 		ldr	r9, [sp, #88]
 142:25519/sha256.c ****     P( A, B, C, D, E, F, G, H, R(24), 0x983E5152 );
 1717              		.loc 1 142 0
 1718 0c2e 4044     		add	r0, r0, r8
 1719              	.LVL79:
 143:25519/sha256.c ****     P( H, A, B, C, D, E, F, G, R(25), 0xA831C66D );
 1720              		.loc 1 143 0
 1721 0c30 84EA0107 		eor	r7, r4, r1
 1722 0c34 5D44     		add	r5, r5, fp
 142:25519/sha256.c ****     P( A, B, C, D, E, F, G, H, R(24), 0x983E5152 );
 1723              		.loc 1 142 0
 1724 0c36 4644     		add	r6, r6, r8
 1725              	.LVL80:
 143:25519/sha256.c ****     P( H, A, B, C, D, E, F, G, R(25), 0xA831C66D );
 1726              		.loc 1 143 0
 1727 0c38 AA44     		add	r10, r10, r5
 1728              	.LVL81:
 1729              		.loc 1 144 0
 1730 0c3a 4FEAF918 		ror	r8, r9, #7
 1731              	.LVL82:
 1732 0c3e 169D     		ldr	r5, [sp, #88]
 143:25519/sha256.c ****     P( H, A, B, C, D, E, F, G, R(25), 0xA831C66D );
 1733              		.loc 1 143 0
 1734 0c40 0740     		ands	r7, r7, r0
 1735              		.loc 1 144 0
 1736 0c42 DDF854B0 		ldr	fp, [sp, #84]
 1737 0c46 88EAB948 		eor	r8, r8, r9, ror #18
 143:25519/sha256.c ****     P( H, A, B, C, D, E, F, G, R(25), 0xA831C66D );
 1738              		.loc 1 143 0
 1739 0c4a 4F40     		eors	r7, r7, r1
 1740              		.loc 1 144 0
 1741 0c4c 88EAD508 		eor	r8, r8, r5, lsr #3
 143:25519/sha256.c ****     P( H, A, B, C, D, E, F, G, R(25), 0xA831C66D );
 1742              		.loc 1 143 0
 1743 0c50 5744     		add	r7, r7, r10
 1744 0c52 46EA0C0A 		orr	r10, r6, ip
 1745 0c56 06EA0C05 		and	r5, r6, ip
 1746 0c5a 4FEAB019 		ror	r9, r0, #6
 1747 0c5e 0AEA030A 		and	r10, r10, r3
 1748              		.loc 1 144 0
 1749 0c62 D844     		add	r8, r8, fp
 143:25519/sha256.c ****     P( H, A, B, C, D, E, F, G, R(25), 0xA831C66D );
 1750              		.loc 1 143 0
 1751 0c64 4FEAB60B 		ror	fp, r6, #2
 1752 0c68 89EAF029 		eor	r9, r9, r0, ror #11
 1753 0c6c 8BEA763B 		eor	fp, fp, r6, ror #13
 1754 0c70 4AEA050A 		orr	r10, r10, r5
 1755              		.loc 1 144 0
 1756 0c74 139D     		ldr	r5, [sp, #76]
 143:25519/sha256.c ****     P( H, A, B, C, D, E, F, G, R(25), 0xA831C66D );
 1757              		.loc 1 143 0
 1758 0c76 89EA7069 		eor	r9, r9, r0, ror #25
 1759 0c7a 8BEAB65B 		eor	fp, fp, r6, ror #22
 1760 0c7e 4F44     		add	r7, r7, r9
 1761              	.LVL83:
 1762 0c80 DA44     		add	r10, r10, fp
 1763              		.loc 1 144 0
 1764 0c82 4FEA7549 		ror	r9, r5, #17
 1765 0c86 DDF838B0 		ldr	fp, [sp, #56]
 1766 0c8a 89EAF549 		eor	r9, r9, r5, ror #19
 1767 0c8e D844     		add	r8, r8, fp
 1768 0c90 89EA9529 		eor	r9, r9, r5, lsr #10
 1769 0c94 C144     		add	r9, r8, r9
 1770 0c96 CDF85490 		str	r9, [sp, #84]
 143:25519/sha256.c ****     P( H, A, B, C, D, E, F, G, R(25), 0xA831C66D );
 1771              		.loc 1 143 0
 1772 0c9a BA44     		add	r10, r10, r7
 1773 0c9c 3A44     		add	r2, r2, r7
 1774              	.LVL84:
 1775              		.loc 1 144 0
 1776 0c9e AE4D     		ldr	r5, .L14+8
 145:25519/sha256.c ****     P( F, G, H, A, B, C, D, E, R(27), 0xBF597FC7 );
 1777              		.loc 1 145 0
 1778 0ca0 179F     		ldr	r7, [sp, #92]
 1779              	.LVL85:
 144:25519/sha256.c ****     P( G, H, A, B, C, D, E, F, R(26), 0xB00327C8 );
 1780              		.loc 1 144 0
 1781 0ca2 80EA0408 		eor	r8, r0, r4
 1782 0ca6 4D44     		add	r5, r5, r9
 1783              		.loc 1 145 0
 1784 0ca8 4FEAF71B 		ror	fp, r7, #7
 144:25519/sha256.c ****     P( G, H, A, B, C, D, E, F, R(26), 0xB00327C8 );
 1785              		.loc 1 144 0
 1786 0cac 02EA0808 		and	r8, r2, r8
 1787 0cb0 2944     		add	r1, r1, r5
 1788              	.LVL86:
 1789              		.loc 1 145 0
 1790 0cb2 8BEAB74B 		eor	fp, fp, r7, ror #18
 1791 0cb6 169D     		ldr	r5, [sp, #88]
 144:25519/sha256.c ****     P( G, H, A, B, C, D, E, F, R(26), 0xB00327C8 );
 1792              		.loc 1 144 0
 1793 0cb8 88EA0408 		eor	r8, r8, r4
 1794              		.loc 1 145 0
 1795 0cbc 8BEAD70B 		eor	fp, fp, r7, lsr #3
 144:25519/sha256.c ****     P( G, H, A, B, C, D, E, F, R(26), 0xB00327C8 );
 1796              		.loc 1 144 0
 1797 0cc0 8844     		add	r8, r8, r1
 1798 0cc2 4AEA0601 		orr	r1, r10, r6
 1799 0cc6 4FEAB219 		ror	r9, r2, #6
 1800 0cca 01EA0C01 		and	r1, r1, ip
 1801              		.loc 1 145 0
 1802 0cce AB44     		add	fp, fp, r5
 144:25519/sha256.c ****     P( G, H, A, B, C, D, E, F, R(26), 0xB00327C8 );
 1803              		.loc 1 144 0
 1804 0cd0 4FEABA07 		ror	r7, r10, #2
 1805 0cd4 0AEA0605 		and	r5, r10, r6
 1806 0cd8 89EAF229 		eor	r9, r9, r2, ror #11
 1807 0cdc 87EA7A37 		eor	r7, r7, r10, ror #13
 1808 0ce0 2943     		orrs	r1, r1, r5
 1809              		.loc 1 145 0
 1810 0ce2 149D     		ldr	r5, [sp, #80]
 144:25519/sha256.c ****     P( G, H, A, B, C, D, E, F, R(26), 0xB00327C8 );
 1811              		.loc 1 144 0
 1812 0ce4 89EA7269 		eor	r9, r9, r2, ror #25
 1813 0ce8 87EABA57 		eor	r7, r7, r10, ror #22
 1814 0cec C844     		add	r8, r8, r9
 1815              	.LVL87:
 1816 0cee 3944     		add	r1, r1, r7
 1817              		.loc 1 145 0
 1818 0cf0 4FEA7549 		ror	r9, r5, #17
 1819 0cf4 0F9F     		ldr	r7, [sp, #60]
 1820 0cf6 89EAF549 		eor	r9, r9, r5, ror #19
 144:25519/sha256.c ****     P( G, H, A, B, C, D, E, F, R(26), 0xB00327C8 );
 1821              		.loc 1 144 0
 1822 0cfa 4144     		add	r1, r1, r8
 1823 0cfc 4344     		add	r3, r3, r8
 1824              	.LVL88:
 1825              		.loc 1 145 0
 1826 0cfe BB44     		add	fp, fp, r7
 146:25519/sha256.c ****     P( E, F, G, H, A, B, C, D, R(28), 0xC6E00BF3 );
 1827              		.loc 1 146 0
 1828 0d00 DDF86080 		ldr	r8, [sp, #96]
 1829              	.LVL89:
 145:25519/sha256.c ****     P( F, G, H, A, B, C, D, E, R(27), 0xBF597FC7 );
 1830              		.loc 1 145 0
 1831 0d04 89EA9529 		eor	r9, r9, r5, lsr #10
 1832 0d08 944F     		ldr	r7, .L14+12
 1833 0d0a D944     		add	r9, fp, r9
 1834 0d0c CDF85890 		str	r9, [sp, #88]
 1835 0d10 82EA0005 		eor	r5, r2, r0
 1836              		.loc 1 146 0
 1837 0d14 4FEAF81B 		ror	fp, r8, #7
 145:25519/sha256.c ****     P( F, G, H, A, B, C, D, E, R(27), 0xBF597FC7 );
 1838              		.loc 1 145 0
 1839 0d18 4F44     		add	r7, r7, r9
 1840              		.loc 1 146 0
 1841 0d1a DDF86090 		ldr	r9, [sp, #96]
 145:25519/sha256.c ****     P( F, G, H, A, B, C, D, E, R(27), 0xBF597FC7 );
 1842              		.loc 1 145 0
 1843 0d1e 1D40     		ands	r5, r5, r3
 1844              		.loc 1 146 0
 1845 0d20 8BEAB84B 		eor	fp, fp, r8, ror #18
 145:25519/sha256.c ****     P( F, G, H, A, B, C, D, E, R(27), 0xBF597FC7 );
 1846              		.loc 1 145 0
 1847 0d24 2744     		add	r7, r7, r4
 1848              		.loc 1 146 0
 1849 0d26 179C     		ldr	r4, [sp, #92]
 1850              	.LVL90:
 145:25519/sha256.c ****     P( F, G, H, A, B, C, D, E, R(27), 0xBF597FC7 );
 1851              		.loc 1 145 0
 1852 0d28 4540     		eors	r5, r5, r0
 1853              		.loc 1 146 0
 1854 0d2a 8BEAD90B 		eor	fp, fp, r9, lsr #3
 145:25519/sha256.c ****     P( F, G, H, A, B, C, D, E, R(27), 0xBF597FC7 );
 1855              		.loc 1 145 0
 1856 0d2e 41EA0A09 		orr	r9, r1, r10
 1857 0d32 4FEAB318 		ror	r8, r3, #6
 1858 0d36 2F44     		add	r7, r7, r5
 1859 0d38 09EA0609 		and	r9, r9, r6
 1860              		.loc 1 146 0
 1861 0d3c A344     		add	fp, fp, r4
 145:25519/sha256.c ****     P( F, G, H, A, B, C, D, E, R(27), 0xBF597FC7 );
 1862              		.loc 1 145 0
 1863 0d3e 4FEAB105 		ror	r5, r1, #2
 1864 0d42 01EA0A04 		and	r4, r1, r10
 1865 0d46 88EAF328 		eor	r8, r8, r3, ror #11
 1866 0d4a 85EA7135 		eor	r5, r5, r1, ror #13
 1867 0d4e 49EA0409 		orr	r9, r9, r4
 1868              		.loc 1 146 0
 1869 0d52 159C     		ldr	r4, [sp, #84]
 145:25519/sha256.c ****     P( F, G, H, A, B, C, D, E, R(27), 0xBF597FC7 );
 1870              		.loc 1 145 0
 1871 0d54 88EA7368 		eor	r8, r8, r3, ror #25
 1872 0d58 85EAB155 		eor	r5, r5, r1, ror #22
 1873 0d5c 4744     		add	r7, r7, r8
 1874              	.LVL91:
 1875 0d5e A944     		add	r9, r9, r5
 1876              		.loc 1 146 0
 1877 0d60 4FEA7448 		ror	r8, r4, #17
 1878 0d64 109D     		ldr	r5, [sp, #64]
 1879 0d66 88EAF448 		eor	r8, r8, r4, ror #19
 1880 0d6a AB44     		add	fp, fp, r5
 1881 0d6c 88EA9428 		eor	r8, r8, r4, lsr #10
 1882 0d70 D844     		add	r8, fp, r8
 1883 0d72 CDF85C80 		str	r8, [sp, #92]
 145:25519/sha256.c ****     P( F, G, H, A, B, C, D, E, R(27), 0xBF597FC7 );
 1884              		.loc 1 145 0
 1885 0d76 07EB0C04 		add	r4, r7, ip
 1886              	.LVL92:
 1887              		.loc 1 146 0
 1888 0d7a 794D     		ldr	r5, .L14+16
 1889 0d7c DDF85CC0 		ldr	ip, [sp, #92]
 145:25519/sha256.c ****     P( F, G, H, A, B, C, D, E, R(27), 0xBF597FC7 );
 1890              		.loc 1 145 0
 1891 0d80 B944     		add	r9, r9, r7
 1892              	.LVL93:
 1893              		.loc 1 146 0
 1894 0d82 83EA020B 		eor	fp, r3, r2
 147:25519/sha256.c ****     P( D, E, F, G, H, A, B, C, R(29), 0xD5A79147 );
 1895              		.loc 1 147 0
 1896 0d86 0B9F     		ldr	r7, [sp, #44]
 1897              	.LVL94:
 146:25519/sha256.c ****     P( E, F, G, H, A, B, C, D, R(28), 0xC6E00BF3 );
 1898              		.loc 1 146 0
 1899 0d88 6544     		add	r5, r5, ip
 1900 0d8a 04EA0B0B 		and	fp, r4, fp
 1901 0d8e 8BEA020B 		eor	fp, fp, r2
 1902              		.loc 1 147 0
 1903 0d92 4FEAF718 		ror	r8, r7, #7
 146:25519/sha256.c ****     P( E, F, G, H, A, B, C, D, R(28), 0xC6E00BF3 );
 1904              		.loc 1 146 0
 1905 0d96 2844     		add	r0, r0, r5
 1906              	.LVL95:
 1907              		.loc 1 147 0
 1908 0d98 0B9D     		ldr	r5, [sp, #44]
 1909 0d9a 88EAB748 		eor	r8, r8, r7, ror #18
 146:25519/sha256.c ****     P( E, F, G, H, A, B, C, D, R(28), 0xC6E00BF3 );
 1910              		.loc 1 146 0
 1911 0d9e 5844     		add	r0, r0, fp
 1912              		.loc 1 147 0
 1913 0da0 DDF860B0 		ldr	fp, [sp, #96]
 146:25519/sha256.c ****     P( E, F, G, H, A, B, C, D, R(28), 0xC6E00BF3 );
 1914              		.loc 1 146 0
 1915 0da4 49EA010C 		orr	ip, r9, r1
 1916              		.loc 1 147 0
 1917 0da8 88EAD508 		eor	r8, r8, r5, lsr #3
 146:25519/sha256.c ****     P( E, F, G, H, A, B, C, D, R(28), 0xC6E00BF3 );
 1918              		.loc 1 146 0
 1919 0dac 4FEAB417 		ror	r7, r4, #6
 1920 0db0 09EA0105 		and	r5, r9, r1
 1921 0db4 0CEA0A0C 		and	ip, ip, r10
 1922              		.loc 1 147 0
 1923 0db8 D844     		add	r8, r8, fp
 146:25519/sha256.c ****     P( E, F, G, H, A, B, C, D, R(28), 0xC6E00BF3 );
 1924              		.loc 1 146 0
 1925 0dba 4FEAB90B 		ror	fp, r9, #2
 1926 0dbe 87EAF427 		eor	r7, r7, r4, ror #11
 1927 0dc2 8BEA793B 		eor	fp, fp, r9, ror #13
 1928 0dc6 4CEA050C 		orr	ip, ip, r5
 1929              		.loc 1 147 0
 1930 0dca 169D     		ldr	r5, [sp, #88]
 146:25519/sha256.c ****     P( E, F, G, H, A, B, C, D, R(28), 0xC6E00BF3 );
 1931              		.loc 1 146 0
 1932 0dcc 87EA7467 		eor	r7, r7, r4, ror #25
 1933 0dd0 8BEAB95B 		eor	fp, fp, r9, ror #22
 1934 0dd4 3844     		add	r0, r0, r7
 1935              	.LVL96:
 1936 0dd6 DC44     		add	ip, ip, fp
 1937              		.loc 1 147 0
 1938 0dd8 4FEA7547 		ror	r7, r5, #17
 1939 0ddc DDF844B0 		ldr	fp, [sp, #68]
 1940 0de0 87EAF547 		eor	r7, r7, r5, ror #19
 1941 0de4 D844     		add	r8, r8, fp
 1942 0de6 87EA9527 		eor	r7, r7, r5, lsr #10
 1943 0dea 5E4D     		ldr	r5, .L14+20
 146:25519/sha256.c ****     P( E, F, G, H, A, B, C, D, R(28), 0xC6E00BF3 );
 1944              		.loc 1 146 0
 1945 0dec 00EB060B 		add	fp, r0, r6
 1946              	.LVL97:
 1947 0df0 8444     		add	ip, ip, r0
 1948              	.LVL98:
 1949              		.loc 1 147 0
 1950 0df2 4744     		add	r7, r8, r7
 148:25519/sha256.c ****     P( C, D, E, F, G, H, A, B, R(30), 0x06CA6351 );
 1951              		.loc 1 148 0
 1952 0df4 0C98     		ldr	r0, [sp, #48]
 1953              	.LVL99:
 147:25519/sha256.c ****     P( D, E, F, G, H, A, B, C, R(29), 0xD5A79147 );
 1954              		.loc 1 147 0
 1955 0df6 84EA0306 		eor	r6, r4, r3
 1956 0dfa 3D44     		add	r5, r5, r7
 1957 0dfc 0BEA0606 		and	r6, fp, r6
 1958 0e00 5E40     		eors	r6, r6, r3
 1959              		.loc 1 148 0
 1960 0e02 4FEAF018 		ror	r8, r0, #7
 147:25519/sha256.c ****     P( D, E, F, G, H, A, B, C, R(29), 0xD5A79147 );
 1961              		.loc 1 147 0
 1962 0e06 2A44     		add	r2, r2, r5
 1963              	.LVL100:
 1964              		.loc 1 148 0
 1965 0e08 88EAB048 		eor	r8, r8, r0, ror #18
 147:25519/sha256.c ****     P( D, E, F, G, H, A, B, C, R(29), 0xD5A79147 );
 1966              		.loc 1 147 0
 1967 0e0c 3244     		add	r2, r2, r6
 1968              		.loc 1 148 0
 1969 0e0e 0B9E     		ldr	r6, [sp, #44]
 1970 0e10 88EAD005 		eor	r5, r8, r0, lsr #3
 147:25519/sha256.c ****     P( D, E, F, G, H, A, B, C, R(29), 0xD5A79147 );
 1971              		.loc 1 147 0
 1972 0e14 4CEA0908 		orr	r8, ip, r9
 1973 0e18 1897     		str	r7, [sp, #96]
 1974 0e1a 08EA0108 		and	r8, r8, r1
 1975 0e1e 0CEA0900 		and	r0, ip, r9
 1976 0e22 4FEABB17 		ror	r7, fp, #6
 1977              		.loc 1 148 0
 1978 0e26 3544     		add	r5, r5, r6
 147:25519/sha256.c ****     P( D, E, F, G, H, A, B, C, R(29), 0xD5A79147 );
 1979              		.loc 1 147 0
 1980 0e28 4FEABC06 		ror	r6, ip, #2
 1981 0e2c 87EAFB27 		eor	r7, r7, fp, ror #11
 1982 0e30 86EA7C36 		eor	r6, r6, ip, ror #13
 1983 0e34 48EA0000 		orr	r0, r8, r0
 1984              		.loc 1 148 0
 1985 0e38 DDF85C80 		ldr	r8, [sp, #92]
 147:25519/sha256.c ****     P( D, E, F, G, H, A, B, C, R(29), 0xD5A79147 );
 1986              		.loc 1 147 0
 1987 0e3c 87EA7B67 		eor	r7, r7, fp, ror #25
 1988 0e40 86EABC56 		eor	r6, r6, ip, ror #22
 1989 0e44 3A44     		add	r2, r2, r7
 1990              	.LVL101:
 1991 0e46 3044     		add	r0, r0, r6
 1992              		.loc 1 148 0
 1993 0e48 4FEA7847 		ror	r7, r8, #17
 1994 0e4c 129E     		ldr	r6, [sp, #72]
 1995 0e4e 87EAF847 		eor	r7, r7, r8, ror #19
 1996 0e52 3544     		add	r5, r5, r6
 1997 0e54 87EA9828 		eor	r8, r7, r8, lsr #10
 1998 0e58 434E     		ldr	r6, .L14+24
 147:25519/sha256.c ****     P( D, E, F, G, H, A, B, C, R(29), 0xD5A79147 );
 1999              		.loc 1 147 0
 2000 0e5a 9244     		add	r10, r10, r2
 2001              	.LVL102:
 2002 0e5c 1044     		add	r0, r0, r2
 2003              	.LVL103:
 149:25519/sha256.c ****     P( B, C, D, E, F, G, H, A, R(31), 0x14292967 );
 2004              		.loc 1 149 0
 2005 0e5e 099F     		ldr	r7, [sp, #36]
 148:25519/sha256.c ****     P( C, D, E, F, G, H, A, B, R(30), 0x06CA6351 );
 2006              		.loc 1 148 0
 2007 0e60 A844     		add	r8, r5, r8
 2008 0e62 8BEA0402 		eor	r2, fp, r4
 2009              	.LVL104:
 2010 0e66 4644     		add	r6, r6, r8
 2011 0e68 0AEA0202 		and	r2, r10, r2
 2012 0e6c CDF82C80 		str	r8, [sp, #44]
 2013 0e70 6240     		eors	r2, r2, r4
 2014              		.loc 1 149 0
 2015 0e72 DDF82480 		ldr	r8, [sp, #36]
 2016 0e76 4FEAF715 		ror	r5, r7, #7
 148:25519/sha256.c ****     P( C, D, E, F, G, H, A, B, R(30), 0x06CA6351 );
 2017              		.loc 1 148 0
 2018 0e7a 3344     		add	r3, r3, r6
 2019              	.LVL105:
 2020              		.loc 1 149 0
 2021 0e7c 85EAB745 		eor	r5, r5, r7, ror #18
 148:25519/sha256.c ****     P( C, D, E, F, G, H, A, B, R(30), 0x06CA6351 );
 2022              		.loc 1 148 0
 2023 0e80 1344     		add	r3, r3, r2
 2024              		.loc 1 149 0
 2025 0e82 0C9A     		ldr	r2, [sp, #48]
 2026 0e84 85EAD805 		eor	r5, r5, r8, lsr #3
 148:25519/sha256.c ****     P( C, D, E, F, G, H, A, B, R(30), 0x06CA6351 );
 2027              		.loc 1 148 0
 2028 0e88 40EA0C08 		orr	r8, r0, ip
 2029 0e8c 08EA0908 		and	r8, r8, r9
 2030 0e90 00EA0C06 		and	r6, r0, ip
 2031 0e94 4FEABA17 		ror	r7, r10, #6
 2032              		.loc 1 149 0
 2033 0e98 1544     		add	r5, r5, r2
 148:25519/sha256.c ****     P( C, D, E, F, G, H, A, B, R(30), 0x06CA6351 );
 2034              		.loc 1 148 0
 2035 0e9a 4FEAB002 		ror	r2, r0, #2
 2036 0e9e 87EAFA27 		eor	r7, r7, r10, ror #11
 2037 0ea2 82EA7032 		eor	r2, r2, r0, ror #13
 2038 0ea6 48EA0606 		orr	r6, r8, r6
 2039              		.loc 1 149 0
 2040 0eaa DDF86080 		ldr	r8, [sp, #96]
 148:25519/sha256.c ****     P( C, D, E, F, G, H, A, B, R(30), 0x06CA6351 );
 2041              		.loc 1 148 0
 2042 0eae 87EA7A67 		eor	r7, r7, r10, ror #25
 2043 0eb2 82EAB052 		eor	r2, r2, r0, ror #22
 2044 0eb6 3B44     		add	r3, r3, r7
 2045              	.LVL106:
 2046 0eb8 1644     		add	r6, r6, r2
 2047              		.loc 1 149 0
 2048 0eba 4FEA7847 		ror	r7, r8, #17
 2049 0ebe 139A     		ldr	r2, [sp, #76]
 2050 0ec0 87EAF847 		eor	r7, r7, r8, ror #19
 2051 0ec4 1544     		add	r5, r5, r2
 2052 0ec6 87EA9827 		eor	r7, r7, r8, lsr #10
 2053 0eca 284A     		ldr	r2, .L14+28
 148:25519/sha256.c ****     P( C, D, E, F, G, H, A, B, R(30), 0x06CA6351 );
 2054              		.loc 1 148 0
 2055 0ecc 1944     		add	r1, r1, r3
 2056              	.LVL107:
 2057 0ece 1E44     		add	r6, r6, r3
 2058              	.LVL108:
 2059              		.loc 1 149 0
 2060 0ed0 EF19     		adds	r7, r5, r7
 150:25519/sha256.c ****     P( A, B, C, D, E, F, G, H, R(32), 0x27B70A85 );
 2061              		.loc 1 150 0
 2062 0ed2 0A9B     		ldr	r3, [sp, #40]
 2063              	.LVL109:
 149:25519/sha256.c ****     P( B, C, D, E, F, G, H, A, R(31), 0x14292967 );
 2064              		.loc 1 149 0
 2065 0ed4 8AEA0B05 		eor	r5, r10, fp
 2066 0ed8 3A44     		add	r2, r2, r7
 2067              		.loc 1 150 0
 2068 0eda 4FEAF318 		ror	r8, r3, #7
 149:25519/sha256.c ****     P( B, C, D, E, F, G, H, A, R(31), 0x14292967 );
 2069              		.loc 1 149 0
 2070 0ede 0D40     		ands	r5, r5, r1
 2071 0ee0 2244     		add	r2, r2, r4
 2072              		.loc 1 150 0
 2073 0ee2 0A9C     		ldr	r4, [sp, #40]
 2074              	.LVL110:
 149:25519/sha256.c ****     P( B, C, D, E, F, G, H, A, R(31), 0x14292967 );
 2075              		.loc 1 149 0
 2076 0ee4 0C97     		str	r7, [sp, #48]
 2077 0ee6 85EA0B05 		eor	r5, r5, fp
 2078              		.loc 1 150 0
 2079 0eea 099F     		ldr	r7, [sp, #36]
 2080 0eec 88EAB348 		eor	r8, r8, r3, ror #18
 149:25519/sha256.c ****     P( B, C, D, E, F, G, H, A, R(31), 0x14292967 );
 2081              		.loc 1 149 0
 2082 0ef0 4FEAB113 		ror	r3, r1, #6
 2083 0ef4 83EAF123 		eor	r3, r3, r1, ror #11
 2084              		.loc 1 150 0
 2085 0ef8 88EAD408 		eor	r8, r8, r4, lsr #3
 149:25519/sha256.c ****     P( B, C, D, E, F, G, H, A, R(31), 0x14292967 );
 2086              		.loc 1 149 0
 2087 0efc 2A44     		add	r2, r2, r5
 2088 0efe 46EA0005 		orr	r5, r6, r0
 2089 0f02 83EA7164 		eor	r4, r3, r1, ror #25
 2090 0f06 05EA0C05 		and	r5, r5, ip
 2091              		.loc 1 150 0
 2092 0f0a B844     		add	r8, r8, r7
 149:25519/sha256.c ****     P( B, C, D, E, F, G, H, A, R(31), 0x14292967 );
 2093              		.loc 1 149 0
 2094 0f0c 4FEAB603 		ror	r3, r6, #2
 2095 0f10 06EA0007 		and	r7, r6, r0
 2096 0f14 83EA7633 		eor	r3, r3, r6, ror #13
 2097 0f18 2F43     		orrs	r7, r7, r5
 2098              		.loc 1 150 0
 2099 0f1a 0B9D     		ldr	r5, [sp, #44]
 149:25519/sha256.c ****     P( B, C, D, E, F, G, H, A, R(31), 0x14292967 );
 2100              		.loc 1 149 0
 2101 0f1c 83EAB653 		eor	r3, r3, r6, ror #22
 2102 0f20 2244     		add	r2, r2, r4
 2103              	.LVL111:
 2104 0f22 1F44     		add	r7, r7, r3
 2105              		.loc 1 150 0
 2106 0f24 4FEA7544 		ror	r4, r5, #17
 2107 0f28 149B     		ldr	r3, [sp, #80]
 2108 0f2a 84EAF544 		eor	r4, r4, r5, ror #19
 2109 0f2e 9844     		add	r8, r8, r3
 2110 0f30 84EA9524 		eor	r4, r4, r5, lsr #10
 2111 0f34 4444     		add	r4, r8, r4
 2112 0f36 0994     		str	r4, [sp, #36]
 2113 0f38 0D4B     		ldr	r3, .L14+32
 2114 0f3a 099D     		ldr	r5, [sp, #36]
 149:25519/sha256.c ****     P( B, C, D, E, F, G, H, A, R(31), 0x14292967 );
 2115              		.loc 1 149 0
 2116 0f3c 1744     		add	r7, r7, r2
 2117 0f3e 9144     		add	r9, r9, r2
 2118              	.LVL112:
 151:25519/sha256.c ****     P( H, A, B, C, D, E, F, G, R(33), 0x2E1B2138 );
 2119              		.loc 1 151 0
 2120 0f40 0D9C     		ldr	r4, [sp, #52]
 150:25519/sha256.c ****     P( A, B, C, D, E, F, G, H, R(32), 0x27B70A85 );
 2121              		.loc 1 150 0
 2122 0f42 81EA0A02 		eor	r2, r1, r10
 2123              	.LVL113:
 2124 0f46 2B44     		add	r3, r3, r5
 2125 0f48 09EA0202 		and	r2, r9, r2
 2126              		.loc 1 151 0
 2127 0f4c 0D9D     		ldr	r5, [sp, #52]
 2128 0f4e 11E0     		b	.L15
 2129              	.L16:
 2130              		.align	2
 2131              	.L14:
 2132 0f50 52513E98 		.word	-1740746414
 2133 0f54 6DC631A8 		.word	-1473132947
 2134 0f58 C82703B0 		.word	-1341970488
 2135 0f5c C77F59BF 		.word	-1084653625
 2136 0f60 F30BE0C6 		.word	-958395405
 2137 0f64 4791A7D5 		.word	-710438585
 2138 0f68 5163CA06 		.word	113926993
 2139 0f6c 67292914 		.word	338241895
 2140 0f70 850AB727 		.word	666307205
 2141              	.L15:
 150:25519/sha256.c ****     P( A, B, C, D, E, F, G, H, R(32), 0x27B70A85 );
 2142              		.loc 1 150 0
 2143 0f74 82EA0A02 		eor	r2, r2, r10
 2144              		.loc 1 151 0
 2145 0f78 4FEAF418 		ror	r8, r4, #7
 150:25519/sha256.c ****     P( A, B, C, D, E, F, G, H, R(32), 0x27B70A85 );
 2146              		.loc 1 150 0
 2147 0f7c 5B44     		add	r3, r3, fp
 2148              		.loc 1 151 0
 2149 0f7e 88EAB448 		eor	r8, r8, r4, ror #18
 150:25519/sha256.c ****     P( A, B, C, D, E, F, G, H, R(32), 0x27B70A85 );
 2150              		.loc 1 150 0
 2151 0f82 1344     		add	r3, r3, r2
 2152              		.loc 1 151 0
 2153 0f84 0A9A     		ldr	r2, [sp, #40]
 2154 0f86 88EAD50B 		eor	fp, r8, r5, lsr #3
 2155              	.LVL114:
 150:25519/sha256.c ****     P( A, B, C, D, E, F, G, H, R(32), 0x27B70A85 );
 2156              		.loc 1 150 0
 2157 0f8a 47EA0608 		orr	r8, r7, r6
 2158 0f8e 08EA0008 		and	r8, r8, r0
 2159 0f92 07EA0605 		and	r5, r7, r6
 2160 0f96 4FEAB914 		ror	r4, r9, #6
 2161              		.loc 1 151 0
 2162 0f9a 9344     		add	fp, fp, r2
 150:25519/sha256.c ****     P( A, B, C, D, E, F, G, H, R(32), 0x27B70A85 );
 2163              		.loc 1 150 0
 2164 0f9c 4FEAB702 		ror	r2, r7, #2
 2165 0fa0 84EAF924 		eor	r4, r4, r9, ror #11
 2166 0fa4 82EA7732 		eor	r2, r2, r7, ror #13
 2167 0fa8 48EA0505 		orr	r5, r8, r5
 2168              		.loc 1 151 0
 2169 0fac DDF83080 		ldr	r8, [sp, #48]
 150:25519/sha256.c ****     P( A, B, C, D, E, F, G, H, R(32), 0x27B70A85 );
 2170              		.loc 1 150 0
 2171 0fb0 84EA7964 		eor	r4, r4, r9, ror #25
 2172 0fb4 82EAB752 		eor	r2, r2, r7, ror #22
 2173 0fb8 2344     		add	r3, r3, r4
 2174              	.LVL115:
 2175 0fba 1544     		add	r5, r5, r2
 2176              		.loc 1 151 0
 2177 0fbc 4FEA7844 		ror	r4, r8, #17
 2178 0fc0 159A     		ldr	r2, [sp, #84]
 2179 0fc2 84EAF844 		eor	r4, r4, r8, ror #19
 2180 0fc6 9344     		add	fp, fp, r2
 2181 0fc8 84EA9824 		eor	r4, r4, r8, lsr #10
 2182 0fcc 5C44     		add	r4, fp, r4
 2183 0fce 0A94     		str	r4, [sp, #40]
 2184 0fd0 DDF82880 		ldr	r8, [sp, #40]
 152:25519/sha256.c ****     P( G, H, A, B, C, D, E, F, R(34), 0x4D2C6DFC );
 2185              		.loc 1 152 0
 2186 0fd4 0E9C     		ldr	r4, [sp, #56]
 151:25519/sha256.c ****     P( H, A, B, C, D, E, F, G, R(33), 0x2E1B2138 );
 2187              		.loc 1 151 0
 2188 0fd6 F14A     		ldr	r2, .L17
 150:25519/sha256.c ****     P( A, B, C, D, E, F, G, H, R(32), 0x27B70A85 );
 2189              		.loc 1 150 0
 2190 0fd8 9C44     		add	ip, ip, r3
 2191              	.LVL116:
 151:25519/sha256.c ****     P( H, A, B, C, D, E, F, G, R(33), 0x2E1B2138 );
 2192              		.loc 1 151 0
 2193 0fda 89EA010B 		eor	fp, r9, r1
 150:25519/sha256.c ****     P( A, B, C, D, E, F, G, H, R(32), 0x27B70A85 );
 2194              		.loc 1 150 0
 2195 0fde 1D44     		add	r5, r5, r3
 2196              	.LVL117:
 151:25519/sha256.c ****     P( H, A, B, C, D, E, F, G, R(33), 0x2E1B2138 );
 2197              		.loc 1 151 0
 2198 0fe0 4244     		add	r2, r2, r8
 2199              		.loc 1 152 0
 2200 0fe2 4FEAF413 		ror	r3, r4, #7
 2201              	.LVL118:
 151:25519/sha256.c ****     P( H, A, B, C, D, E, F, G, R(33), 0x2E1B2138 );
 2202              		.loc 1 151 0
 2203 0fe6 0CEA0B0B 		and	fp, ip, fp
 2204 0fea 8BEA010B 		eor	fp, fp, r1
 2205              		.loc 1 152 0
 2206 0fee 83EAB443 		eor	r3, r3, r4, ror #18
 151:25519/sha256.c ****     P( H, A, B, C, D, E, F, G, R(33), 0x2E1B2138 );
 2207              		.loc 1 151 0
 2208 0ff2 5244     		add	r2, r2, r10
 2209              		.loc 1 152 0
 2210 0ff4 DDF834A0 		ldr	r10, [sp, #52]
 2211              	.LVL119:
 2212 0ff8 83EAD403 		eor	r3, r3, r4, lsr #3
 151:25519/sha256.c ****     P( H, A, B, C, D, E, F, G, R(33), 0x2E1B2138 );
 2213              		.loc 1 151 0
 2214 0ffc 5A44     		add	r2, r2, fp
 2215 0ffe 45EA070B 		orr	fp, r5, r7
 2216 1002 0BEA060B 		and	fp, fp, r6
 2217 1006 05EA0704 		and	r4, r5, r7
 2218 100a 4FEABC18 		ror	r8, ip, #6
 2219              		.loc 1 152 0
 2220 100e 9A44     		add	r10, r10, r3
 151:25519/sha256.c ****     P( H, A, B, C, D, E, F, G, R(33), 0x2E1B2138 );
 2221              		.loc 1 151 0
 2222 1010 4FEAB503 		ror	r3, r5, #2
 2223 1014 88EAFC28 		eor	r8, r8, ip, ror #11
 2224 1018 83EA7533 		eor	r3, r3, r5, ror #13
 2225 101c 4BEA0404 		orr	r4, fp, r4
 2226              		.loc 1 152 0
 2227 1020 DDF824B0 		ldr	fp, [sp, #36]
 151:25519/sha256.c ****     P( H, A, B, C, D, E, F, G, R(33), 0x2E1B2138 );
 2228              		.loc 1 151 0
 2229 1024 88EA7C68 		eor	r8, r8, ip, ror #25
 2230 1028 83EAB553 		eor	r3, r3, r5, ror #22
 2231 102c 4244     		add	r2, r2, r8
 2232              	.LVL120:
 2233 102e 1C44     		add	r4, r4, r3
 2234              		.loc 1 152 0
 2235 1030 4FEA7B48 		ror	r8, fp, #17
 2236 1034 169B     		ldr	r3, [sp, #88]
 2237 1036 88EAFB48 		eor	r8, r8, fp, ror #19
 2238 103a 9A44     		add	r10, r10, r3
 2239 103c 88EA9B28 		eor	r8, r8, fp, lsr #10
 2240 1040 D044     		add	r8, r10, r8
 2241 1042 CDF83480 		str	r8, [sp, #52]
 151:25519/sha256.c ****     P( H, A, B, C, D, E, F, G, R(33), 0x2E1B2138 );
 2242              		.loc 1 151 0
 2243 1046 1044     		add	r0, r0, r2
 2244              	.LVL121:
 2245 1048 1444     		add	r4, r4, r2
 2246              	.LVL122:
 2247              		.loc 1 152 0
 2248 104a D54B     		ldr	r3, .L17+4
 2249 104c 0D9A     		ldr	r2, [sp, #52]
 2250              	.LVL123:
 153:25519/sha256.c ****     P( F, G, H, A, B, C, D, E, R(35), 0x53380D13 );
 2251              		.loc 1 153 0
 2252 104e DDF83C80 		ldr	r8, [sp, #60]
 152:25519/sha256.c ****     P( G, H, A, B, C, D, E, F, R(34), 0x4D2C6DFC );
 2253              		.loc 1 152 0
 2254 1052 8CEA090B 		eor	fp, ip, r9
 2255 1056 1344     		add	r3, r3, r2
 2256              		.loc 1 153 0
 2257 1058 4FEAF81A 		ror	r10, r8, #7
 152:25519/sha256.c ****     P( G, H, A, B, C, D, E, F, R(34), 0x4D2C6DFC );
 2258              		.loc 1 152 0
 2259 105c 00EA0B0B 		and	fp, r0, fp
 2260 1060 0B44     		add	r3, r3, r1
 2261              		.loc 1 153 0
 2262 1062 0F99     		ldr	r1, [sp, #60]
 2263              	.LVL124:
 2264 1064 0E9A     		ldr	r2, [sp, #56]
 152:25519/sha256.c ****     P( G, H, A, B, C, D, E, F, R(34), 0x4D2C6DFC );
 2265              		.loc 1 152 0
 2266 1066 8BEA090B 		eor	fp, fp, r9
 2267              		.loc 1 153 0
 2268 106a 8AEAB84A 		eor	r10, r10, r8, ror #18
 2269 106e 8AEAD10A 		eor	r10, r10, r1, lsr #3
 152:25519/sha256.c ****     P( G, H, A, B, C, D, E, F, R(34), 0x4D2C6DFC );
 2270              		.loc 1 152 0
 2271 1072 5B44     		add	r3, r3, fp
 2272 1074 44EA050B 		orr	fp, r4, r5
 2273 1078 0BEA070B 		and	fp, fp, r7
 2274 107c 04EA0501 		and	r1, r4, r5
 2275 1080 4FEAB018 		ror	r8, r0, #6
 2276              		.loc 1 153 0
 2277 1084 9244     		add	r10, r10, r2
 152:25519/sha256.c ****     P( G, H, A, B, C, D, E, F, R(34), 0x4D2C6DFC );
 2278              		.loc 1 152 0
 2279 1086 4FEAB402 		ror	r2, r4, #2
 2280 108a 88EAF028 		eor	r8, r8, r0, ror #11
 2281 108e 82EA7432 		eor	r2, r2, r4, ror #13
 2282 1092 4BEA0101 		orr	r1, fp, r1
 2283              		.loc 1 153 0
 2284 1096 DDF828B0 		ldr	fp, [sp, #40]
 152:25519/sha256.c ****     P( G, H, A, B, C, D, E, F, R(34), 0x4D2C6DFC );
 2285              		.loc 1 152 0
 2286 109a 88EA7068 		eor	r8, r8, r0, ror #25
 2287 109e 82EAB452 		eor	r2, r2, r4, ror #22
 2288 10a2 4344     		add	r3, r3, r8
 2289              	.LVL125:
 2290 10a4 1144     		add	r1, r1, r2
 2291              		.loc 1 153 0
 2292 10a6 4FEA7B48 		ror	r8, fp, #17
 2293 10aa 179A     		ldr	r2, [sp, #92]
 2294 10ac 88EAFB48 		eor	r8, r8, fp, ror #19
 152:25519/sha256.c ****     P( G, H, A, B, C, D, E, F, R(34), 0x4D2C6DFC );
 2295              		.loc 1 152 0
 2296 10b0 1E44     		add	r6, r6, r3
 2297              	.LVL126:
 2298 10b2 1944     		add	r1, r1, r3
 2299              	.LVL127:
 2300              		.loc 1 153 0
 2301 10b4 9244     		add	r10, r10, r2
 154:25519/sha256.c ****     P( E, F, G, H, A, B, C, D, R(36), 0x650A7354 );
 2302              		.loc 1 154 0
 2303 10b6 109B     		ldr	r3, [sp, #64]
 2304              	.LVL128:
 153:25519/sha256.c ****     P( F, G, H, A, B, C, D, E, R(35), 0x53380D13 );
 2305              		.loc 1 153 0
 2306 10b8 88EA9B28 		eor	r8, r8, fp, lsr #10
 2307 10bc B94A     		ldr	r2, .L17+8
 2308 10be D044     		add	r8, r10, r8
 2309 10c0 80EA0C0B 		eor	fp, r0, ip
 2310 10c4 4244     		add	r2, r2, r8
 2311              		.loc 1 154 0
 2312 10c6 4FEAF31A 		ror	r10, r3, #7
 153:25519/sha256.c ****     P( F, G, H, A, B, C, D, E, R(35), 0x53380D13 );
 2313              		.loc 1 153 0
 2314 10ca 06EA0B0B 		and	fp, r6, fp
 2315 10ce 8BEA0C0B 		eor	fp, fp, ip
 2316              		.loc 1 154 0
 2317 10d2 8AEAB34A 		eor	r10, r10, r3, ror #18
 153:25519/sha256.c ****     P( F, G, H, A, B, C, D, E, R(35), 0x53380D13 );
 2318              		.loc 1 153 0
 2319 10d6 9144     		add	r9, r9, r2
 2320              	.LVL129:
 2321              		.loc 1 154 0
 2322 10d8 0F9A     		ldr	r2, [sp, #60]
 2323 10da 8AEAD30A 		eor	r10, r10, r3, lsr #3
 153:25519/sha256.c ****     P( F, G, H, A, B, C, D, E, R(35), 0x53380D13 );
 2324              		.loc 1 153 0
 2325 10de D944     		add	r9, r9, fp
 2326 10e0 41EA040B 		orr	fp, r1, r4
 2327 10e4 CDF83880 		str	r8, [sp, #56]
 2328 10e8 0BEA050B 		and	fp, fp, r5
 2329 10ec 4FEAB618 		ror	r8, r6, #6
 2330              		.loc 1 154 0
 2331 10f0 9244     		add	r10, r10, r2
 153:25519/sha256.c ****     P( F, G, H, A, B, C, D, E, R(35), 0x53380D13 );
 2332              		.loc 1 153 0
 2333 10f2 4FEAB103 		ror	r3, r1, #2
 2334 10f6 01EA0402 		and	r2, r1, r4
 2335 10fa 88EAF628 		eor	r8, r8, r6, ror #11
 2336 10fe 83EA7133 		eor	r3, r3, r1, ror #13
 2337 1102 4BEA0202 		orr	r2, fp, r2
 2338              		.loc 1 154 0
 2339 1106 DDF834B0 		ldr	fp, [sp, #52]
 153:25519/sha256.c ****     P( F, G, H, A, B, C, D, E, R(35), 0x53380D13 );
 2340              		.loc 1 153 0
 2341 110a 88EA7668 		eor	r8, r8, r6, ror #25
 2342 110e 83EAB153 		eor	r3, r3, r1, ror #22
 2343 1112 C144     		add	r9, r9, r8
 2344              	.LVL130:
 2345 1114 1A44     		add	r2, r2, r3
 2346              		.loc 1 154 0
 2347 1116 4FEA7B48 		ror	r8, fp, #17
 2348 111a 189B     		ldr	r3, [sp, #96]
 2349 111c 88EAFB48 		eor	r8, r8, fp, ror #19
 2350 1120 9A44     		add	r10, r10, r3
 2351 1122 88EA9B28 		eor	r8, r8, fp, lsr #10
 2352 1126 D044     		add	r8, r10, r8
 2353 1128 CDF83C80 		str	r8, [sp, #60]
 2354 112c DDF83CB0 		ldr	fp, [sp, #60]
 2355 1130 9D4B     		ldr	r3, .L17+12
 153:25519/sha256.c ****     P( F, G, H, A, B, C, D, E, R(35), 0x53380D13 );
 2356              		.loc 1 153 0
 2357 1132 4A44     		add	r2, r2, r9
 2358 1134 4F44     		add	r7, r7, r9
 2359              	.LVL131:
 2360              		.loc 1 154 0
 2361 1136 86EA0008 		eor	r8, r6, r0
 155:25519/sha256.c ****     P( D, E, F, G, H, A, B, C, R(37), 0x766A0ABB );
 2362              		.loc 1 155 0
 2363 113a DDF84490 		ldr	r9, [sp, #68]
 2364              	.LVL132:
 154:25519/sha256.c ****     P( E, F, G, H, A, B, C, D, R(36), 0x650A7354 );
 2365              		.loc 1 154 0
 2366 113e 5B44     		add	r3, r3, fp
 2367 1140 07EA0808 		and	r8, r7, r8
 2368 1144 88EA0008 		eor	r8, r8, r0
 2369              		.loc 1 155 0
 2370 1148 4FEAF91A 		ror	r10, r9, #7
 154:25519/sha256.c ****     P( E, F, G, H, A, B, C, D, R(36), 0x650A7354 );
 2371              		.loc 1 154 0
 2372 114c 9C44     		add	ip, ip, r3
 2373              	.LVL133:
 2374              		.loc 1 155 0
 2375 114e 119B     		ldr	r3, [sp, #68]
 2376 1150 8AEAB94A 		eor	r10, r10, r9, ror #18
 154:25519/sha256.c ****     P( E, F, G, H, A, B, C, D, R(36), 0x650A7354 );
 2377              		.loc 1 154 0
 2378 1154 C444     		add	ip, ip, r8
 2379              		.loc 1 155 0
 2380 1156 DDF84080 		ldr	r8, [sp, #64]
 154:25519/sha256.c ****     P( E, F, G, H, A, B, C, D, R(36), 0x650A7354 );
 2381              		.loc 1 154 0
 2382 115a 42EA010B 		orr	fp, r2, r1
 2383              		.loc 1 155 0
 2384 115e 8AEAD30A 		eor	r10, r10, r3, lsr #3
 154:25519/sha256.c ****     P( E, F, G, H, A, B, C, D, R(36), 0x650A7354 );
 2385              		.loc 1 154 0
 2386 1162 0BEA040B 		and	fp, fp, r4
 2387 1166 02EA0103 		and	r3, r2, r1
 2388 116a 4FEAB719 		ror	r9, r7, #6
 2389              		.loc 1 155 0
 2390 116e C244     		add	r10, r10, r8
 154:25519/sha256.c ****     P( E, F, G, H, A, B, C, D, R(36), 0x650A7354 );
 2391              		.loc 1 154 0
 2392 1170 4FEAB208 		ror	r8, r2, #2
 2393 1174 89EAF729 		eor	r9, r9, r7, ror #11
 2394 1178 88EA7238 		eor	r8, r8, r2, ror #13
 2395 117c 4BEA0303 		orr	r3, fp, r3
 2396              		.loc 1 155 0
 2397 1180 DDF838B0 		ldr	fp, [sp, #56]
 154:25519/sha256.c ****     P( E, F, G, H, A, B, C, D, R(36), 0x650A7354 );
 2398              		.loc 1 154 0
 2399 1184 89EA7769 		eor	r9, r9, r7, ror #25
 2400 1188 88EAB258 		eor	r8, r8, r2, ror #22
 2401 118c CC44     		add	ip, ip, r9
 2402              	.LVL134:
 2403 118e 4344     		add	r3, r3, r8
 2404              		.loc 1 155 0
 2405 1190 4FEA7B49 		ror	r9, fp, #17
 2406 1194 DDF82C80 		ldr	r8, [sp, #44]
 2407 1198 89EAFB49 		eor	r9, r9, fp, ror #19
 2408 119c C244     		add	r10, r10, r8
 2409 119e 89EA9B2B 		eor	fp, r9, fp, lsr #10
 2410 11a2 D344     		add	fp, r10, fp
 2411 11a4 DFF80C82 		ldr	r8, .L17+24
 156:25519/sha256.c ****     P( C, D, E, F, G, H, A, B, R(38), 0x81C2C92E );
 2412              		.loc 1 156 0
 2413 11a8 DDF848A0 		ldr	r10, [sp, #72]
 154:25519/sha256.c ****     P( E, F, G, H, A, B, C, D, R(36), 0x650A7354 );
 2414              		.loc 1 154 0
 2415 11ac 6544     		add	r5, r5, ip
 2416              	.LVL135:
 155:25519/sha256.c ****     P( D, E, F, G, H, A, B, C, R(37), 0x766A0ABB );
 2417              		.loc 1 155 0
 2418 11ae 87EA0609 		eor	r9, r7, r6
 154:25519/sha256.c ****     P( E, F, G, H, A, B, C, D, R(36), 0x650A7354 );
 2419              		.loc 1 154 0
 2420 11b2 6344     		add	r3, r3, ip
 2421              	.LVL136:
 155:25519/sha256.c ****     P( D, E, F, G, H, A, B, C, R(37), 0x766A0ABB );
 2422              		.loc 1 155 0
 2423 11b4 CDF840B0 		str	fp, [sp, #64]
 2424              		.loc 1 156 0
 2425 11b8 4FEAFA1C 		ror	ip, r10, #7
 2426              	.LVL137:
 155:25519/sha256.c ****     P( D, E, F, G, H, A, B, C, R(37), 0x766A0ABB );
 2427              		.loc 1 155 0
 2428 11bc D844     		add	r8, r8, fp
 2429 11be 05EA0909 		and	r9, r5, r9
 2430 11c2 4FEAB51B 		ror	fp, r5, #6
 2431 11c6 89EA0609 		eor	r9, r9, r6
 2432              		.loc 1 156 0
 2433 11ca 8CEABA4C 		eor	ip, ip, r10, ror #18
 155:25519/sha256.c ****     P( D, E, F, G, H, A, B, C, R(37), 0x766A0ABB );
 2434              		.loc 1 155 0
 2435 11ce 8044     		add	r8, r8, r0
 2436 11d0 8BEAF52B 		eor	fp, fp, r5, ror #11
 2437              		.loc 1 156 0
 2438 11d4 1198     		ldr	r0, [sp, #68]
 2439              	.LVL138:
 155:25519/sha256.c ****     P( D, E, F, G, H, A, B, C, R(37), 0x766A0ABB );
 2440              		.loc 1 155 0
 2441 11d6 8BEA756B 		eor	fp, fp, r5, ror #25
 2442              		.loc 1 156 0
 2443 11da 8CEADA0C 		eor	ip, ip, r10, lsr #3
 155:25519/sha256.c ****     P( D, E, F, G, H, A, B, C, R(37), 0x766A0ABB );
 2444              		.loc 1 155 0
 2445 11de C844     		add	r8, r8, r9
 2446 11e0 43EA020A 		orr	r10, r3, r2
 2447 11e4 4FEAB309 		ror	r9, r3, #2
 2448 11e8 D844     		add	r8, r8, fp
 2449              	.LVL139:
 2450 11ea 0AEA010A 		and	r10, r10, r1
 2451              		.loc 1 156 0
 2452 11ee DDF83CB0 		ldr	fp, [sp, #60]
 2453 11f2 8444     		add	ip, ip, r0
 155:25519/sha256.c ****     P( D, E, F, G, H, A, B, C, R(37), 0x766A0ABB );
 2454              		.loc 1 155 0
 2455 11f4 89EA7339 		eor	r9, r9, r3, ror #13
 2456 11f8 03EA0200 		and	r0, r3, r2
 2457 11fc 89EAB359 		eor	r9, r9, r3, ror #22
 2458 1200 4AEA0000 		orr	r0, r10, r0
 2459 1204 4844     		add	r0, r0, r9
 2460              		.loc 1 156 0
 2461 1206 4FEA7B4A 		ror	r10, fp, #17
 2462 120a DDF83090 		ldr	r9, [sp, #48]
 2463 120e 8AEAFB4A 		eor	r10, r10, fp, ror #19
 2464 1212 CC44     		add	ip, ip, r9
 2465 1214 8AEA9B2A 		eor	r10, r10, fp, lsr #10
 2466 1218 E244     		add	r10, ip, r10
 2467 121a CDF844A0 		str	r10, [sp, #68]
 2468 121e DFF89891 		ldr	r9, .L17+28
 2469 1222 DDF844B0 		ldr	fp, [sp, #68]
 155:25519/sha256.c ****     P( D, E, F, G, H, A, B, C, R(37), 0x766A0ABB );
 2470              		.loc 1 155 0
 2471 1226 4044     		add	r0, r0, r8
 2472 1228 4444     		add	r4, r4, r8
 2473              	.LVL140:
 157:25519/sha256.c ****     P( B, C, D, E, F, G, H, A, R(39), 0x92722C85 );
 2474              		.loc 1 157 0
 2475 122a DDF84CA0 		ldr	r10, [sp, #76]
 156:25519/sha256.c ****     P( C, D, E, F, G, H, A, B, R(38), 0x81C2C92E );
 2476              		.loc 1 156 0
 2477 122e 85EA0708 		eor	r8, r5, r7
 2478              	.LVL141:
 2479 1232 D944     		add	r9, r9, fp
 2480 1234 04EA0808 		and	r8, r4, r8
 2481 1238 88EA0708 		eor	r8, r8, r7
 2482              		.loc 1 157 0
 2483 123c 4FEAFA1C 		ror	ip, r10, #7
 156:25519/sha256.c ****     P( C, D, E, F, G, H, A, B, R(38), 0x81C2C92E );
 2484              		.loc 1 156 0
 2485 1240 B144     		add	r9, r9, r6
 2486              		.loc 1 157 0
 2487 1242 139E     		ldr	r6, [sp, #76]
 2488              	.LVL142:
 156:25519/sha256.c ****     P( C, D, E, F, G, H, A, B, R(38), 0x81C2C92E );
 2489              		.loc 1 156 0
 2490 1244 C144     		add	r9, r9, r8
 2491              		.loc 1 157 0
 2492 1246 8CEABA4C 		eor	ip, ip, r10, ror #18
 2493 124a DDF84880 		ldr	r8, [sp, #72]
 156:25519/sha256.c ****     P( C, D, E, F, G, H, A, B, R(38), 0x81C2C92E );
 2494              		.loc 1 156 0
 2495 124e 40EA030B 		orr	fp, r0, r3
 2496              		.loc 1 157 0
 2497 1252 8CEAD60C 		eor	ip, ip, r6, lsr #3
 156:25519/sha256.c ****     P( C, D, E, F, G, H, A, B, R(38), 0x81C2C92E );
 2498              		.loc 1 156 0
 2499 1256 0BEA020B 		and	fp, fp, r2
 2500 125a 00EA0306 		and	r6, r0, r3
 2501 125e 4FEAB41A 		ror	r10, r4, #6
 2502              		.loc 1 157 0
 2503 1262 C444     		add	ip, ip, r8
 156:25519/sha256.c ****     P( C, D, E, F, G, H, A, B, R(38), 0x81C2C92E );
 2504              		.loc 1 156 0
 2505 1264 4FEAB008 		ror	r8, r0, #2
 2506 1268 8AEAF42A 		eor	r10, r10, r4, ror #11
 2507 126c 88EA7038 		eor	r8, r8, r0, ror #13
 2508 1270 4BEA0606 		orr	r6, fp, r6
 2509              		.loc 1 157 0
 2510 1274 DDF840B0 		ldr	fp, [sp, #64]
 156:25519/sha256.c ****     P( C, D, E, F, G, H, A, B, R(38), 0x81C2C92E );
 2511              		.loc 1 156 0
 2512 1278 88EAB058 		eor	r8, r8, r0, ror #22
 2513 127c 8AEA746A 		eor	r10, r10, r4, ror #25
 2514 1280 CA44     		add	r10, r10, r9
 2515              	.LVL143:
 2516 1282 4644     		add	r6, r6, r8
 2517              		.loc 1 157 0
 2518 1284 4FEA7B49 		ror	r9, fp, #17
 2519 1288 DDF82480 		ldr	r8, [sp, #36]
 2520 128c 89EAFB49 		eor	r9, r9, fp, ror #19
 2521 1290 C444     		add	ip, ip, r8
 2522 1292 89EA9B29 		eor	r9, r9, fp, lsr #10
 2523 1296 E144     		add	r9, ip, r9
 2524 1298 CDF84890 		str	r9, [sp, #72]
 158:25519/sha256.c ****     P( A, B, C, D, E, F, G, H, R(40), 0xA2BFE8A1 );
 2525              		.loc 1 158 0
 2526 129c DDF850B0 		ldr	fp, [sp, #80]
 157:25519/sha256.c ****     P( B, C, D, E, F, G, H, A, R(39), 0x92722C85 );
 2527              		.loc 1 157 0
 2528 12a0 DDF848C0 		ldr	ip, [sp, #72]
 2529 12a4 DFF81481 		ldr	r8, .L17+32
 156:25519/sha256.c ****     P( C, D, E, F, G, H, A, B, R(38), 0x81C2C92E );
 2530              		.loc 1 156 0
 2531 12a8 5144     		add	r1, r1, r10
 2532              	.LVL144:
 157:25519/sha256.c ****     P( B, C, D, E, F, G, H, A, R(39), 0x92722C85 );
 2533              		.loc 1 157 0
 2534 12aa 84EA0509 		eor	r9, r4, r5
 156:25519/sha256.c ****     P( C, D, E, F, G, H, A, B, R(38), 0x81C2C92E );
 2535              		.loc 1 156 0
 2536 12ae 5644     		add	r6, r6, r10
 2537              	.LVL145:
 157:25519/sha256.c ****     P( B, C, D, E, F, G, H, A, R(39), 0x92722C85 );
 2538              		.loc 1 157 0
 2539 12b0 E044     		add	r8, r8, ip
 2540              		.loc 1 158 0
 2541 12b2 4FEAFB1A 		ror	r10, fp, #7
 2542              	.LVL146:
 157:25519/sha256.c ****     P( B, C, D, E, F, G, H, A, R(39), 0x92722C85 );
 2543              		.loc 1 157 0
 2544 12b6 01EA0909 		and	r9, r1, r9
 2545 12ba 89EA0509 		eor	r9, r9, r5
 2546              		.loc 1 158 0
 2547 12be 8AEABB4A 		eor	r10, r10, fp, ror #18
 157:25519/sha256.c ****     P( B, C, D, E, F, G, H, A, R(39), 0x92722C85 );
 2548              		.loc 1 157 0
 2549 12c2 4744     		add	r7, r7, r8
 2550              	.LVL147:
 2551              		.loc 1 158 0
 2552 12c4 DDF84C80 		ldr	r8, [sp, #76]
 157:25519/sha256.c ****     P( B, C, D, E, F, G, H, A, R(39), 0x92722C85 );
 2553              		.loc 1 157 0
 2554 12c8 4F44     		add	r7, r7, r9
 2555              		.loc 1 158 0
 2556 12ca 8AEADB0A 		eor	r10, r10, fp, lsr #3
 157:25519/sha256.c ****     P( B, C, D, E, F, G, H, A, R(39), 0x92722C85 );
 2557              		.loc 1 157 0
 2558 12ce 46EA0009 		orr	r9, r6, r0
 2559 12d2 09EA0309 		and	r9, r9, r3
 2560 12d6 4FEAB11C 		ror	ip, r1, #6
 2561              		.loc 1 158 0
 2562 12da C244     		add	r10, r10, r8
 157:25519/sha256.c ****     P( B, C, D, E, F, G, H, A, R(39), 0x92722C85 );
 2563              		.loc 1 157 0
 2564 12dc 4FEAB60B 		ror	fp, r6, #2
 2565 12e0 06EA0008 		and	r8, r6, r0
 2566 12e4 8CEAF12C 		eor	ip, ip, r1, ror #11
 2567 12e8 8BEA763B 		eor	fp, fp, r6, ror #13
 2568 12ec 49EA0808 		orr	r8, r9, r8
 2569              		.loc 1 158 0
 2570 12f0 DDF84490 		ldr	r9, [sp, #68]
 157:25519/sha256.c ****     P( B, C, D, E, F, G, H, A, R(39), 0x92722C85 );
 2571              		.loc 1 157 0
 2572 12f4 8BEAB65B 		eor	fp, fp, r6, ror #22
 2573 12f8 8CEA716C 		eor	ip, ip, r1, ror #25
 2574 12fc BC44     		add	ip, ip, r7
 2575              	.LVL148:
 2576 12fe D844     		add	r8, r8, fp
 2577              		.loc 1 158 0
 2578 1300 4FEA7947 		ror	r7, r9, #17
 2579 1304 DDF828B0 		ldr	fp, [sp, #40]
 2580 1308 87EAF947 		eor	r7, r7, r9, ror #19
 2581 130c DA44     		add	r10, r10, fp
 2582 130e 87EA9929 		eor	r9, r7, r9, lsr #10
 2583 1312 D144     		add	r9, r10, r9
 157:25519/sha256.c ****     P( B, C, D, E, F, G, H, A, R(39), 0x92722C85 );
 2584              		.loc 1 157 0
 2585 1314 6244     		add	r2, r2, ip
 2586              	.LVL149:
 2587 1316 E044     		add	r8, r8, ip
 2588              	.LVL150:
 2589              		.loc 1 158 0
 2590 1318 CDF84C90 		str	r9, [sp, #76]
 159:25519/sha256.c ****     P( H, A, B, C, D, E, F, G, R(41), 0xA81A664B );
 2591              		.loc 1 159 0
 2592 131c DDF854C0 		ldr	ip, [sp, #84]
 2593              	.LVL151:
 158:25519/sha256.c ****     P( A, B, C, D, E, F, G, H, R(40), 0xA2BFE8A1 );
 2594              		.loc 1 158 0
 2595 1320 DDF84CA0 		ldr	r10, [sp, #76]
 2596 1324 214F     		ldr	r7, .L17+16
 2597 1326 81EA040B 		eor	fp, r1, r4
 2598              		.loc 1 159 0
 2599 132a 4FEAFC19 		ror	r9, ip, #7
 158:25519/sha256.c ****     P( A, B, C, D, E, F, G, H, R(40), 0xA2BFE8A1 );
 2600              		.loc 1 158 0
 2601 132e 5744     		add	r7, r7, r10
 2602              		.loc 1 159 0
 2603 1330 89EABC49 		eor	r9, r9, ip, ror #18
 158:25519/sha256.c ****     P( A, B, C, D, E, F, G, H, R(40), 0xA2BFE8A1 );
 2604              		.loc 1 158 0
 2605 1334 02EA0B0B 		and	fp, r2, fp
 2606 1338 8BEA040B 		eor	fp, fp, r4
 2607 133c 3D44     		add	r5, r5, r7
 2608              	.LVL152:
 2609              		.loc 1 159 0
 2610 133e 89EADC07 		eor	r7, r9, ip, lsr #3
 2611 1342 DDF850C0 		ldr	ip, [sp, #80]
 158:25519/sha256.c ****     P( A, B, C, D, E, F, G, H, R(40), 0xA2BFE8A1 );
 2612              		.loc 1 158 0
 2613 1346 5D44     		add	r5, r5, fp
 2614 1348 48EA060B 		orr	fp, r8, r6
 2615 134c 0BEA000B 		and	fp, fp, r0
 2616 1350 4FEAB21A 		ror	r10, r2, #6
 2617              		.loc 1 159 0
 2618 1354 6744     		add	r7, r7, ip
 158:25519/sha256.c ****     P( A, B, C, D, E, F, G, H, R(40), 0xA2BFE8A1 );
 2619              		.loc 1 158 0
 2620 1356 08EA060C 		and	ip, r8, r6
 2621 135a 8AEAF22A 		eor	r10, r10, r2, ror #11
 2622 135e 4BEA0C0C 		orr	ip, fp, ip
 2623              		.loc 1 159 0
 2624 1362 DDF848B0 		ldr	fp, [sp, #72]
 158:25519/sha256.c ****     P( A, B, C, D, E, F, G, H, R(40), 0xA2BFE8A1 );
 2625              		.loc 1 158 0
 2626 1366 8AEA726A 		eor	r10, r10, r2, ror #25
 2627 136a AA44     		add	r10, r10, r5
 2628              	.LVL153:
 2629 136c 4FEAB809 		ror	r9, r8, #2
 2630              		.loc 1 159 0
 2631 1370 4FEA7B45 		ror	r5, fp, #17
 158:25519/sha256.c ****     P( A, B, C, D, E, F, G, H, R(40), 0xA2BFE8A1 );
 2632              		.loc 1 158 0
 2633 1374 89EA7839 		eor	r9, r9, r8, ror #13
 2634              		.loc 1 159 0
 2635 1378 85EAFB45 		eor	r5, r5, fp, ror #19
 158:25519/sha256.c ****     P( A, B, C, D, E, F, G, H, R(40), 0xA2BFE8A1 );
 2636              		.loc 1 158 0
 2637 137c 89EAB859 		eor	r9, r9, r8, ror #22
 2638              		.loc 1 159 0
 2639 1380 85EA9B2B 		eor	fp, r5, fp, lsr #10
 2640 1384 0D9D     		ldr	r5, [sp, #52]
 158:25519/sha256.c ****     P( A, B, C, D, E, F, G, H, R(40), 0xA2BFE8A1 );
 2641              		.loc 1 158 0
 2642 1386 CC44     		add	ip, ip, r9
 2643 1388 D444     		add	ip, ip, r10
 2644 138a 5344     		add	r3, r3, r10
 2645              	.LVL154:
 2646              		.loc 1 159 0
 2647 138c 2F44     		add	r7, r7, r5
 160:25519/sha256.c ****     P( G, H, A, B, C, D, E, F, R(42), 0xC24B8B70 );
 2648              		.loc 1 160 0
 2649 138e DDF858A0 		ldr	r10, [sp, #88]
 2650              	.LVL155:
 159:25519/sha256.c ****     P( H, A, B, C, D, E, F, G, R(41), 0xA81A664B );
 2651              		.loc 1 159 0
 2652 1392 074D     		ldr	r5, .L17+20
 2653 1394 BB44     		add	fp, r7, fp
 2654 1396 CDF850B0 		str	fp, [sp, #80]
 2655 139a 11E0     		b	.L18
 2656              	.L19:
 2657              		.align	2
 2658              	.L17:
 2659 139c 38211B2E 		.word	773529912
 2660 13a0 FC6D2C4D 		.word	1294757372
 2661 13a4 130D3853 		.word	1396182291
 2662 13a8 54730A65 		.word	1695183700
 2663 13ac A1E8BFA2 		.word	-1564481375
 2664 13b0 4B661AA8 		.word	-1474664885
 2665 13b4 BB0A6A76 		.word	1986661051
 2666 13b8 2EC9C281 		.word	-2117940946
 2667 13bc 852C7292 		.word	-1838011259
 2668              	.L18:
 2669 13c0 82EA0107 		eor	r7, r2, r1
 2670 13c4 5D44     		add	r5, r5, fp
 2671              		.loc 1 160 0
 2672 13c6 4FEAFA19 		ror	r9, r10, #7
 2673 13ca DDF858B0 		ldr	fp, [sp, #88]
 159:25519/sha256.c ****     P( H, A, B, C, D, E, F, G, R(41), 0xA81A664B );
 2674              		.loc 1 159 0
 2675 13ce 1F40     		ands	r7, r7, r3
 2676              		.loc 1 160 0
 2677 13d0 89EABA49 		eor	r9, r9, r10, ror #18
 159:25519/sha256.c ****     P( H, A, B, C, D, E, F, G, R(41), 0xA81A664B );
 2678              		.loc 1 159 0
 2679 13d4 2C44     		add	r4, r4, r5
 2680              	.LVL156:
 2681              		.loc 1 160 0
 2682 13d6 159D     		ldr	r5, [sp, #84]
 159:25519/sha256.c ****     P( H, A, B, C, D, E, F, G, R(41), 0xA81A664B );
 2683              		.loc 1 159 0
 2684 13d8 4F40     		eors	r7, r7, r1
 2685              		.loc 1 160 0
 2686 13da 89EADB09 		eor	r9, r9, fp, lsr #3
 159:25519/sha256.c ****     P( H, A, B, C, D, E, F, G, R(41), 0xA81A664B );
 2687              		.loc 1 159 0
 2688 13de 4CEA080B 		orr	fp, ip, r8
 2689 13e2 0BEA060B 		and	fp, fp, r6
 2690 13e6 4FEAB31A 		ror	r10, r3, #6
 2691 13ea 3C44     		add	r4, r4, r7
 2692              		.loc 1 160 0
 2693 13ec A944     		add	r9, r9, r5
 159:25519/sha256.c ****     P( H, A, B, C, D, E, F, G, R(41), 0xA81A664B );
 2694              		.loc 1 159 0
 2695 13ee 4FEABC07 		ror	r7, ip, #2
 2696 13f2 0CEA0805 		and	r5, ip, r8
 2697 13f6 8AEAF32A 		eor	r10, r10, r3, ror #11
 2698 13fa 87EA7C37 		eor	r7, r7, ip, ror #13
 2699 13fe 4BEA0505 		orr	r5, fp, r5
 2700              		.loc 1 160 0
 2701 1402 DDF84CB0 		ldr	fp, [sp, #76]
 159:25519/sha256.c ****     P( H, A, B, C, D, E, F, G, R(41), 0xA81A664B );
 2702              		.loc 1 159 0
 2703 1406 8AEA736A 		eor	r10, r10, r3, ror #25
 2704 140a 87EABC57 		eor	r7, r7, ip, ror #22
 2705 140e 5444     		add	r4, r4, r10
 2706              	.LVL157:
 2707 1410 3D44     		add	r5, r5, r7
 2708              		.loc 1 160 0
 2709 1412 4FEA7B4A 		ror	r10, fp, #17
 2710 1416 0E9F     		ldr	r7, [sp, #56]
 2711 1418 8AEAFB4A 		eor	r10, r10, fp, ror #19
 2712 141c B944     		add	r9, r9, r7
 2713 141e 8AEA9B2A 		eor	r10, r10, fp, lsr #10
 2714 1422 CA44     		add	r10, r9, r10
 2715 1424 CDF854A0 		str	r10, [sp, #84]
 159:25519/sha256.c ****     P( H, A, B, C, D, E, F, G, R(41), 0xA81A664B );
 2716              		.loc 1 159 0
 2717 1428 2044     		add	r0, r0, r4
 2718              	.LVL158:
 2719 142a 2544     		add	r5, r5, r4
 2720              	.LVL159:
 161:25519/sha256.c ****     P( F, G, H, A, B, C, D, E, R(43), 0xC76C51A3 );
 2721              		.loc 1 161 0
 2722 142c DDF85CB0 		ldr	fp, [sp, #92]
 160:25519/sha256.c ****     P( G, H, A, B, C, D, E, F, R(42), 0xC24B8B70 );
 2723              		.loc 1 160 0
 2724 1430 159C     		ldr	r4, [sp, #84]
 2725              	.LVL160:
 2726 1432 EE4F     		ldr	r7, .L20
 2727              		.loc 1 161 0
 2728 1434 4FEAFB19 		ror	r9, fp, #7
 160:25519/sha256.c ****     P( G, H, A, B, C, D, E, F, R(42), 0xC24B8B70 );
 2729              		.loc 1 160 0
 2730 1438 2744     		add	r7, r7, r4
 2731 143a 83EA020A 		eor	r10, r3, r2
 2732              		.loc 1 161 0
 2733 143e 89EABB49 		eor	r9, r9, fp, ror #18
 160:25519/sha256.c ****     P( G, H, A, B, C, D, E, F, R(42), 0xC24B8B70 );
 2734              		.loc 1 160 0
 2735 1442 3944     		add	r1, r1, r7
 2736              	.LVL161:
 2737 1444 4FEAB01B 		ror	fp, r0, #6
 2738              		.loc 1 161 0
 2739 1448 179F     		ldr	r7, [sp, #92]
 160:25519/sha256.c ****     P( G, H, A, B, C, D, E, F, R(42), 0xC24B8B70 );
 2740              		.loc 1 160 0
 2741 144a 8BEAF02B 		eor	fp, fp, r0, ror #11
 2742 144e 00EA0A0A 		and	r10, r0, r10
 2743 1452 8AEA020A 		eor	r10, r10, r2
 2744              		.loc 1 161 0
 2745 1456 89EAD709 		eor	r9, r9, r7, lsr #3
 160:25519/sha256.c ****     P( G, H, A, B, C, D, E, F, R(42), 0xC24B8B70 );
 2746              		.loc 1 160 0
 2747 145a 8BEA7067 		eor	r7, fp, r0, ror #25
 2748              		.loc 1 161 0
 2749 145e DDF858B0 		ldr	fp, [sp, #88]
 160:25519/sha256.c ****     P( G, H, A, B, C, D, E, F, R(42), 0xC24B8B70 );
 2750              		.loc 1 160 0
 2751 1462 5144     		add	r1, r1, r10
 2752 1464 45EA0C0A 		orr	r10, r5, ip
 2753 1468 0AEA080A 		and	r10, r10, r8
 2754 146c 05EA0C04 		and	r4, r5, ip
 2755              		.loc 1 161 0
 2756 1470 D944     		add	r9, r9, fp
 160:25519/sha256.c ****     P( G, H, A, B, C, D, E, F, R(42), 0xC24B8B70 );
 2757              		.loc 1 160 0
 2758 1472 4FEAB50B 		ror	fp, r5, #2
 2759 1476 8BEA753B 		eor	fp, fp, r5, ror #13
 2760 147a 4AEA0404 		orr	r4, r10, r4
 2761              		.loc 1 161 0
 2762 147e DDF850A0 		ldr	r10, [sp, #80]
 160:25519/sha256.c ****     P( G, H, A, B, C, D, E, F, R(42), 0xC24B8B70 );
 2763              		.loc 1 160 0
 2764 1482 8BEAB55B 		eor	fp, fp, r5, ror #22
 2765 1486 3944     		add	r1, r1, r7
 2766              	.LVL162:
 2767 1488 5C44     		add	r4, r4, fp
 2768              		.loc 1 161 0
 2769 148a 4FEA7A47 		ror	r7, r10, #17
 2770 148e DDF83CB0 		ldr	fp, [sp, #60]
 2771 1492 87EAFA47 		eor	r7, r7, r10, ror #19
 2772 1496 D944     		add	r9, r9, fp
 2773 1498 87EA9A2A 		eor	r10, r7, r10, lsr #10
 2774 149c D44F     		ldr	r7, .L20+4
 160:25519/sha256.c ****     P( G, H, A, B, C, D, E, F, R(42), 0xC24B8B70 );
 2775              		.loc 1 160 0
 2776 149e 0C44     		add	r4, r4, r1
 2777 14a0 0E44     		add	r6, r6, r1
 2778              	.LVL163:
 2779              		.loc 1 161 0
 2780 14a2 CA44     		add	r10, r9, r10
 2781 14a4 80EA0301 		eor	r1, r0, r3
 2782              	.LVL164:
 162:25519/sha256.c ****     P( E, F, G, H, A, B, C, D, R(44), 0xD192E819 );
 2783              		.loc 1 162 0
 2784 14a8 DDF86090 		ldr	r9, [sp, #96]
 161:25519/sha256.c ****     P( F, G, H, A, B, C, D, E, R(43), 0xC76C51A3 );
 2785              		.loc 1 161 0
 2786 14ac 5744     		add	r7, r7, r10
 2787 14ae 3140     		ands	r1, r1, r6
 2788 14b0 CDF858A0 		str	r10, [sp, #88]
 2789 14b4 5940     		eors	r1, r1, r3
 2790              		.loc 1 162 0
 2791 14b6 DDF860A0 		ldr	r10, [sp, #96]
 2792 14ba 4FEAF91B 		ror	fp, r9, #7
 161:25519/sha256.c ****     P( F, G, H, A, B, C, D, E, R(43), 0xC76C51A3 );
 2793              		.loc 1 161 0
 2794 14be 1744     		add	r7, r7, r2
 2795              		.loc 1 162 0
 2796 14c0 8BEAB94B 		eor	fp, fp, r9, ror #18
 161:25519/sha256.c ****     P( F, G, H, A, B, C, D, E, R(43), 0xC76C51A3 );
 2797              		.loc 1 161 0
 2798 14c4 0F44     		add	r7, r7, r1
 2799              		.loc 1 162 0
 2800 14c6 1799     		ldr	r1, [sp, #92]
 2801 14c8 8BEADA0B 		eor	fp, fp, r10, lsr #3
 161:25519/sha256.c ****     P( F, G, H, A, B, C, D, E, R(43), 0xC76C51A3 );
 2802              		.loc 1 161 0
 2803 14cc 44EA050A 		orr	r10, r4, r5
 2804 14d0 0AEA0C0A 		and	r10, r10, ip
 2805 14d4 04EA0502 		and	r2, r4, r5
 2806              	.LVL165:
 2807 14d8 4FEAB619 		ror	r9, r6, #6
 2808              		.loc 1 162 0
 2809 14dc 8B44     		add	fp, fp, r1
 161:25519/sha256.c ****     P( F, G, H, A, B, C, D, E, R(43), 0xC76C51A3 );
 2810              		.loc 1 161 0
 2811 14de 4FEAB401 		ror	r1, r4, #2
 2812 14e2 89EAF629 		eor	r9, r9, r6, ror #11
 2813 14e6 81EA7431 		eor	r1, r1, r4, ror #13
 2814 14ea 4AEA0202 		orr	r2, r10, r2
 2815              		.loc 1 162 0
 2816 14ee DDF854A0 		ldr	r10, [sp, #84]
 161:25519/sha256.c ****     P( F, G, H, A, B, C, D, E, R(43), 0xC76C51A3 );
 2817              		.loc 1 161 0
 2818 14f2 89EA7669 		eor	r9, r9, r6, ror #25
 2819 14f6 81EAB451 		eor	r1, r1, r4, ror #22
 2820 14fa 4F44     		add	r7, r7, r9
 2821              	.LVL166:
 2822 14fc 0A44     		add	r2, r2, r1
 2823              		.loc 1 162 0
 2824 14fe 4FEA7A49 		ror	r9, r10, #17
 2825 1502 1099     		ldr	r1, [sp, #64]
 2826 1504 89EAFA49 		eor	r9, r9, r10, ror #19
 2827 1508 8B44     		add	fp, fp, r1
 2828 150a 89EA9A29 		eor	r9, r9, r10, lsr #10
 2829 150e D944     		add	r9, fp, r9
 2830 1510 CDF85C90 		str	r9, [sp, #92]
 161:25519/sha256.c ****     P( F, G, H, A, B, C, D, E, R(43), 0xC76C51A3 );
 2831              		.loc 1 161 0
 2832 1514 B844     		add	r8, r8, r7
 2833              	.LVL167:
 2834 1516 3A44     		add	r2, r2, r7
 2835              	.LVL168:
 2836              		.loc 1 162 0
 2837 1518 B649     		ldr	r1, .L20+8
 163:25519/sha256.c ****     P( D, E, F, G, H, A, B, C, R(45), 0xD6990624 );
 2838              		.loc 1 163 0
 2839 151a 0B9F     		ldr	r7, [sp, #44]
 2840              	.LVL169:
 162:25519/sha256.c ****     P( E, F, G, H, A, B, C, D, R(44), 0xD192E819 );
 2841              		.loc 1 162 0
 2842 151c 86EA000B 		eor	fp, r6, r0
 2843 1520 4944     		add	r1, r1, r9
 2844              		.loc 1 163 0
 2845 1522 4FEAF71A 		ror	r10, r7, #7
 162:25519/sha256.c ****     P( E, F, G, H, A, B, C, D, R(44), 0xD192E819 );
 2846              		.loc 1 162 0
 2847 1526 08EA0B0B 		and	fp, r8, fp
 2848 152a 8BEA000B 		eor	fp, fp, r0
 2849              		.loc 1 163 0
 2850 152e 8AEAB74A 		eor	r10, r10, r7, ror #18
 162:25519/sha256.c ****     P( E, F, G, H, A, B, C, D, R(44), 0xD192E819 );
 2851              		.loc 1 162 0
 2852 1532 0B44     		add	r3, r3, r1
 2853              	.LVL170:
 2854              		.loc 1 163 0
 2855 1534 1899     		ldr	r1, [sp, #96]
 2856 1536 8AEAD70A 		eor	r10, r10, r7, lsr #3
 162:25519/sha256.c ****     P( E, F, G, H, A, B, C, D, R(44), 0xD192E819 );
 2857              		.loc 1 162 0
 2858 153a 5B44     		add	r3, r3, fp
 2859 153c 42EA040B 		orr	fp, r2, r4
 2860 1540 0BEA050B 		and	fp, fp, r5
 2861 1544 4FEAB819 		ror	r9, r8, #6
 2862              		.loc 1 163 0
 2863 1548 8A44     		add	r10, r10, r1
 162:25519/sha256.c ****     P( E, F, G, H, A, B, C, D, R(44), 0xD192E819 );
 2864              		.loc 1 162 0
 2865 154a 4FEAB207 		ror	r7, r2, #2
 2866 154e 02EA0401 		and	r1, r2, r4
 2867 1552 89EAF829 		eor	r9, r9, r8, ror #11
 2868 1556 87EA7237 		eor	r7, r7, r2, ror #13
 2869 155a 4BEA0101 		orr	r1, fp, r1
 2870              		.loc 1 163 0
 2871 155e DDF858B0 		ldr	fp, [sp, #88]
 162:25519/sha256.c ****     P( E, F, G, H, A, B, C, D, R(44), 0xD192E819 );
 2872              		.loc 1 162 0
 2873 1562 89EA7869 		eor	r9, r9, r8, ror #25
 2874 1566 87EAB257 		eor	r7, r7, r2, ror #22
 2875 156a 4B44     		add	r3, r3, r9
 2876              	.LVL171:
 2877 156c 3944     		add	r1, r1, r7
 2878              		.loc 1 163 0
 2879 156e 4FEA7B49 		ror	r9, fp, #17
 2880 1572 119F     		ldr	r7, [sp, #68]
 2881 1574 89EAFB49 		eor	r9, r9, fp, ror #19
 2882 1578 BA44     		add	r10, r10, r7
 2883 157a 89EA9B29 		eor	r9, r9, fp, lsr #10
 2884 157e D144     		add	r9, r10, r9
 2885 1580 CDF86090 		str	r9, [sp, #96]
 162:25519/sha256.c ****     P( E, F, G, H, A, B, C, D, R(44), 0xD192E819 );
 2886              		.loc 1 162 0
 2887 1584 9C44     		add	ip, ip, r3
 2888              	.LVL172:
 2889 1586 1944     		add	r1, r1, r3
 2890              	.LVL173:
 2891              		.loc 1 163 0
 2892 1588 9B4F     		ldr	r7, .L20+12
 2893 158a 189B     		ldr	r3, [sp, #96]
 2894              	.LVL174:
 164:25519/sha256.c ****     P( C, D, E, F, G, H, A, B, R(46), 0xF40E3585 );
 2895              		.loc 1 164 0
 2896 158c DDF830B0 		ldr	fp, [sp, #48]
 163:25519/sha256.c ****     P( D, E, F, G, H, A, B, C, R(45), 0xD6990624 );
 2897              		.loc 1 163 0
 2898 1590 88EA0609 		eor	r9, r8, r6
 2899 1594 1F44     		add	r7, r7, r3
 2900              		.loc 1 164 0
 2901 1596 4FEAFB1A 		ror	r10, fp, #7
 163:25519/sha256.c ****     P( D, E, F, G, H, A, B, C, R(45), 0xD6990624 );
 2902              		.loc 1 163 0
 2903 159a 0CEA0909 		and	r9, ip, r9
 2904 159e 0744     		add	r7, r7, r0
 2905              		.loc 1 164 0
 2906 15a0 0C98     		ldr	r0, [sp, #48]
 2907              	.LVL175:
 2908 15a2 0B9B     		ldr	r3, [sp, #44]
 163:25519/sha256.c ****     P( D, E, F, G, H, A, B, C, R(45), 0xD6990624 );
 2909              		.loc 1 163 0
 2910 15a4 89EA0609 		eor	r9, r9, r6
 2911              		.loc 1 164 0
 2912 15a8 8AEABB4A 		eor	r10, r10, fp, ror #18
 163:25519/sha256.c ****     P( D, E, F, G, H, A, B, C, R(45), 0xD6990624 );
 2913              		.loc 1 163 0
 2914 15ac 4FEABC1B 		ror	fp, ip, #6
 2915 15b0 8BEAFC2B 		eor	fp, fp, ip, ror #11
 2916              		.loc 1 164 0
 2917 15b4 8AEAD00A 		eor	r10, r10, r0, lsr #3
 163:25519/sha256.c ****     P( D, E, F, G, H, A, B, C, R(45), 0xD6990624 );
 2918              		.loc 1 163 0
 2919 15b8 4F44     		add	r7, r7, r9
 2920 15ba 41EA0209 		orr	r9, r1, r2
 2921 15be 8BEA7C60 		eor	r0, fp, ip, ror #25
 2922 15c2 09EA0409 		and	r9, r9, r4
 2923              		.loc 1 164 0
 2924 15c6 9A44     		add	r10, r10, r3
 163:25519/sha256.c ****     P( D, E, F, G, H, A, B, C, R(45), 0xD6990624 );
 2925              		.loc 1 163 0
 2926 15c8 4FEAB10B 		ror	fp, r1, #2
 2927 15cc 01EA0203 		and	r3, r1, r2
 2928 15d0 8BEA713B 		eor	fp, fp, r1, ror #13
 2929 15d4 49EA0303 		orr	r3, r9, r3
 2930              		.loc 1 164 0
 2931 15d8 DDF85C90 		ldr	r9, [sp, #92]
 163:25519/sha256.c ****     P( D, E, F, G, H, A, B, C, R(45), 0xD6990624 );
 2932              		.loc 1 163 0
 2933 15dc 8BEAB15B 		eor	fp, fp, r1, ror #22
 2934 15e0 0744     		add	r7, r7, r0
 2935              	.LVL176:
 2936 15e2 5B44     		add	r3, r3, fp
 2937              		.loc 1 164 0
 2938 15e4 4FEA7940 		ror	r0, r9, #17
 2939 15e8 DDF848B0 		ldr	fp, [sp, #72]
 2940 15ec 80EAF940 		eor	r0, r0, r9, ror #19
 163:25519/sha256.c ****     P( D, E, F, G, H, A, B, C, R(45), 0xD6990624 );
 2941              		.loc 1 163 0
 2942 15f0 3B44     		add	r3, r3, r7
 2943 15f2 3D44     		add	r5, r5, r7
 2944              	.LVL177:
 2945              		.loc 1 164 0
 2946 15f4 DA44     		add	r10, r10, fp
 165:25519/sha256.c ****     P( B, C, D, E, F, G, H, A, R(47), 0x106AA070 );
 2947              		.loc 1 165 0
 2948 15f6 099F     		ldr	r7, [sp, #36]
 2949              	.LVL178:
 164:25519/sha256.c ****     P( C, D, E, F, G, H, A, B, R(46), 0xF40E3585 );
 2950              		.loc 1 164 0
 2951 15f8 80EA9929 		eor	r9, r0, r9, lsr #10
 2952 15fc 7F48     		ldr	r0, .L20+16
 2953 15fe D144     		add	r9, r10, r9
 2954 1600 8CEA080B 		eor	fp, ip, r8
 2955 1604 4844     		add	r0, r0, r9
 2956              		.loc 1 165 0
 2957 1606 4FEAF71A 		ror	r10, r7, #7
 164:25519/sha256.c ****     P( C, D, E, F, G, H, A, B, R(46), 0xF40E3585 );
 2958              		.loc 1 164 0
 2959 160a 05EA0B0B 		and	fp, r5, fp
 2960 160e 8BEA080B 		eor	fp, fp, r8
 2961              		.loc 1 165 0
 2962 1612 8AEAB74A 		eor	r10, r10, r7, ror #18
 164:25519/sha256.c ****     P( C, D, E, F, G, H, A, B, R(46), 0xF40E3585 );
 2963              		.loc 1 164 0
 2964 1616 0644     		add	r6, r6, r0
 2965              	.LVL179:
 2966              		.loc 1 165 0
 2967 1618 0C98     		ldr	r0, [sp, #48]
 2968 161a 8AEAD70A 		eor	r10, r10, r7, lsr #3
 164:25519/sha256.c ****     P( C, D, E, F, G, H, A, B, R(46), 0xF40E3585 );
 2969              		.loc 1 164 0
 2970 161e 5E44     		add	r6, r6, fp
 2971 1620 43EA010B 		orr	fp, r3, r1
 2972 1624 CDF82C90 		str	r9, [sp, #44]
 2973 1628 0BEA020B 		and	fp, fp, r2
 2974 162c 4FEAB519 		ror	r9, r5, #6
 2975              		.loc 1 165 0
 2976 1630 8244     		add	r10, r10, r0
 164:25519/sha256.c ****     P( C, D, E, F, G, H, A, B, R(46), 0xF40E3585 );
 2977              		.loc 1 164 0
 2978 1632 4FEAB307 		ror	r7, r3, #2
 2979 1636 03EA0100 		and	r0, r3, r1
 2980 163a 89EAF529 		eor	r9, r9, r5, ror #11
 2981 163e 87EA7337 		eor	r7, r7, r3, ror #13
 2982 1642 4BEA0000 		orr	r0, fp, r0
 2983              		.loc 1 165 0
 2984 1646 DDF860B0 		ldr	fp, [sp, #96]
 164:25519/sha256.c ****     P( C, D, E, F, G, H, A, B, R(46), 0xF40E3585 );
 2985              		.loc 1 164 0
 2986 164a 89EA7569 		eor	r9, r9, r5, ror #25
 2987 164e 87EAB357 		eor	r7, r7, r3, ror #22
 2988 1652 4E44     		add	r6, r6, r9
 2989              	.LVL180:
 2990 1654 3844     		add	r0, r0, r7
 2991              		.loc 1 165 0
 2992 1656 4FEA7B49 		ror	r9, fp, #17
 2993 165a 139F     		ldr	r7, [sp, #76]
 2994 165c 89EAFB49 		eor	r9, r9, fp, ror #19
 2995 1660 BA44     		add	r10, r10, r7
 2996 1662 89EA9B29 		eor	r9, r9, fp, lsr #10
 2997 1666 D144     		add	r9, r10, r9
 2998 1668 CDF83090 		str	r9, [sp, #48]
 164:25519/sha256.c ****     P( C, D, E, F, G, H, A, B, R(46), 0xF40E3585 );
 2999              		.loc 1 164 0
 3000 166c 3044     		add	r0, r0, r6
 3001 166e 3444     		add	r4, r4, r6
 3002              	.LVL181:
 3003              		.loc 1 165 0
 3004 1670 634F     		ldr	r7, .L20+20
 3005 1672 0C9E     		ldr	r6, [sp, #48]
 3006              	.LVL182:
 166:25519/sha256.c ****     P( A, B, C, D, E, F, G, H, R(48), 0x19A4C116 );
 3007              		.loc 1 166 0
 3008 1674 DDF82890 		ldr	r9, [sp, #40]
 165:25519/sha256.c ****     P( B, C, D, E, F, G, H, A, R(47), 0x106AA070 );
 3009              		.loc 1 165 0
 3010 1678 3744     		add	r7, r7, r6
 3011 167a 85EA0C0A 		eor	r10, r5, ip
 3012              		.loc 1 166 0
 3013 167e 4FEAF91B 		ror	fp, r9, #7
 165:25519/sha256.c ****     P( B, C, D, E, F, G, H, A, R(47), 0x106AA070 );
 3014              		.loc 1 165 0
 3015 1682 4744     		add	r7, r7, r8
 3016              		.loc 1 166 0
 3017 1684 DDF82880 		ldr	r8, [sp, #40]
 3018              	.LVL183:
 165:25519/sha256.c ****     P( B, C, D, E, F, G, H, A, R(47), 0x106AA070 );
 3019              		.loc 1 165 0
 3020 1688 04EA0A0A 		and	r10, r4, r10
 3021              		.loc 1 166 0
 3022 168c 8BEAB94B 		eor	fp, fp, r9, ror #18
 165:25519/sha256.c ****     P( B, C, D, E, F, G, H, A, R(47), 0x106AA070 );
 3023              		.loc 1 165 0
 3024 1690 8AEA0C0A 		eor	r10, r10, ip
 3025              		.loc 1 166 0
 3026 1694 8BEAD80B 		eor	fp, fp, r8, lsr #3
 3027 1698 DDF82480 		ldr	r8, [sp, #36]
 165:25519/sha256.c ****     P( B, C, D, E, F, G, H, A, R(47), 0x106AA070 );
 3028              		.loc 1 165 0
 3029 169c 5744     		add	r7, r7, r10
 3030 169e 40EA030A 		orr	r10, r0, r3
 3031 16a2 0AEA010A 		and	r10, r10, r1
 3032 16a6 00EA0306 		and	r6, r0, r3
 3033 16aa 4FEAB419 		ror	r9, r4, #6
 3034              		.loc 1 166 0
 3035 16ae D844     		add	r8, r8, fp
 165:25519/sha256.c ****     P( B, C, D, E, F, G, H, A, R(47), 0x106AA070 );
 3036              		.loc 1 165 0
 3037 16b0 4FEAB00B 		ror	fp, r0, #2
 3038 16b4 89EAF429 		eor	r9, r9, r4, ror #11
 3039 16b8 8BEA703B 		eor	fp, fp, r0, ror #13
 3040 16bc 4AEA0606 		orr	r6, r10, r6
 3041              		.loc 1 166 0
 3042 16c0 DDF82CA0 		ldr	r10, [sp, #44]
 165:25519/sha256.c ****     P( B, C, D, E, F, G, H, A, R(47), 0x106AA070 );
 3043              		.loc 1 165 0
 3044 16c4 8BEAB05B 		eor	fp, fp, r0, ror #22
 3045 16c8 89EA7469 		eor	r9, r9, r4, ror #25
 3046 16cc B944     		add	r9, r9, r7
 3047              	.LVL184:
 3048 16ce 5E44     		add	r6, r6, fp
 3049              		.loc 1 166 0
 3050 16d0 4FEA7A47 		ror	r7, r10, #17
 3051 16d4 DDF850B0 		ldr	fp, [sp, #80]
 3052 16d8 87EAFA47 		eor	r7, r7, r10, ror #19
 3053 16dc D844     		add	r8, r8, fp
 3054 16de 87EA9A2A 		eor	r10, r7, r10, lsr #10
 3055 16e2 C244     		add	r10, r8, r10
 3056 16e4 474F     		ldr	r7, .L20+24
 167:25519/sha256.c ****     P( H, A, B, C, D, E, F, G, R(49), 0x1E376C08 );
 3057              		.loc 1 167 0
 3058 16e6 DDF83480 		ldr	r8, [sp, #52]
 165:25519/sha256.c ****     P( B, C, D, E, F, G, H, A, R(47), 0x106AA070 );
 3059              		.loc 1 165 0
 3060 16ea 4A44     		add	r2, r2, r9
 3061              	.LVL185:
 3062 16ec 4E44     		add	r6, r6, r9
 3063              	.LVL186:
 166:25519/sha256.c ****     P( A, B, C, D, E, F, G, H, R(48), 0x19A4C116 );
 3064              		.loc 1 166 0
 3065 16ee 84EA0509 		eor	r9, r4, r5
 3066              	.LVL187:
 3067 16f2 CDF868A0 		str	r10, [sp, #104]
 3068              		.loc 1 167 0
 3069 16f6 4FEAF81B 		ror	fp, r8, #7
 166:25519/sha256.c ****     P( A, B, C, D, E, F, G, H, R(48), 0x19A4C116 );
 3070              		.loc 1 166 0
 3071 16fa 5744     		add	r7, r7, r10
 3072 16fc 02EA0909 		and	r9, r2, r9
 3073              		.loc 1 167 0
 3074 1700 DDF834A0 		ldr	r10, [sp, #52]
 166:25519/sha256.c ****     P( A, B, C, D, E, F, G, H, R(48), 0x19A4C116 );
 3075              		.loc 1 166 0
 3076 1704 89EA0509 		eor	r9, r9, r5
 3077              		.loc 1 167 0
 3078 1708 8BEAB84B 		eor	fp, fp, r8, ror #18
 166:25519/sha256.c ****     P( A, B, C, D, E, F, G, H, R(48), 0x19A4C116 );
 3079              		.loc 1 166 0
 3080 170c 6744     		add	r7, r7, ip
 3081              		.loc 1 167 0
 3082 170e DDF828C0 		ldr	ip, [sp, #40]
 3083              	.LVL188:
 166:25519/sha256.c ****     P( A, B, C, D, E, F, G, H, R(48), 0x19A4C116 );
 3084              		.loc 1 166 0
 3085 1712 4F44     		add	r7, r7, r9
 3086              		.loc 1 167 0
 3087 1714 8BEADA0B 		eor	fp, fp, r10, lsr #3
 166:25519/sha256.c ****     P( A, B, C, D, E, F, G, H, R(48), 0x19A4C116 );
 3088              		.loc 1 166 0
 3089 1718 46EA0009 		orr	r9, r6, r0
 3090 171c 09EA0309 		and	r9, r9, r3
 3091 1720 4FEAB218 		ror	r8, r2, #6
 3092              		.loc 1 167 0
 3093 1724 E344     		add	fp, fp, ip
 166:25519/sha256.c ****     P( A, B, C, D, E, F, G, H, R(48), 0x19A4C116 );
 3094              		.loc 1 166 0
 3095 1726 4FEAB60A 		ror	r10, r6, #2
 3096 172a 06EA000C 		and	ip, r6, r0
 3097 172e 88EAF228 		eor	r8, r8, r2, ror #11
 3098 1732 8AEA763A 		eor	r10, r10, r6, ror #13
 3099 1736 49EA0C0C 		orr	ip, r9, ip
 3100              		.loc 1 167 0
 3101 173a DDF83090 		ldr	r9, [sp, #48]
 166:25519/sha256.c ****     P( A, B, C, D, E, F, G, H, R(48), 0x19A4C116 );
 3102              		.loc 1 166 0
 3103 173e 8AEAB65A 		eor	r10, r10, r6, ror #22
 3104 1742 88EA7268 		eor	r8, r8, r2, ror #25
 3105 1746 B844     		add	r8, r8, r7
 3106              	.LVL189:
 3107 1748 D444     		add	ip, ip, r10
 3108              		.loc 1 167 0
 3109 174a 4FEA7947 		ror	r7, r9, #17
 3110 174e DDF854A0 		ldr	r10, [sp, #84]
 3111 1752 87EAF947 		eor	r7, r7, r9, ror #19
 3112 1756 87EA9929 		eor	r9, r7, r9, lsr #10
 3113 175a D344     		add	fp, fp, r10
 3114 175c 2A4F     		ldr	r7, .L20+28
 166:25519/sha256.c ****     P( A, B, C, D, E, F, G, H, R(48), 0x19A4C116 );
 3115              		.loc 1 166 0
 3116 175e C444     		add	ip, ip, r8
 3117 1760 4144     		add	r1, r1, r8
 3118              	.LVL190:
 3119              		.loc 1 167 0
 3120 1762 CB44     		add	fp, fp, r9
 168:25519/sha256.c ****     P( G, H, A, B, C, D, E, F, R(50), 0x2748774C );
 3121              		.loc 1 168 0
 3122 1764 DDF83880 		ldr	r8, [sp, #56]
 3123              	.LVL191:
 167:25519/sha256.c ****     P( H, A, B, C, D, E, F, G, R(49), 0x1E376C08 );
 3124              		.loc 1 167 0
 3125 1768 5F44     		add	r7, r7, fp
 3126              		.loc 1 168 0
 3127 176a 4FEAF81A 		ror	r10, r8, #7
 167:25519/sha256.c ****     P( H, A, B, C, D, E, F, G, R(49), 0x1E376C08 );
 3128              		.loc 1 167 0
 3129 176e 3D44     		add	r5, r5, r7
 3130              	.LVL192:
 3131              		.loc 1 168 0
 3132 1770 0E9F     		ldr	r7, [sp, #56]
 167:25519/sha256.c ****     P( H, A, B, C, D, E, F, G, R(49), 0x1E376C08 );
 3133              		.loc 1 167 0
 3134 1772 82EA0409 		eor	r9, r2, r4
 3135              		.loc 1 168 0
 3136 1776 8AEAB84A 		eor	r10, r10, r8, ror #18
 3137 177a 8AEAD70A 		eor	r10, r10, r7, lsr #3
 167:25519/sha256.c ****     P( H, A, B, C, D, E, F, G, R(49), 0x1E376C08 );
 3138              		.loc 1 167 0
 3139 177e 01EA0909 		and	r9, r1, r9
 3140              		.loc 1 168 0
 3141 1782 0D9F     		ldr	r7, [sp, #52]
 167:25519/sha256.c ****     P( H, A, B, C, D, E, F, G, R(49), 0x1E376C08 );
 3142              		.loc 1 167 0
 3143 1784 4FEAB118 		ror	r8, r1, #6
 3144 1788 89EA0409 		eor	r9, r9, r4
 3145 178c 88EAF128 		eor	r8, r8, r1, ror #11
 3146 1790 4D44     		add	r5, r5, r9
 3147              		.loc 1 168 0
 3148 1792 5744     		add	r7, r7, r10
 167:25519/sha256.c ****     P( H, A, B, C, D, E, F, G, R(49), 0x1E376C08 );
 3149              		.loc 1 167 0
 3150 1794 4CEA0609 		orr	r9, ip, r6
 3151              		.loc 1 168 0
 3152 1798 DDF868A0 		ldr	r10, [sp, #104]
 167:25519/sha256.c ****     P( H, A, B, C, D, E, F, G, R(49), 0x1E376C08 );
 3153              		.loc 1 167 0
 3154 179c 88EA7168 		eor	r8, r8, r1, ror #25
 3155              		.loc 1 168 0
 3156 17a0 0997     		str	r7, [sp, #36]
 167:25519/sha256.c ****     P( H, A, B, C, D, E, F, G, R(49), 0x1E376C08 );
 3157              		.loc 1 167 0
 3158 17a2 A844     		add	r8, r8, r5
 3159              	.LVL193:
 3160 17a4 09EA0009 		and	r9, r9, r0
 3161 17a8 0CEA0605 		and	r5, ip, r6
 3162 17ac 4FEABC07 		ror	r7, ip, #2
 3163 17b0 87EA7C37 		eor	r7, r7, ip, ror #13
 3164 17b4 49EA0505 		orr	r5, r9, r5
 3165              		.loc 1 168 0
 3166 17b8 4FEA7A49 		ror	r9, r10, #17
 167:25519/sha256.c ****     P( H, A, B, C, D, E, F, G, R(49), 0x1E376C08 );
 3167              		.loc 1 167 0
 3168 17bc 87EABC57 		eor	r7, r7, ip, ror #22
 3169              		.loc 1 168 0
 3170 17c0 89EAFA49 		eor	r9, r9, r10, ror #19
 167:25519/sha256.c ****     P( H, A, B, C, D, E, F, G, R(49), 0x1E376C08 );
 3171              		.loc 1 167 0
 3172 17c4 3D44     		add	r5, r5, r7
 3173              		.loc 1 168 0
 3174 17c6 89EA9A29 		eor	r9, r9, r10, lsr #10
 3175 17ca 169F     		ldr	r7, [sp, #88]
 3176 17cc DDF824A0 		ldr	r10, [sp, #36]
 167:25519/sha256.c ****     P( H, A, B, C, D, E, F, G, R(49), 0x1E376C08 );
 3177              		.loc 1 167 0
 3178 17d0 4544     		add	r5, r5, r8
 3179              		.loc 1 168 0
 3180 17d2 BA44     		add	r10, r10, r7
 3181 17d4 D144     		add	r9, r10, r9
 3182 17d6 CDF83490 		str	r9, [sp, #52]
 169:25519/sha256.c ****     P( F, G, H, A, B, C, D, E, R(51), 0x34B0BCB5 );
 3183              		.loc 1 169 0
 3184 17da DDF83C90 		ldr	r9, [sp, #60]
 168:25519/sha256.c ****     P( G, H, A, B, C, D, E, F, R(50), 0x2748774C );
 3185              		.loc 1 168 0
 3186 17de 0B4F     		ldr	r7, .L20+32
 3187              		.loc 1 169 0
 3188 17e0 4FEAF91A 		ror	r10, r9, #7
 168:25519/sha256.c ****     P( G, H, A, B, C, D, E, F, R(50), 0x2748774C );
 3189              		.loc 1 168 0
 3190 17e4 DDF83490 		ldr	r9, [sp, #52]
 3191 17e8 12E0     		b	.L21
 3192              	.L22:
 3193 17ea 00BF     		.align	2
 3194              	.L20:
 3195 17ec 708B4BC2 		.word	-1035236496
 3196 17f0 A3516CC7 		.word	-949202525
 3197 17f4 19E892D1 		.word	-778901479
 3198 17f8 240699D6 		.word	-694614492
 3199 17fc 85350EF4 		.word	-200395387
 3200 1800 70A06A10 		.word	275423344
 3201 1804 16C1A419 		.word	430227734
 3202 1808 086C371E 		.word	506948616
 3203 180c 4C774827 		.word	659060556
 3204              	.L21:
 167:25519/sha256.c ****     P( H, A, B, C, D, E, F, G, R(49), 0x1E376C08 );
 3205              		.loc 1 167 0
 3206 1810 4344     		add	r3, r3, r8
 3207              	.LVL194:
 168:25519/sha256.c ****     P( G, H, A, B, C, D, E, F, R(50), 0x2748774C );
 3208              		.loc 1 168 0
 3209 1812 4F44     		add	r7, r7, r9
 3210              		.loc 1 169 0
 3211 1814 DDF83C90 		ldr	r9, [sp, #60]
 168:25519/sha256.c ****     P( G, H, A, B, C, D, E, F, R(50), 0x2748774C );
 3212              		.loc 1 168 0
 3213 1818 3C44     		add	r4, r4, r7
 3214              	.LVL195:
 3215              		.loc 1 169 0
 3216 181a 0F9F     		ldr	r7, [sp, #60]
 168:25519/sha256.c ****     P( G, H, A, B, C, D, E, F, R(50), 0x2748774C );
 3217              		.loc 1 168 0
 3218 181c 81EA0208 		eor	r8, r1, r2
 3219              	.LVL196:
 3220              		.loc 1 169 0
 3221 1820 8AEAB94A 		eor	r10, r10, r9, ror #18
 168:25519/sha256.c ****     P( G, H, A, B, C, D, E, F, R(50), 0x2748774C );
 3222              		.loc 1 168 0
 3223 1824 03EA0808 		and	r8, r3, r8
 3224 1828 4FEAB319 		ror	r9, r3, #6
 3225              		.loc 1 169 0
 3226 182c 8AEAD70A 		eor	r10, r10, r7, lsr #3
 3227 1830 0E9F     		ldr	r7, [sp, #56]
 168:25519/sha256.c ****     P( G, H, A, B, C, D, E, F, R(50), 0x2748774C );
 3228              		.loc 1 168 0
 3229 1832 88EA0208 		eor	r8, r8, r2
 3230 1836 89EAF329 		eor	r9, r9, r3, ror #11
 3231 183a 89EA7369 		eor	r9, r9, r3, ror #25
 3232 183e 4444     		add	r4, r4, r8
 3233              		.loc 1 169 0
 3234 1840 BA44     		add	r10, r10, r7
 168:25519/sha256.c ****     P( G, H, A, B, C, D, E, F, R(50), 0x2748774C );
 3235              		.loc 1 168 0
 3236 1842 45EA0C08 		orr	r8, r5, ip
 3237 1846 4FEAB507 		ror	r7, r5, #2
 3238 184a 4C44     		add	r4, r4, r9
 3239              	.LVL197:
 3240 184c 08EA0608 		and	r8, r8, r6
 3241 1850 05EA0C09 		and	r9, r5, ip
 3242 1854 87EA7537 		eor	r7, r7, r5, ror #13
 3243 1858 87EAB557 		eor	r7, r7, r5, ror #22
 3244 185c 48EA0908 		orr	r8, r8, r9
 3245 1860 B844     		add	r8, r8, r7
 3246              		.loc 1 169 0
 3247 1862 4FEA7B49 		ror	r9, fp, #17
 3248 1866 179F     		ldr	r7, [sp, #92]
 3249 1868 89EAFB49 		eor	r9, r9, fp, ror #19
 3250 186c BA44     		add	r10, r10, r7
 3251 186e 89EA9B29 		eor	r9, r9, fp, lsr #10
 3252 1872 D144     		add	r9, r10, r9
 3253 1874 CDF83890 		str	r9, [sp, #56]
 170:25519/sha256.c ****     P( E, F, G, H, A, B, C, D, R(52), 0x391C0CB3 );
 3254              		.loc 1 170 0
 3255 1878 DDF84090 		ldr	r9, [sp, #64]
 169:25519/sha256.c ****     P( F, G, H, A, B, C, D, E, R(51), 0x34B0BCB5 );
 3256              		.loc 1 169 0
 3257 187c E84F     		ldr	r7, .L23
 3258              		.loc 1 170 0
 3259 187e 4FEAF91A 		ror	r10, r9, #7
 169:25519/sha256.c ****     P( F, G, H, A, B, C, D, E, R(51), 0x34B0BCB5 );
 3260              		.loc 1 169 0
 3261 1882 DDF83890 		ldr	r9, [sp, #56]
 168:25519/sha256.c ****     P( G, H, A, B, C, D, E, F, R(50), 0x2748774C );
 3262              		.loc 1 168 0
 3263 1886 A044     		add	r8, r8, r4
 3264 1888 2044     		add	r0, r0, r4
 3265              	.LVL198:
 169:25519/sha256.c ****     P( F, G, H, A, B, C, D, E, R(51), 0x34B0BCB5 );
 3266              		.loc 1 169 0
 3267 188a 83EA0104 		eor	r4, r3, r1
 3268              	.LVL199:
 3269 188e 4F44     		add	r7, r7, r9
 3270 1890 0440     		ands	r4, r4, r0
 3271              		.loc 1 170 0
 3272 1892 DDF84090 		ldr	r9, [sp, #64]
 169:25519/sha256.c ****     P( F, G, H, A, B, C, D, E, R(51), 0x34B0BCB5 );
 3273              		.loc 1 169 0
 3274 1896 4C40     		eors	r4, r4, r1
 3275 1898 1744     		add	r7, r7, r2
 3276              		.loc 1 170 0
 3277 189a 109A     		ldr	r2, [sp, #64]
 3278              	.LVL200:
 3279 189c 8AEAB94A 		eor	r10, r10, r9, ror #18
 169:25519/sha256.c ****     P( F, G, H, A, B, C, D, E, R(51), 0x34B0BCB5 );
 3280              		.loc 1 169 0
 3281 18a0 2744     		add	r7, r7, r4
 3282 18a2 4FEAB019 		ror	r9, r0, #6
 3283              		.loc 1 170 0
 3284 18a6 0F9C     		ldr	r4, [sp, #60]
 3285 18a8 8AEAD20A 		eor	r10, r10, r2, lsr #3
 169:25519/sha256.c ****     P( F, G, H, A, B, C, D, E, R(51), 0x34B0BCB5 );
 3286              		.loc 1 169 0
 3287 18ac 89EAF029 		eor	r9, r9, r0, ror #11
 3288 18b0 48EA0502 		orr	r2, r8, r5
 3289 18b4 89EA7069 		eor	r9, r9, r0, ror #25
 3290              		.loc 1 170 0
 3291 18b8 5444     		add	r4, r4, r10
 3292 18ba DDF834A0 		ldr	r10, [sp, #52]
 3293 18be 0994     		str	r4, [sp, #36]
 169:25519/sha256.c ****     P( F, G, H, A, B, C, D, E, R(51), 0x34B0BCB5 );
 3294              		.loc 1 169 0
 3295 18c0 4F44     		add	r7, r7, r9
 3296              	.LVL201:
 3297 18c2 02EA0C02 		and	r2, r2, ip
 3298 18c6 08EA0509 		and	r9, r8, r5
 3299 18ca 4FEAB804 		ror	r4, r8, #2
 3300 18ce 84EA7834 		eor	r4, r4, r8, ror #13
 3301 18d2 42EA0902 		orr	r2, r2, r9
 3302              		.loc 1 170 0
 3303 18d6 4FEA7A49 		ror	r9, r10, #17
 169:25519/sha256.c ****     P( F, G, H, A, B, C, D, E, R(51), 0x34B0BCB5 );
 3304              		.loc 1 169 0
 3305 18da 84EAB854 		eor	r4, r4, r8, ror #22
 3306              		.loc 1 170 0
 3307 18de 89EAFA49 		eor	r9, r9, r10, ror #19
 169:25519/sha256.c ****     P( F, G, H, A, B, C, D, E, R(51), 0x34B0BCB5 );
 3308              		.loc 1 169 0
 3309 18e2 2244     		add	r2, r2, r4
 3310              		.loc 1 170 0
 3311 18e4 89EA9A29 		eor	r9, r9, r10, lsr #10
 3312 18e8 189C     		ldr	r4, [sp, #96]
 3313 18ea DDF824A0 		ldr	r10, [sp, #36]
 169:25519/sha256.c ****     P( F, G, H, A, B, C, D, E, R(51), 0x34B0BCB5 );
 3314              		.loc 1 169 0
 3315 18ee 3A44     		add	r2, r2, r7
 3316              		.loc 1 170 0
 3317 18f0 A244     		add	r10, r10, r4
 3318 18f2 D144     		add	r9, r10, r9
 3319 18f4 CDF83C90 		str	r9, [sp, #60]
 171:25519/sha256.c ****     P( D, E, F, G, H, A, B, C, R(53), 0x4ED8AA4A );
 3320              		.loc 1 171 0
 3321 18f8 DDF84490 		ldr	r9, [sp, #68]
 170:25519/sha256.c ****     P( E, F, G, H, A, B, C, D, R(52), 0x391C0CB3 );
 3322              		.loc 1 170 0
 3323 18fc C94C     		ldr	r4, .L23+4
 3324              		.loc 1 171 0
 3325 18fe 4FEAF91A 		ror	r10, r9, #7
 170:25519/sha256.c ****     P( E, F, G, H, A, B, C, D, R(52), 0x391C0CB3 );
 3326              		.loc 1 170 0
 3327 1902 DDF83C90 		ldr	r9, [sp, #60]
 169:25519/sha256.c ****     P( F, G, H, A, B, C, D, E, R(51), 0x34B0BCB5 );
 3328              		.loc 1 169 0
 3329 1906 3E44     		add	r6, r6, r7
 3330              	.LVL202:
 170:25519/sha256.c ****     P( E, F, G, H, A, B, C, D, R(52), 0x391C0CB3 );
 3331              		.loc 1 170 0
 3332 1908 4C44     		add	r4, r4, r9
 3333              		.loc 1 171 0
 3334 190a DDF84490 		ldr	r9, [sp, #68]
 170:25519/sha256.c ****     P( E, F, G, H, A, B, C, D, R(52), 0x391C0CB3 );
 3335              		.loc 1 170 0
 3336 190e 2144     		add	r1, r1, r4
 3337              	.LVL203:
 3338              		.loc 1 171 0
 3339 1910 119C     		ldr	r4, [sp, #68]
 170:25519/sha256.c ****     P( E, F, G, H, A, B, C, D, R(52), 0x391C0CB3 );
 3340              		.loc 1 170 0
 3341 1912 80EA0307 		eor	r7, r0, r3
 3342              	.LVL204:
 3343              		.loc 1 171 0
 3344 1916 8AEAB94A 		eor	r10, r10, r9, ror #18
 3345 191a 8AEAD40A 		eor	r10, r10, r4, lsr #3
 170:25519/sha256.c ****     P( E, F, G, H, A, B, C, D, R(52), 0x391C0CB3 );
 3346              		.loc 1 170 0
 3347 191e 3740     		ands	r7, r7, r6
 3348              		.loc 1 171 0
 3349 1920 109C     		ldr	r4, [sp, #64]
 170:25519/sha256.c ****     P( E, F, G, H, A, B, C, D, R(52), 0x391C0CB3 );
 3350              		.loc 1 170 0
 3351 1922 4FEAB619 		ror	r9, r6, #6
 3352 1926 5F40     		eors	r7, r7, r3
 3353 1928 89EAF629 		eor	r9, r9, r6, ror #11
 3354 192c 89EA7669 		eor	r9, r9, r6, ror #25
 3355              		.loc 1 171 0
 3356 1930 5444     		add	r4, r4, r10
 170:25519/sha256.c ****     P( E, F, G, H, A, B, C, D, R(52), 0x391C0CB3 );
 3357              		.loc 1 170 0
 3358 1932 0F44     		add	r7, r7, r1
 3359              		.loc 1 171 0
 3360 1934 DDF838A0 		ldr	r10, [sp, #56]
 170:25519/sha256.c ****     P( E, F, G, H, A, B, C, D, R(52), 0x391C0CB3 );
 3361              		.loc 1 170 0
 3362 1938 42EA0801 		orr	r1, r2, r8
 3363              		.loc 1 171 0
 3364 193c 0994     		str	r4, [sp, #36]
 170:25519/sha256.c ****     P( E, F, G, H, A, B, C, D, R(52), 0x391C0CB3 );
 3365              		.loc 1 170 0
 3366 193e 4F44     		add	r7, r7, r9
 3367              	.LVL205:
 3368 1940 2940     		ands	r1, r1, r5
 3369 1942 02EA0809 		and	r9, r2, r8
 3370 1946 4FEAB204 		ror	r4, r2, #2
 3371 194a 84EA7234 		eor	r4, r4, r2, ror #13
 3372 194e 41EA0901 		orr	r1, r1, r9
 3373              		.loc 1 171 0
 3374 1952 4FEA7A49 		ror	r9, r10, #17
 170:25519/sha256.c ****     P( E, F, G, H, A, B, C, D, R(52), 0x391C0CB3 );
 3375              		.loc 1 170 0
 3376 1956 84EAB254 		eor	r4, r4, r2, ror #22
 3377              		.loc 1 171 0
 3378 195a 89EAFA49 		eor	r9, r9, r10, ror #19
 170:25519/sha256.c ****     P( E, F, G, H, A, B, C, D, R(52), 0x391C0CB3 );
 3379              		.loc 1 170 0
 3380 195e 2144     		add	r1, r1, r4
 3381              		.loc 1 171 0
 3382 1960 89EA9A29 		eor	r9, r9, r10, lsr #10
 3383 1964 0B9C     		ldr	r4, [sp, #44]
 3384 1966 DDF824A0 		ldr	r10, [sp, #36]
 170:25519/sha256.c ****     P( E, F, G, H, A, B, C, D, R(52), 0x391C0CB3 );
 3385              		.loc 1 170 0
 3386 196a 3944     		add	r1, r1, r7
 3387              		.loc 1 171 0
 3388 196c A244     		add	r10, r10, r4
 3389 196e D144     		add	r9, r10, r9
 3390 1970 CDF84090 		str	r9, [sp, #64]
 172:25519/sha256.c ****     P( C, D, E, F, G, H, A, B, R(54), 0x5B9CCA4F );
 3391              		.loc 1 172 0
 3392 1974 DDF84890 		ldr	r9, [sp, #72]
 171:25519/sha256.c ****     P( D, E, F, G, H, A, B, C, R(53), 0x4ED8AA4A );
 3393              		.loc 1 171 0
 3394 1978 AB4C     		ldr	r4, .L23+8
 3395              		.loc 1 172 0
 3396 197a 4FEAF91A 		ror	r10, r9, #7
 171:25519/sha256.c ****     P( D, E, F, G, H, A, B, C, R(53), 0x4ED8AA4A );
 3397              		.loc 1 171 0
 3398 197e DDF84090 		ldr	r9, [sp, #64]
 170:25519/sha256.c ****     P( E, F, G, H, A, B, C, D, R(52), 0x391C0CB3 );
 3399              		.loc 1 170 0
 3400 1982 BC44     		add	ip, ip, r7
 3401              	.LVL206:
 171:25519/sha256.c ****     P( D, E, F, G, H, A, B, C, R(53), 0x4ED8AA4A );
 3402              		.loc 1 171 0
 3403 1984 86EA0007 		eor	r7, r6, r0
 3404              	.LVL207:
 3405 1988 4C44     		add	r4, r4, r9
 3406 198a 0CEA0707 		and	r7, ip, r7
 3407              		.loc 1 172 0
 3408 198e DDF84890 		ldr	r9, [sp, #72]
 171:25519/sha256.c ****     P( D, E, F, G, H, A, B, C, R(53), 0x4ED8AA4A );
 3409              		.loc 1 171 0
 3410 1992 4740     		eors	r7, r7, r0
 3411 1994 2344     		add	r3, r3, r4
 3412              	.LVL208:
 3413              		.loc 1 172 0
 3414 1996 129C     		ldr	r4, [sp, #72]
 3415 1998 8AEAB94A 		eor	r10, r10, r9, ror #18
 171:25519/sha256.c ****     P( D, E, F, G, H, A, B, C, R(53), 0x4ED8AA4A );
 3416              		.loc 1 171 0
 3417 199c 3B44     		add	r3, r3, r7
 3418 199e 4FEABC19 		ror	r9, ip, #6
 3419              		.loc 1 172 0
 3420 19a2 119F     		ldr	r7, [sp, #68]
 3421 19a4 8AEAD40A 		eor	r10, r10, r4, lsr #3
 171:25519/sha256.c ****     P( D, E, F, G, H, A, B, C, R(53), 0x4ED8AA4A );
 3422              		.loc 1 171 0
 3423 19a8 89EAFC29 		eor	r9, r9, ip, ror #11
 3424 19ac 41EA0204 		orr	r4, r1, r2
 3425 19b0 89EA7C69 		eor	r9, r9, ip, ror #25
 3426              		.loc 1 172 0
 3427 19b4 5744     		add	r7, r7, r10
 3428 19b6 DDF83CA0 		ldr	r10, [sp, #60]
 3429 19ba 0997     		str	r7, [sp, #36]
 171:25519/sha256.c ****     P( D, E, F, G, H, A, B, C, R(53), 0x4ED8AA4A );
 3430              		.loc 1 171 0
 3431 19bc 4B44     		add	r3, r3, r9
 3432              	.LVL209:
 3433 19be 04EA0804 		and	r4, r4, r8
 3434 19c2 01EA0209 		and	r9, r1, r2
 3435 19c6 4FEAB107 		ror	r7, r1, #2
 3436 19ca 87EA7137 		eor	r7, r7, r1, ror #13
 3437 19ce 44EA0904 		orr	r4, r4, r9
 3438              		.loc 1 172 0
 3439 19d2 4FEA7A49 		ror	r9, r10, #17
 171:25519/sha256.c ****     P( D, E, F, G, H, A, B, C, R(53), 0x4ED8AA4A );
 3440              		.loc 1 171 0
 3441 19d6 87EAB157 		eor	r7, r7, r1, ror #22
 3442              		.loc 1 172 0
 3443 19da 89EAFA49 		eor	r9, r9, r10, ror #19
 171:25519/sha256.c ****     P( D, E, F, G, H, A, B, C, R(53), 0x4ED8AA4A );
 3444              		.loc 1 171 0
 3445 19de 3C44     		add	r4, r4, r7
 3446              		.loc 1 172 0
 3447 19e0 89EA9A29 		eor	r9, r9, r10, lsr #10
 3448 19e4 0C9F     		ldr	r7, [sp, #48]
 3449 19e6 DDF824A0 		ldr	r10, [sp, #36]
 171:25519/sha256.c ****     P( D, E, F, G, H, A, B, C, R(53), 0x4ED8AA4A );
 3450              		.loc 1 171 0
 3451 19ea 1C44     		add	r4, r4, r3
 3452              		.loc 1 172 0
 3453 19ec BA44     		add	r10, r10, r7
 3454 19ee D144     		add	r9, r10, r9
 3455 19f0 CDF84490 		str	r9, [sp, #68]
 171:25519/sha256.c ****     P( D, E, F, G, H, A, B, C, R(53), 0x4ED8AA4A );
 3456              		.loc 1 171 0
 3457 19f4 1D44     		add	r5, r5, r3
 3458              	.LVL210:
 173:25519/sha256.c ****     P( B, C, D, E, F, G, H, A, R(55), 0x682E6FF3 );
 3459              		.loc 1 173 0
 3460 19f6 139B     		ldr	r3, [sp, #76]
 3461              	.LVL211:
 172:25519/sha256.c ****     P( C, D, E, F, G, H, A, B, R(54), 0x5B9CCA4F );
 3462              		.loc 1 172 0
 3463 19f8 8C4F     		ldr	r7, .L23+12
 3464              		.loc 1 173 0
 3465 19fa 4FEAF319 		ror	r9, r3, #7
 172:25519/sha256.c ****     P( C, D, E, F, G, H, A, B, R(54), 0x5B9CCA4F );
 3466              		.loc 1 172 0
 3467 19fe 119B     		ldr	r3, [sp, #68]
 3468 1a00 8CEA060A 		eor	r10, ip, r6
 3469 1a04 1F44     		add	r7, r7, r3
 3470              		.loc 1 173 0
 3471 1a06 139B     		ldr	r3, [sp, #76]
 172:25519/sha256.c ****     P( C, D, E, F, G, H, A, B, R(54), 0x5B9CCA4F );
 3472              		.loc 1 172 0
 3473 1a08 3844     		add	r0, r0, r7
 3474              	.LVL212:
 3475              		.loc 1 173 0
 3476 1a0a 89EAB349 		eor	r9, r9, r3, ror #18
 3477 1a0e 139F     		ldr	r7, [sp, #76]
 172:25519/sha256.c ****     P( C, D, E, F, G, H, A, B, R(54), 0x5B9CCA4F );
 3478              		.loc 1 172 0
 3479 1a10 4FEAB513 		ror	r3, r5, #6
 3480 1a14 83EAF523 		eor	r3, r3, r5, ror #11
 3481              		.loc 1 173 0
 3482 1a18 89EAD709 		eor	r9, r9, r7, lsr #3
 172:25519/sha256.c ****     P( C, D, E, F, G, H, A, B, R(54), 0x5B9CCA4F );
 3483              		.loc 1 172 0
 3484 1a1c 05EA0A0A 		and	r10, r5, r10
 3485 1a20 83EA7567 		eor	r7, r3, r5, ror #25
 3486              		.loc 1 173 0
 3487 1a24 129B     		ldr	r3, [sp, #72]
 172:25519/sha256.c ****     P( C, D, E, F, G, H, A, B, R(54), 0x5B9CCA4F );
 3488              		.loc 1 172 0
 3489 1a26 8AEA060A 		eor	r10, r10, r6
 3490              		.loc 1 173 0
 3491 1a2a 4B44     		add	r3, r3, r9
 172:25519/sha256.c ****     P( C, D, E, F, G, H, A, B, R(54), 0x5B9CCA4F );
 3492              		.loc 1 172 0
 3493 1a2c 5044     		add	r0, r0, r10
 3494              		.loc 1 173 0
 3495 1a2e DDF84090 		ldr	r9, [sp, #64]
 172:25519/sha256.c ****     P( C, D, E, F, G, H, A, B, R(54), 0x5B9CCA4F );
 3496              		.loc 1 172 0
 3497 1a32 44EA010A 		orr	r10, r4, r1
 3498              		.loc 1 173 0
 3499 1a36 0993     		str	r3, [sp, #36]
 172:25519/sha256.c ****     P( C, D, E, F, G, H, A, B, R(54), 0x5B9CCA4F );
 3500              		.loc 1 172 0
 3501 1a38 3844     		add	r0, r0, r7
 3502              	.LVL213:
 3503 1a3a 0AEA020A 		and	r10, r10, r2
 3504 1a3e 04EA0107 		and	r7, r4, r1
 3505 1a42 4FEAB403 		ror	r3, r4, #2
 3506 1a46 83EA7433 		eor	r3, r3, r4, ror #13
 3507 1a4a 4AEA070A 		orr	r10, r10, r7
 3508              		.loc 1 173 0
 3509 1a4e 4FEA7947 		ror	r7, r9, #17
 172:25519/sha256.c ****     P( C, D, E, F, G, H, A, B, R(54), 0x5B9CCA4F );
 3510              		.loc 1 172 0
 3511 1a52 83EAB453 		eor	r3, r3, r4, ror #22
 3512              		.loc 1 173 0
 3513 1a56 87EAF947 		eor	r7, r7, r9, ror #19
 172:25519/sha256.c ****     P( C, D, E, F, G, H, A, B, R(54), 0x5B9CCA4F );
 3514              		.loc 1 172 0
 3515 1a5a 9A44     		add	r10, r10, r3
 3516              		.loc 1 173 0
 3517 1a5c 87EA9927 		eor	r7, r7, r9, lsr #10
 3518 1a60 1A9B     		ldr	r3, [sp, #104]
 3519 1a62 DDF82490 		ldr	r9, [sp, #36]
 172:25519/sha256.c ****     P( C, D, E, F, G, H, A, B, R(54), 0x5B9CCA4F );
 3520              		.loc 1 172 0
 3521 1a66 8244     		add	r10, r10, r0
 3522              		.loc 1 173 0
 3523 1a68 9944     		add	r9, r9, r3
 3524 1a6a 4F44     		add	r7, r9, r7
 172:25519/sha256.c ****     P( C, D, E, F, G, H, A, B, R(54), 0x5B9CCA4F );
 3525              		.loc 1 172 0
 3526 1a6c CDF824A0 		str	r10, [sp, #36]
 3527              		.loc 1 173 0
 3528 1a70 1297     		str	r7, [sp, #72]
 174:25519/sha256.c ****     P( A, B, C, D, E, F, G, H, R(56), 0x748F82EE );
 3529              		.loc 1 174 0
 3530 1a72 DDF850A0 		ldr	r10, [sp, #80]
 172:25519/sha256.c ****     P( C, D, E, F, G, H, A, B, R(54), 0x5B9CCA4F );
 3531              		.loc 1 172 0
 3532 1a76 8044     		add	r8, r8, r0
 3533              	.LVL214:
 173:25519/sha256.c ****     P( B, C, D, E, F, G, H, A, R(55), 0x682E6FF3 );
 3534              		.loc 1 173 0
 3535 1a78 6D4B     		ldr	r3, .L23+16
 3536 1a7a 1298     		ldr	r0, [sp, #72]
 3537              	.LVL215:
 3538              		.loc 1 174 0
 3539 1a7c 4FEAFA17 		ror	r7, r10, #7
 173:25519/sha256.c ****     P( B, C, D, E, F, G, H, A, R(55), 0x682E6FF3 );
 3540              		.loc 1 173 0
 3541 1a80 0344     		add	r3, r3, r0
 3542              		.loc 1 174 0
 3543 1a82 87EABA47 		eor	r7, r7, r10, ror #18
 173:25519/sha256.c ****     P( B, C, D, E, F, G, H, A, R(55), 0x682E6FF3 );
 3544              		.loc 1 173 0
 3545 1a86 85EA0C09 		eor	r9, r5, ip
 3546 1a8a 1E44     		add	r6, r6, r3
 3547              	.LVL216:
 3548              		.loc 1 174 0
 3549 1a8c 87EADA07 		eor	r7, r7, r10, lsr #3
 173:25519/sha256.c ****     P( B, C, D, E, F, G, H, A, R(55), 0x682E6FF3 );
 3550              		.loc 1 173 0
 3551 1a90 099B     		ldr	r3, [sp, #36]
 3552              		.loc 1 174 0
 3553 1a92 DDF84CA0 		ldr	r10, [sp, #76]
 173:25519/sha256.c ****     P( B, C, D, E, F, G, H, A, R(55), 0x682E6FF3 );
 3554              		.loc 1 173 0
 3555 1a96 08EA0909 		and	r9, r8, r9
 3556 1a9a 89EA0C09 		eor	r9, r9, ip
 3557              		.loc 1 174 0
 3558 1a9e 5744     		add	r7, r7, r10
 173:25519/sha256.c ****     P( B, C, D, E, F, G, H, A, R(55), 0x682E6FF3 );
 3559              		.loc 1 173 0
 3560 1aa0 4FEAB30A 		ror	r10, r3, #2
 3561 1aa4 4E44     		add	r6, r6, r9
 3562 1aa6 8AEA733A 		eor	r10, r10, r3, ror #13
 3563 1aaa 43EA0409 		orr	r9, r3, r4
 3564 1aae 8AEAB35A 		eor	r10, r10, r3, ror #22
 3565 1ab2 4FEAB810 		ror	r0, r8, #6
 3566 1ab6 2340     		ands	r3, r3, r4
 3567 1ab8 09EA0109 		and	r9, r9, r1
 3568 1abc 80EAF820 		eor	r0, r0, r8, ror #11
 3569 1ac0 49EA0309 		orr	r9, r9, r3
 3570              		.loc 1 174 0
 3571 1ac4 119B     		ldr	r3, [sp, #68]
 173:25519/sha256.c ****     P( B, C, D, E, F, G, H, A, R(55), 0x682E6FF3 );
 3572              		.loc 1 173 0
 3573 1ac6 80EA7860 		eor	r0, r0, r8, ror #25
 3574 1aca 0644     		add	r6, r6, r0
 3575              	.LVL217:
 3576              		.loc 1 174 0
 3577 1acc 4FEA7340 		ror	r0, r3, #17
 3578 1ad0 80EAF340 		eor	r0, r0, r3, ror #19
 173:25519/sha256.c ****     P( B, C, D, E, F, G, H, A, R(55), 0x682E6FF3 );
 3579              		.loc 1 173 0
 3580 1ad4 D144     		add	r9, r9, r10
 3581              		.loc 1 174 0
 3582 1ad6 5F44     		add	r7, r7, fp
 173:25519/sha256.c ****     P( B, C, D, E, F, G, H, A, R(55), 0x682E6FF3 );
 3583              		.loc 1 173 0
 3584 1ad8 B144     		add	r9, r9, r6
 3585              		.loc 1 174 0
 3586 1ada 80EA9320 		eor	r0, r0, r3, lsr #10
 3587 1ade 554B     		ldr	r3, .L23+20
 173:25519/sha256.c ****     P( B, C, D, E, F, G, H, A, R(55), 0x682E6FF3 );
 3588              		.loc 1 173 0
 3589 1ae0 3244     		add	r2, r2, r6
 3590              	.LVL218:
 3591 1ae2 CDF82890 		str	r9, [sp, #40]
 3592              	.LVL219:
 3593              		.loc 1 174 0
 3594 1ae6 3818     		adds	r0, r7, r0
 3595 1ae8 88EA0506 		eor	r6, r8, r5
 3596              	.LVL220:
 3597 1aec DDF828A0 		ldr	r10, [sp, #40]
 3598 1af0 0344     		add	r3, r3, r0
 3599 1af2 1640     		ands	r6, r6, r2
 175:25519/sha256.c ****     P( H, A, B, C, D, E, F, G, R(57), 0x78A5636F );
 3600              		.loc 1 175 0
 3601 1af4 DDF85490 		ldr	r9, [sp, #84]
 3602              	.LVL221:
 174:25519/sha256.c ****     P( A, B, C, D, E, F, G, H, R(56), 0x748F82EE );
 3603              		.loc 1 174 0
 3604 1af8 6E40     		eors	r6, r6, r5
 3605 1afa 9C44     		add	ip, ip, r3
 3606              	.LVL222:
 3607 1afc DDF824B0 		ldr	fp, [sp, #36]
 3608 1b00 B444     		add	ip, ip, r6
 3609 1b02 4FEABA06 		ror	r6, r10, #2
 3610 1b06 1390     		str	r0, [sp, #76]
 3611              		.loc 1 175 0
 3612 1b08 4FEAF917 		ror	r7, r9, #7
 3613 1b0c 1598     		ldr	r0, [sp, #84]
 174:25519/sha256.c ****     P( A, B, C, D, E, F, G, H, R(56), 0x748F82EE );
 3614              		.loc 1 174 0
 3615 1b0e 86EA7A36 		eor	r6, r6, r10, ror #13
 3616 1b12 4AEA0B03 		orr	r3, r10, fp
 3617 1b16 86EABA56 		eor	r6, r6, r10, ror #22
 3618              		.loc 1 175 0
 3619 1b1a 87EAB947 		eor	r7, r7, r9, ror #18
 3620 1b1e DDF850A0 		ldr	r10, [sp, #80]
 3621              	.LVL223:
 3622 1b22 87EAD007 		eor	r7, r7, r0, lsr #3
 3623 1b26 5744     		add	r7, r7, r10
 174:25519/sha256.c ****     P( A, B, C, D, E, F, G, H, R(56), 0x748F82EE );
 3624              		.loc 1 174 0
 3625 1b28 DDF828A0 		ldr	r10, [sp, #40]
 3626 1b2c 4FEAB219 		ror	r9, r2, #6
 3627 1b30 2340     		ands	r3, r3, r4
 3628 1b32 0AEA0B00 		and	r0, r10, fp
 3629 1b36 89EAF229 		eor	r9, r9, r2, ror #11
 3630              		.loc 1 175 0
 3631 1b3a DDF848B0 		ldr	fp, [sp, #72]
 174:25519/sha256.c ****     P( A, B, C, D, E, F, G, H, R(56), 0x748F82EE );
 3632              		.loc 1 174 0
 3633 1b3e 89EA7269 		eor	r9, r9, r2, ror #25
 3634 1b42 1843     		orrs	r0, r0, r3
 3635 1b44 CC44     		add	ip, ip, r9
 3636              	.LVL224:
 3637 1b46 3044     		add	r0, r0, r6
 3638 1b48 6044     		add	r0, r0, ip
 3639              		.loc 1 175 0
 3640 1b4a 0D9E     		ldr	r6, [sp, #52]
 3641 1b4c 4FEA7B43 		ror	r3, fp, #17
 174:25519/sha256.c ****     P( A, B, C, D, E, F, G, H, R(56), 0x748F82EE );
 3642              		.loc 1 174 0
 3643 1b50 0D90     		str	r0, [sp, #52]
 176:25519/sha256.c ****     P( G, H, A, B, C, D, E, F, R(58), 0x84C87814 );
 3644              		.loc 1 176 0
 3645 1b52 DDF858A0 		ldr	r10, [sp, #88]
 175:25519/sha256.c ****     P( H, A, B, C, D, E, F, G, R(57), 0x78A5636F );
 3646              		.loc 1 175 0
 3647 1b56 83EAFB43 		eor	r3, r3, fp, ror #19
 174:25519/sha256.c ****     P( A, B, C, D, E, F, G, H, R(56), 0x748F82EE );
 3648              		.loc 1 174 0
 3649 1b5a 6144     		add	r1, r1, ip
 3650              	.LVL225:
 175:25519/sha256.c ****     P( H, A, B, C, D, E, F, G, R(57), 0x78A5636F );
 3651              		.loc 1 175 0
 3652 1b5c 83EA9B23 		eor	r3, r3, fp, lsr #10
 3653 1b60 DDF828C0 		ldr	ip, [sp, #40]
 3654              	.LVL226:
 3655 1b64 DDF834B0 		ldr	fp, [sp, #52]
 3656 1b68 3744     		add	r7, r7, r6
 3657 1b6a 1F44     		add	r7, r7, r3
 3658 1b6c 324E     		ldr	r6, .L23+24
 3659              		.loc 1 176 0
 3660 1b6e 4FEAFA13 		ror	r3, r10, #7
 175:25519/sha256.c ****     P( H, A, B, C, D, E, F, G, R(57), 0x78A5636F );
 3661              		.loc 1 175 0
 3662 1b72 82EA0809 		eor	r9, r2, r8
 3663              		.loc 1 176 0
 3664 1b76 83EABA43 		eor	r3, r3, r10, ror #18
 175:25519/sha256.c ****     P( H, A, B, C, D, E, F, G, R(57), 0x78A5636F );
 3665              		.loc 1 175 0
 3666 1b7a 4BEA0C0A 		orr	r10, fp, ip
 3667 1b7e 4FEABB0C 		ror	ip, fp, #2
 3668 1b82 3E44     		add	r6, r6, r7
 3669 1b84 01EA0909 		and	r9, r1, r9
 3670 1b88 8CEA7B3C 		eor	ip, ip, fp, ror #13
 3671              		.loc 1 176 0
 3672 1b8c DDF858B0 		ldr	fp, [sp, #88]
 175:25519/sha256.c ****     P( H, A, B, C, D, E, F, G, R(57), 0x78A5636F );
 3673              		.loc 1 175 0
 3674 1b90 89EA0809 		eor	r9, r9, r8
 3675 1b94 3544     		add	r5, r5, r6
 3676              	.LVL227:
 3677 1b96 4D44     		add	r5, r5, r9
 3678 1b98 099E     		ldr	r6, [sp, #36]
 3679 1b9a DDF83490 		ldr	r9, [sp, #52]
 3680              		.loc 1 176 0
 3681 1b9e 83EADB03 		eor	r3, r3, fp, lsr #3
 175:25519/sha256.c ****     P( H, A, B, C, D, E, F, G, R(57), 0x78A5636F );
 3682              		.loc 1 175 0
 3683 1ba2 DDF828B0 		ldr	fp, [sp, #40]
 3684 1ba6 0AEA060A 		and	r10, r10, r6
 3685 1baa 09EA0B06 		and	r6, r9, fp
 3686              		.loc 1 176 0
 3687 1bae DDF84C90 		ldr	r9, [sp, #76]
 175:25519/sha256.c ****     P( H, A, B, C, D, E, F, G, R(57), 0x78A5636F );
 3688              		.loc 1 175 0
 3689 1bb2 DDF834B0 		ldr	fp, [sp, #52]
 3690 1bb6 4FEAB110 		ror	r0, r1, #6
 3691              	.LVL228:
 3692 1bba 8CEABB5C 		eor	ip, ip, fp, ror #22
 3693 1bbe 80EAF120 		eor	r0, r0, r1, ror #11
 3694              		.loc 1 176 0
 3695 1bc2 DDF84CB0 		ldr	fp, [sp, #76]
 3696              	.LVL229:
 175:25519/sha256.c ****     P( H, A, B, C, D, E, F, G, R(57), 0x78A5636F );
 3697              		.loc 1 175 0
 3698 1bc6 4AEA060A 		orr	r10, r10, r6
 3699              		.loc 1 176 0
 3700 1bca 4FEA7946 		ror	r6, r9, #17
 3701 1bce DDF85490 		ldr	r9, [sp, #84]
 175:25519/sha256.c ****     P( H, A, B, C, D, E, F, G, R(57), 0x78A5636F );
 3702              		.loc 1 175 0
 3703 1bd2 80EA7160 		eor	r0, r0, r1, ror #25
 3704 1bd6 E244     		add	r10, r10, ip
 3705              		.loc 1 176 0
 3706 1bd8 DDF838C0 		ldr	ip, [sp, #56]
 175:25519/sha256.c ****     P( H, A, B, C, D, E, F, G, R(57), 0x78A5636F );
 3707              		.loc 1 175 0
 3708 1bdc 2844     		add	r0, r0, r5
 3709              	.LVL230:
 3710              		.loc 1 176 0
 3711 1bde 86EAFB46 		eor	r6, r6, fp, ror #19
 3712 1be2 4B44     		add	r3, r3, r9
 3713 1be4 86EA9B25 		eor	r5, r6, fp, lsr #10
 175:25519/sha256.c ****     P( H, A, B, C, D, E, F, G, R(57), 0x78A5636F );
 3714              		.loc 1 175 0
 3715 1be8 8244     		add	r10, r10, r0
 3716              		.loc 1 176 0
 3717 1bea 6344     		add	r3, r3, ip
 175:25519/sha256.c ****     P( H, A, B, C, D, E, F, G, R(57), 0x78A5636F );
 3718              		.loc 1 175 0
 3719 1bec CDF838A0 		str	r10, [sp, #56]
 3720              		.loc 1 176 0
 3721 1bf0 2B44     		add	r3, r3, r5
 177:25519/sha256.c ****     P( F, G, H, A, B, C, D, E, R(59), 0x8CC70208 );
 3722              		.loc 1 177 0
 3723 1bf2 179D     		ldr	r5, [sp, #92]
 175:25519/sha256.c ****     P( H, A, B, C, D, E, F, G, R(57), 0x78A5636F );
 3724              		.loc 1 175 0
 3725 1bf4 0444     		add	r4, r4, r0
 3726              	.LVL231:
 176:25519/sha256.c ****     P( G, H, A, B, C, D, E, F, R(58), 0x84C87814 );
 3727              		.loc 1 176 0
 3728 1bf6 DDF838B0 		ldr	fp, [sp, #56]
 3729              		.loc 1 177 0
 3730 1bfa 4FEAF510 		ror	r0, r5, #7
 3731              	.LVL232:
 176:25519/sha256.c ****     P( G, H, A, B, C, D, E, F, R(58), 0x84C87814 );
 3732              		.loc 1 176 0
 3733 1bfe 0D9D     		ldr	r5, [sp, #52]
 3734 1c00 0E4E     		ldr	r6, .L23+28
 3735 1c02 4BEA050C 		orr	ip, fp, r5
 3736              		.loc 1 177 0
 3737 1c06 DDF85CB0 		ldr	fp, [sp, #92]
 176:25519/sha256.c ****     P( G, H, A, B, C, D, E, F, R(58), 0x84C87814 );
 3738              		.loc 1 176 0
 3739 1c0a 1E44     		add	r6, r6, r3
 3740              		.loc 1 177 0
 3741 1c0c 80EABB40 		eor	r0, r0, fp, ror #18
 176:25519/sha256.c ****     P( G, H, A, B, C, D, E, F, R(58), 0x84C87814 );
 3742              		.loc 1 176 0
 3743 1c10 DDF838B0 		ldr	fp, [sp, #56]
 3744 1c14 4644     		add	r6, r6, r8
 3745 1c16 4FEABB05 		ror	r5, fp, #2
 3746 1c1a 85EA7B35 		eor	r5, r5, fp, ror #13
 3747 1c1e 0FE0     		b	.L24
 3748              	.L25:
 3749              		.align	2
 3750              	.L23:
 3751 1c20 B5BCB034 		.word	883997877
 3752 1c24 B30C1C39 		.word	958139571
 3753 1c28 4AAAD84E 		.word	1322822218
 3754 1c2c 4FCA9C5B 		.word	1537002063
 3755 1c30 F36F2E68 		.word	1747873779
 3756 1c34 EE828F74 		.word	1955562222
 3757 1c38 6F63A578 		.word	2024104815
 3758 1c3c 1478C884 		.word	-2067236844
 3759              	.L24:
 3760              		.loc 1 177 0
 3761 1c40 DDF85CB0 		ldr	fp, [sp, #92]
 176:25519/sha256.c ****     P( G, H, A, B, C, D, E, F, R(58), 0x84C87814 );
 3762              		.loc 1 176 0
 3763 1c44 DDF82880 		ldr	r8, [sp, #40]
 3764              	.LVL233:
 3765              		.loc 1 177 0
 3766 1c48 80EADB00 		eor	r0, r0, fp, lsr #3
 3767 1c4c 1490     		str	r0, [sp, #80]
 176:25519/sha256.c ****     P( G, H, A, B, C, D, E, F, R(58), 0x84C87814 );
 3768              		.loc 1 176 0
 3769 1c4e 0CEA080C 		and	ip, ip, r8
 3770 1c52 0E98     		ldr	r0, [sp, #56]
 3771 1c54 DDF83480 		ldr	r8, [sp, #52]
 3772 1c58 81EA020A 		eor	r10, r1, r2
 3773              	.LVL234:
 3774 1c5c 00EA080B 		and	fp, r0, r8
 3775 1c60 4CEA0B0C 		orr	ip, ip, fp
 3776 1c64 85EAB055 		eor	r5, r5, r0, ror #22
 3777              		.loc 1 177 0
 3778 1c68 DDF858B0 		ldr	fp, [sp, #88]
 3779 1c6c 1498     		ldr	r0, [sp, #80]
 3780              	.LVL235:
 176:25519/sha256.c ****     P( G, H, A, B, C, D, E, F, R(58), 0x84C87814 );
 3781              		.loc 1 176 0
 3782 1c6e 04EA0A0A 		and	r10, r4, r10
 3783 1c72 4FEAB419 		ror	r9, r4, #6
 3784 1c76 8AEA020A 		eor	r10, r10, r2
 3785 1c7a 89EAF429 		eor	r9, r9, r4, ror #11
 3786 1c7e B244     		add	r10, r10, r6
 3787 1c80 89EA7469 		eor	r9, r9, r4, ror #25
 3788              		.loc 1 177 0
 3789 1c84 4FEA7746 		ror	r6, r7, #17
 3790 1c88 5844     		add	r0, r0, fp
 176:25519/sha256.c ****     P( G, H, A, B, C, D, E, F, R(58), 0x84C87814 );
 3791              		.loc 1 176 0
 3792 1c8a 0CEB050B 		add	fp, ip, r5
 3793              		.loc 1 177 0
 3794 1c8e DDF83CC0 		ldr	ip, [sp, #60]
 176:25519/sha256.c ****     P( G, H, A, B, C, D, E, F, R(58), 0x84C87814 );
 3795              		.loc 1 176 0
 3796 1c92 0AEB0908 		add	r8, r10, r9
 3797              	.LVL236:
 3798              		.loc 1 177 0
 3799 1c96 86EAF746 		eor	r6, r6, r7, ror #19
 3800 1c9a 86EA9726 		eor	r6, r6, r7, lsr #10
 176:25519/sha256.c ****     P( G, H, A, B, C, D, E, F, R(58), 0x84C87814 );
 3801              		.loc 1 176 0
 3802 1c9e C344     		add	fp, fp, r8
 178:25519/sha256.c ****     P( E, F, G, H, A, B, C, D, R(60), 0x90BEFFFA );
 3803              		.loc 1 178 0
 3804 1ca0 189F     		ldr	r7, [sp, #96]
 177:25519/sha256.c ****     P( F, G, H, A, B, C, D, E, R(59), 0x8CC70208 );
 3805              		.loc 1 177 0
 3806 1ca2 6044     		add	r0, r0, ip
 3807 1ca4 AA4D     		ldr	r5, .L26
 176:25519/sha256.c ****     P( G, H, A, B, C, D, E, F, R(58), 0x84C87814 );
 3808              		.loc 1 176 0
 3809 1ca6 DDF824C0 		ldr	ip, [sp, #36]
 177:25519/sha256.c ****     P( F, G, H, A, B, C, D, E, R(59), 0x8CC70208 );
 3810              		.loc 1 177 0
 3811 1caa 3044     		add	r0, r0, r6
 176:25519/sha256.c ****     P( G, H, A, B, C, D, E, F, R(58), 0x84C87814 );
 3812              		.loc 1 176 0
 3813 1cac CDF824B0 		str	fp, [sp, #36]
 3814              	.LVL237:
 3815 1cb0 C444     		add	ip, ip, r8
 3816              	.LVL238:
 3817              		.loc 1 178 0
 3818 1cb2 4FEAF716 		ror	r6, r7, #7
 177:25519/sha256.c ****     P( F, G, H, A, B, C, D, E, R(59), 0x8CC70208 );
 3819              		.loc 1 177 0
 3820 1cb6 DDF82480 		ldr	r8, [sp, #36]
 3821              	.LVL239:
 3822 1cba 0E9F     		ldr	r7, [sp, #56]
 3823 1cbc 0544     		add	r5, r5, r0
 3824 1cbe 5519     		adds	r5, r2, r5
 3825 1cc0 0F95     		str	r5, [sp, #60]
 3826 1cc2 099A     		ldr	r2, [sp, #36]
 3827              	.LVL240:
 3828 1cc4 0E9D     		ldr	r5, [sp, #56]
 3829 1cc6 48EA0709 		orr	r9, r8, r7
 3830              	.LVL241:
 3831 1cca 4FEAB807 		ror	r7, r8, #2
 3832              		.loc 1 178 0
 3833 1cce DDF86080 		ldr	r8, [sp, #96]
 177:25519/sha256.c ****     P( F, G, H, A, B, C, D, E, R(59), 0x8CC70208 );
 3834              		.loc 1 177 0
 3835 1cd2 84EA010B 		eor	fp, r4, r1
 3836              	.LVL242:
 3837              		.loc 1 178 0
 3838 1cd6 86EAB846 		eor	r6, r6, r8, ror #18
 177:25519/sha256.c ****     P( F, G, H, A, B, C, D, E, R(59), 0x8CC70208 );
 3839              		.loc 1 177 0
 3840 1cda 02EA0508 		and	r8, r2, r5
 3841 1cde 0D9A     		ldr	r2, [sp, #52]
 3842              	.LVL243:
 3843 1ce0 099D     		ldr	r5, [sp, #36]
 3844 1ce2 09EA0209 		and	r9, r9, r2
 3845              		.loc 1 178 0
 3846 1ce6 189A     		ldr	r2, [sp, #96]
 177:25519/sha256.c ****     P( F, G, H, A, B, C, D, E, R(59), 0x8CC70208 );
 3847              		.loc 1 177 0
 3848 1ce8 0CEA0B0B 		and	fp, ip, fp
 3849              		.loc 1 178 0
 3850 1cec 86EAD206 		eor	r6, r6, r2, lsr #3
 177:25519/sha256.c ****     P( F, G, H, A, B, C, D, E, R(59), 0x8CC70208 );
 3851              		.loc 1 177 0
 3852 1cf0 49EA0808 		orr	r8, r9, r8
 3853 1cf4 0F9A     		ldr	r2, [sp, #60]
 3854 1cf6 DDF82490 		ldr	r9, [sp, #36]
 3855 1cfa 4FEABC1A 		ror	r10, ip, #6
 3856              	.LVL244:
 3857 1cfe 8BEA010B 		eor	fp, fp, r1
 3858 1d02 87EA7537 		eor	r7, r7, r5, ror #13
 3859 1d06 9344     		add	fp, fp, r2
 3860 1d08 87EAB957 		eor	r7, r7, r9, ror #22
 3861              		.loc 1 178 0
 3862 1d0c 179A     		ldr	r2, [sp, #92]
 177:25519/sha256.c ****     P( F, G, H, A, B, C, D, E, R(59), 0x8CC70208 );
 3863              		.loc 1 177 0
 3864 1d0e 8AEAFC2A 		eor	r10, r10, ip, ror #11
 3865              		.loc 1 178 0
 3866 1d12 4FEA7345 		ror	r5, r3, #17
 177:25519/sha256.c ****     P( F, G, H, A, B, C, D, E, R(59), 0x8CC70208 );
 3867              		.loc 1 177 0
 3868 1d16 8AEA7C6A 		eor	r10, r10, ip, ror #25
 3869 1d1a B844     		add	r8, r8, r7
 3870              		.loc 1 178 0
 3871 1d1c 109F     		ldr	r7, [sp, #64]
 177:25519/sha256.c ****     P( F, G, H, A, B, C, D, E, R(59), 0x8CC70208 );
 3872              		.loc 1 177 0
 3873 1d1e DA44     		add	r10, r10, fp
 3874              	.LVL245:
 3875              		.loc 1 178 0
 3876 1d20 1644     		add	r6, r6, r2
 3877 1d22 85EAF345 		eor	r5, r5, r3, ror #19
 3878 1d26 3E44     		add	r6, r6, r7
 177:25519/sha256.c ****     P( F, G, H, A, B, C, D, E, R(59), 0x8CC70208 );
 3879              		.loc 1 177 0
 3880 1d28 D044     		add	r8, r8, r10
 3881              		.loc 1 178 0
 3882 1d2a 85EA9325 		eor	r5, r5, r3, lsr #10
 3883 1d2e 894F     		ldr	r7, .L26+4
 177:25519/sha256.c ****     P( F, G, H, A, B, C, D, E, R(59), 0x8CC70208 );
 3884              		.loc 1 177 0
 3885 1d30 CDF84080 		str	r8, [sp, #64]
 3886              		.loc 1 178 0
 3887 1d34 7519     		adds	r5, r6, r5
 3888 1d36 109B     		ldr	r3, [sp, #64]
 179:25519/sha256.c ****     P( D, E, F, G, H, A, B, C, R(61), 0xA4506CEB );
 3889              		.loc 1 179 0
 3890 1d38 DDF82C90 		ldr	r9, [sp, #44]
 178:25519/sha256.c ****     P( E, F, G, H, A, B, C, D, R(60), 0x90BEFFFA );
 3891              		.loc 1 178 0
 3892 1d3c 0F95     		str	r5, [sp, #60]
 3893 1d3e 2F44     		add	r7, r7, r5
 3894 1d40 099D     		ldr	r5, [sp, #36]
 3895              		.loc 1 179 0
 3896 1d42 4FEAF918 		ror	r8, r9, #7
 178:25519/sha256.c ****     P( E, F, G, H, A, B, C, D, R(60), 0x90BEFFFA );
 3897              		.loc 1 178 0
 3898 1d46 4FEAB306 		ror	r6, r3, #2
 3899 1d4a 43EA0509 		orr	r9, r3, r5
 3900              		.loc 1 179 0
 3901 1d4e 0B9B     		ldr	r3, [sp, #44]
 177:25519/sha256.c ****     P( F, G, H, A, B, C, D, E, R(59), 0x8CC70208 );
 3902              		.loc 1 177 0
 3903 1d50 0A9A     		ldr	r2, [sp, #40]
 3904              		.loc 1 179 0
 3905 1d52 88EAB348 		eor	r8, r8, r3, ror #18
 178:25519/sha256.c ****     P( E, F, G, H, A, B, C, D, R(60), 0x90BEFFFA );
 3906              		.loc 1 178 0
 3907 1d56 109B     		ldr	r3, [sp, #64]
 177:25519/sha256.c ****     P( F, G, H, A, B, C, D, E, R(59), 0x8CC70208 );
 3908              		.loc 1 177 0
 3909 1d58 5244     		add	r2, r2, r10
 3910              	.LVL246:
 178:25519/sha256.c ****     P( E, F, G, H, A, B, C, D, R(60), 0x90BEFFFA );
 3911              		.loc 1 178 0
 3912 1d5a 8CEA040B 		eor	fp, ip, r4
 3913 1d5e 02EA0B0B 		and	fp, r2, fp
 3914 1d62 3944     		add	r1, r1, r7
 3915              	.LVL247:
 3916 1d64 03EA0507 		and	r7, r3, r5
 3917 1d68 0E9D     		ldr	r5, [sp, #56]
 3918 1d6a 8BEA040B 		eor	fp, fp, r4
 3919 1d6e 86EA7336 		eor	r6, r6, r3, ror #13
 3920              		.loc 1 179 0
 3921 1d72 0B9B     		ldr	r3, [sp, #44]
 3922              	.LVL248:
 178:25519/sha256.c ****     P( E, F, G, H, A, B, C, D, R(60), 0x90BEFFFA );
 3923              		.loc 1 178 0
 3924 1d74 09EA0509 		and	r9, r9, r5
 3925 1d78 5944     		add	r1, r1, fp
 3926              		.loc 1 179 0
 3927 1d7a DDF860B0 		ldr	fp, [sp, #96]
 178:25519/sha256.c ****     P( E, F, G, H, A, B, C, D, R(60), 0x90BEFFFA );
 3928              		.loc 1 178 0
 3929 1d7e 4FEAB21A 		ror	r10, r2, #6
 3930              	.LVL249:
 3931              		.loc 1 179 0
 3932 1d82 88EAD308 		eor	r8, r8, r3, lsr #3
 3933 1d86 4FEA7045 		ror	r5, r0, #17
 3934 1d8a 119B     		ldr	r3, [sp, #68]
 178:25519/sha256.c ****     P( E, F, G, H, A, B, C, D, R(60), 0x90BEFFFA );
 3935              		.loc 1 178 0
 3936 1d8c 49EA0707 		orr	r7, r9, r7
 3937 1d90 DDF84090 		ldr	r9, [sp, #64]
 3938 1d94 8AEAF22A 		eor	r10, r10, r2, ror #11
 3939              		.loc 1 179 0
 3940 1d98 D844     		add	r8, r8, fp
 3941 1d9a 85EAF045 		eor	r5, r5, r0, ror #19
 178:25519/sha256.c ****     P( E, F, G, H, A, B, C, D, R(60), 0x90BEFFFA );
 3942              		.loc 1 178 0
 3943 1d9e 8AEA726A 		eor	r10, r10, r2, ror #25
 3944 1da2 86EAB956 		eor	r6, r6, r9, ror #22
 3945              		.loc 1 179 0
 3946 1da6 9844     		add	r8, r8, r3
 3947 1da8 85EA9025 		eor	r5, r5, r0, lsr #10
 178:25519/sha256.c ****     P( E, F, G, H, A, B, C, D, R(60), 0x90BEFFFA );
 3948              		.loc 1 178 0
 3949 1dac 0D98     		ldr	r0, [sp, #52]
 3950 1dae 5144     		add	r1, r1, r10
 3951              	.LVL250:
 3952              		.loc 1 179 0
 3953 1db0 4544     		add	r5, r8, r5
 178:25519/sha256.c ****     P( E, F, G, H, A, B, C, D, R(60), 0x90BEFFFA );
 3954              		.loc 1 178 0
 3955 1db2 3744     		add	r7, r7, r6
 3956              		.loc 1 179 0
 3957 1db4 0D95     		str	r5, [sp, #52]
 3958              	.LVL251:
 178:25519/sha256.c ****     P( E, F, G, H, A, B, C, D, R(60), 0x90BEFFFA );
 3959              		.loc 1 178 0
 3960 1db6 7B18     		adds	r3, r7, r1
 3961 1db8 0844     		add	r0, r0, r1
 3962              	.LVL252:
 180:25519/sha256.c ****     P( C, D, E, F, G, H, A, B, R(62), 0xBEF9A3F7 );
 3963              		.loc 1 180 0
 3964 1dba 0C99     		ldr	r1, [sp, #48]
 3965              	.LVL253:
 179:25519/sha256.c ****     P( D, E, F, G, H, A, B, C, R(61), 0xA4506CEB );
 3966              		.loc 1 179 0
 3967 1dbc 664E     		ldr	r6, .L26+8
 3968              		.loc 1 180 0
 3969 1dbe 4FEAF118 		ror	r8, r1, #7
 179:25519/sha256.c ****     P( D, E, F, G, H, A, B, C, R(61), 0xA4506CEB );
 3970              		.loc 1 179 0
 3971 1dc2 1099     		ldr	r1, [sp, #64]
 3972 1dc4 2E44     		add	r6, r6, r5
 3973 1dc6 4FEAB017 		ror	r7, r0, #6
 3974 1dca 3444     		add	r4, r4, r6
 3975              	.LVL254:
 3976 1dcc 87EAF026 		eor	r6, r7, r0, ror #11
 3977 1dd0 03EA0107 		and	r7, r3, r1
 3978 1dd4 0999     		ldr	r1, [sp, #36]
 3979 1dd6 43EA090A 		orr	r10, r3, r9
 3980 1dda 0AEA010A 		and	r10, r10, r1
 3981              		.loc 1 180 0
 3982 1dde 0C99     		ldr	r1, [sp, #48]
 179:25519/sha256.c ****     P( D, E, F, G, H, A, B, C, R(61), 0xA4506CEB );
 3983              		.loc 1 179 0
 3984 1de0 82EA0C0B 		eor	fp, r2, ip
 3985 1de4 4AEA070A 		orr	r10, r10, r7
 3986              		.loc 1 180 0
 3987 1de8 5C4D     		ldr	r5, .L26+12
 3988 1dea 0B9F     		ldr	r7, [sp, #44]
 179:25519/sha256.c ****     P( D, E, F, G, H, A, B, C, R(61), 0xA4506CEB );
 3989              		.loc 1 179 0
 3990 1dec 00EA0B0B 		and	fp, r0, fp
 3991 1df0 4FEAB309 		ror	r9, r3, #2
 3992              		.loc 1 180 0
 3993 1df4 88EAB148 		eor	r8, r8, r1, ror #18
 179:25519/sha256.c ****     P( D, E, F, G, H, A, B, C, R(61), 0xA4506CEB );
 3994              		.loc 1 179 0
 3995 1df8 8BEA0C0B 		eor	fp, fp, ip
 3996              		.loc 1 180 0
 3997 1dfc 3D44     		add	r5, r5, r7
 179:25519/sha256.c ****     P( D, E, F, G, H, A, B, C, R(61), 0xA4506CEB );
 3998              		.loc 1 179 0
 3999 1dfe 89EA7339 		eor	r9, r9, r3, ror #13
 4000              		.loc 1 180 0
 4001 1e02 88EAD108 		eor	r8, r8, r1, lsr #3
 4002 1e06 0F99     		ldr	r1, [sp, #60]
 179:25519/sha256.c ****     P( D, E, F, G, H, A, B, C, R(61), 0xA4506CEB );
 4003              		.loc 1 179 0
 4004 1e08 86EA7066 		eor	r6, r6, r0, ror #25
 4005 1e0c 89EAB359 		eor	r9, r9, r3, ror #22
 4006 1e10 5C44     		add	r4, r4, fp
 4007              		.loc 1 180 0
 4008 1e12 A844     		add	r8, r8, r5
 179:25519/sha256.c ****     P( D, E, F, G, H, A, B, C, R(61), 0xA4506CEB );
 4009              		.loc 1 179 0
 4010 1e14 0E9D     		ldr	r5, [sp, #56]
 4011 1e16 3444     		add	r4, r4, r6
 4012              	.LVL255:
 4013              		.loc 1 180 0
 4014 1e18 0F9F     		ldr	r7, [sp, #60]
 179:25519/sha256.c ****     P( D, E, F, G, H, A, B, C, R(61), 0xA4506CEB );
 4015              		.loc 1 179 0
 4016 1e1a CA44     		add	r10, r10, r9
 4017              		.loc 1 180 0
 4018 1e1c 4FEA714B 		ror	fp, r1, #17
 179:25519/sha256.c ****     P( D, E, F, G, H, A, B, C, R(61), 0xA4506CEB );
 4019              		.loc 1 179 0
 4020 1e20 2544     		add	r5, r5, r4
 4021              	.LVL256:
 4022              		.loc 1 180 0
 4023 1e22 8BEAF14B 		eor	fp, fp, r1, ror #19
 179:25519/sha256.c ****     P( D, E, F, G, H, A, B, C, R(61), 0xA4506CEB );
 4024              		.loc 1 179 0
 4025 1e26 0AEB0401 		add	r1, r10, r4
 4026              	.LVL257:
 4027              		.loc 1 180 0
 4028 1e2a 129C     		ldr	r4, [sp, #72]
 4029              	.LVL258:
 4030 1e2c 8BEA9726 		eor	r6, fp, r7, lsr #10
 4031 1e30 DDF840B0 		ldr	fp, [sp, #64]
 4032 1e34 A044     		add	r8, r8, r4
 4033 1e36 41EA0304 		orr	r4, r1, r3
 4034 1e3a 04EA0B04 		and	r4, r4, fp
 4035 1e3e 0B94     		str	r4, [sp, #44]
 4036 1e40 80EA0209 		eor	r9, r0, r2
 181:25519/sha256.c ****     P( B, C, D, E, F, G, H, A, R(63), 0xC67178F2 );
 4037              		.loc 1 181 0
 4038 1e44 1A9C     		ldr	r4, [sp, #104]
 180:25519/sha256.c ****     P( C, D, E, F, G, H, A, B, R(62), 0xBEF9A3F7 );
 4039              		.loc 1 180 0
 4040 1e46 4644     		add	r6, r6, r8
 4041 1e48 05EA0909 		and	r9, r5, r9
 4042 1e4c 6644     		add	r6, r6, ip
 4043 1e4e 4FEAB10A 		ror	r10, r1, #2
 4044 1e52 4FEAB518 		ror	r8, r5, #6
 4045 1e56 89EA0209 		eor	r9, r9, r2
 4046              		.loc 1 181 0
 4047 1e5a 4FEAF41C 		ror	ip, r4, #7
 4048              	.LVL259:
 180:25519/sha256.c ****     P( C, D, E, F, G, H, A, B, R(62), 0xBEF9A3F7 );
 4049              		.loc 1 180 0
 4050 1e5e 0B9C     		ldr	r4, [sp, #44]
 4051 1e60 01EA030B 		and	fp, r1, r3
 4052 1e64 B144     		add	r9, r9, r6
 4053 1e66 8AEA713A 		eor	r10, r10, r1, ror #13
 4054              		.loc 1 181 0
 4055 1e6a 1A9E     		ldr	r6, [sp, #104]
 180:25519/sha256.c ****     P( C, D, E, F, G, H, A, B, R(62), 0xBEF9A3F7 );
 4056              		.loc 1 180 0
 4057 1e6c 88EAF528 		eor	r8, r8, r5, ror #11
 4058 1e70 8AEAB15A 		eor	r10, r10, r1, ror #22
 4059 1e74 88EA7568 		eor	r8, r8, r5, ror #25
 4060 1e78 44EA0B0B 		orr	fp, r4, fp
 4061 1e7c 0BEB0A04 		add	r4, fp, r10
 4062              		.loc 1 181 0
 4063 1e80 8CEAB64C 		eor	ip, ip, r6, ror #18
 4064 1e84 DDF834A0 		ldr	r10, [sp, #52]
 180:25519/sha256.c ****     P( C, D, E, F, G, H, A, B, R(62), 0xBEF9A3F7 );
 4065              		.loc 1 180 0
 4066 1e88 09EB0806 		add	r6, r9, r8
 4067              	.LVL260:
 4068              		.loc 1 181 0
 4069 1e8c 344F     		ldr	r7, .L26+16
 4070 1e8e DDF83080 		ldr	r8, [sp, #48]
 4071 1e92 DDF86890 		ldr	r9, [sp, #104]
 4072 1e96 4744     		add	r7, r7, r8
 4073 1e98 4FEA7A48 		ror	r8, r10, #17
 4074 1e9c 8CEAD90C 		eor	ip, ip, r9, lsr #3
 4075 1ea0 88EAFA48 		eor	r8, r8, r10, ror #19
 4076 1ea4 DDF84CA0 		ldr	r10, [sp, #76]
 4077 1ea8 6744     		add	r7, r7, ip
 180:25519/sha256.c ****     P( C, D, E, F, G, H, A, B, R(62), 0xBEF9A3F7 );
 4078              		.loc 1 180 0
 4079 1eaa DDF824B0 		ldr	fp, [sp, #36]
 4080              		.loc 1 181 0
 4081 1eae 5744     		add	r7, r7, r10
 4082 1eb0 DDF834A0 		ldr	r10, [sp, #52]
 180:25519/sha256.c ****     P( C, D, E, F, G, H, A, B, R(62), 0xBEF9A3F7 );
 4083              		.loc 1 180 0
 4084 1eb4 3444     		add	r4, r4, r6
 4085              		.loc 1 181 0
 4086 1eb6 85EA000C 		eor	ip, r5, r0
 180:25519/sha256.c ****     P( C, D, E, F, G, H, A, B, R(62), 0xBEF9A3F7 );
 4087              		.loc 1 180 0
 4088 1eba 5E44     		add	r6, r6, fp
 4089              	.LVL261:
 4090              		.loc 1 181 0
 4091 1ebc 88EA9A28 		eor	r8, r8, r10, lsr #10
 4092 1ec0 06EA0C0C 		and	ip, r6, ip
 4093 1ec4 4744     		add	r7, r7, r8
 4094 1ec6 8CEA000C 		eor	ip, ip, r0
 4095 1eca 1744     		add	r7, r7, r2
 4096 1ecc 44EA010B 		orr	fp, r4, r1
 4097 1ed0 049A     		ldr	r2, [sp, #16]
 4098              	.LVL262:
 4099 1ed2 4FEAB409 		ror	r9, r4, #2
 4100 1ed6 6744     		add	r7, r7, ip
 4101 1ed8 DDF840C0 		ldr	ip, [sp, #64]
 4102 1edc 0BEA030B 		and	fp, fp, r3
 4103 1ee0 04EA010A 		and	r10, r4, r1
 4104 1ee4 89EA7439 		eor	r9, r9, r4, ror #13
 4105 1ee8 89EAB459 		eor	r9, r9, r4, ror #22
 4106 1eec 9444     		add	ip, ip, r2
 4107 1eee 4BEA0A0A 		orr	r10, fp, r10
 4108 1ef2 089A     		ldr	r2, [sp, #32]
 4109 1ef4 CA44     		add	r10, r10, r9
 4110 1ef6 9244     		add	r10, r10, r2
 182:25519/sha256.c **** 
 183:25519/sha256.c ****     ctx->state[0] += A;
 184:25519/sha256.c ****     ctx->state[1] += B;
 185:25519/sha256.c ****     ctx->state[2] += C;
 186:25519/sha256.c ****     ctx->state[3] += D;
 187:25519/sha256.c ****     ctx->state[4] += E;
 188:25519/sha256.c ****     ctx->state[5] += F;
 189:25519/sha256.c ****     ctx->state[6] += G;
 190:25519/sha256.c ****     ctx->state[7] += H;
 4111              		.loc 1 190 0
 4112 1ef8 019A     		ldr	r2, [sp, #4]
 181:25519/sha256.c ****     P( B, C, D, E, F, G, H, A, R(63), 0xC67178F2 );
 4113              		.loc 1 181 0
 4114 1efa 4FEAB618 		ror	r8, r6, #6
 4115              		.loc 1 190 0
 4116 1efe 1044     		add	r0, r0, r2
 4117              	.LVL263:
 186:25519/sha256.c ****     ctx->state[3] += D;
 4118              		.loc 1 186 0
 4119 1f00 059A     		ldr	r2, [sp, #20]
 181:25519/sha256.c ****     P( B, C, D, E, F, G, H, A, R(63), 0xC67178F2 );
 4120              		.loc 1 181 0
 4121 1f02 88EAF628 		eor	r8, r8, r6, ror #11
 186:25519/sha256.c ****     ctx->state[3] += D;
 4122              		.loc 1 186 0
 4123 1f06 1344     		add	r3, r3, r2
 4124              	.LVL264:
 189:25519/sha256.c ****     ctx->state[6] += G;
 4125              		.loc 1 189 0
 4126 1f08 029A     		ldr	r2, [sp, #8]
 181:25519/sha256.c ****     P( B, C, D, E, F, G, H, A, R(63), 0xC67178F2 );
 4127              		.loc 1 181 0
 4128 1f0a 88EA7668 		eor	r8, r8, r6, ror #25
 189:25519/sha256.c ****     ctx->state[6] += G;
 4129              		.loc 1 189 0
 4130 1f0e 1544     		add	r5, r5, r2
 4131              	.LVL265:
 185:25519/sha256.c ****     ctx->state[2] += C;
 4132              		.loc 1 185 0
 4133 1f10 069A     		ldr	r2, [sp, #24]
 181:25519/sha256.c ****     P( B, C, D, E, F, G, H, A, R(63), 0xC67178F2 );
 4134              		.loc 1 181 0
 4135 1f12 4744     		add	r7, r7, r8
 4136              	.LVL266:
 185:25519/sha256.c ****     ctx->state[2] += C;
 4137              		.loc 1 185 0
 4138 1f14 1144     		add	r1, r1, r2
 4139              	.LVL267:
 184:25519/sha256.c ****     ctx->state[1] += B;
 4140              		.loc 1 184 0
 4141 1f16 079A     		ldr	r2, [sp, #28]
 183:25519/sha256.c ****     ctx->state[0] += A;
 4142              		.loc 1 183 0
 4143 1f18 DDF86480 		ldr	r8, [sp, #100]
 184:25519/sha256.c ****     ctx->state[1] += B;
 4144              		.loc 1 184 0
 4145 1f1c 1444     		add	r4, r4, r2
 4146              	.LVL268:
 188:25519/sha256.c ****     ctx->state[5] += F;
 4147              		.loc 1 188 0
 4148 1f1e 039A     		ldr	r2, [sp, #12]
 183:25519/sha256.c ****     ctx->state[0] += A;
 4149              		.loc 1 183 0
 4150 1f20 BA44     		add	r10, r10, r7
 188:25519/sha256.c ****     ctx->state[5] += F;
 4151              		.loc 1 188 0
 4152 1f22 1644     		add	r6, r6, r2
 4153              	.LVL269:
 187:25519/sha256.c ****     ctx->state[4] += E;
 4154              		.loc 1 187 0
 4155 1f24 6744     		add	r7, r7, ip
 4156              	.LVL270:
 183:25519/sha256.c ****     ctx->state[0] += A;
 4157              		.loc 1 183 0
 4158 1f26 C8F808A0 		str	r10, [r8, #8]
 4159              	.LVL271:
 186:25519/sha256.c ****     ctx->state[3] += D;
 4160              		.loc 1 186 0
 4161 1f2a C8F81430 		str	r3, [r8, #20]
 187:25519/sha256.c ****     ctx->state[4] += E;
 4162              		.loc 1 187 0
 4163 1f2e C8F81870 		str	r7, [r8, #24]
 184:25519/sha256.c ****     ctx->state[1] += B;
 4164              		.loc 1 184 0
 4165 1f32 C8F80C40 		str	r4, [r8, #12]
 188:25519/sha256.c ****     ctx->state[5] += F;
 4166              		.loc 1 188 0
 4167 1f36 C8F81C60 		str	r6, [r8, #28]
 185:25519/sha256.c ****     ctx->state[2] += C;
 4168              		.loc 1 185 0
 4169 1f3a C8F81010 		str	r1, [r8, #16]
 189:25519/sha256.c ****     ctx->state[6] += G;
 4170              		.loc 1 189 0
 4171 1f3e C8F82050 		str	r5, [r8, #32]
 4172              		.loc 1 190 0
 4173 1f42 C8F82400 		str	r0, [r8, #36]
 191:25519/sha256.c **** }
 4174              		.loc 1 191 0
 4175 1f46 1CB0     		add	sp, sp, #112
 4176              		@ sp needed
 4177 1f48 BDE8F00F 		pop	{r4, r5, r6, r7, r8, r9, r10, fp}
 4178              	.LVL272:
 4179 1f4c 7047     		bx	lr
 4180              	.L27:
 4181 1f4e 00BF     		.align	2
 4182              	.L26:
 4183 1f50 0802C78C 		.word	-1933114872
 4184 1f54 FAFFBE90 		.word	-1866530822
 4185 1f58 EB6C50A4 		.word	-1538233109
 4186 1f5c F7A3F9BE 		.word	-1090935817
 4187 1f60 F27871C6 		.word	-965641998
 4188              		.cfi_endproc
 4189              	.LFE1:
 4191              		.section	.text.sha256_update,"ax",%progbits
 4192              		.align	2
 4193              		.global	sha256_update
 4194              		.thumb
 4195              		.thumb_func
 4197              	sha256_update:
 4198              	.LFB2:
 192:25519/sha256.c **** 
 193:25519/sha256.c **** void sha256_update( sha256_context *ctx, uint8 *input, uint32 length )
 194:25519/sha256.c **** {
 4199              		.loc 1 194 0
 4200              		.cfi_startproc
 4201              		@ args = 0, pretend = 0, frame = 0
 4202              		@ frame_needed = 0, uses_anonymous_args = 0
 4203              	.LVL273:
 4204 0000 2DE9F041 		push	{r4, r5, r6, r7, r8, lr}
 4205              		.cfi_def_cfa_offset 24
 4206              		.cfi_offset 4, -24
 4207              		.cfi_offset 5, -20
 4208              		.cfi_offset 6, -16
 4209              		.cfi_offset 7, -12
 4210              		.cfi_offset 8, -8
 4211              		.cfi_offset 14, -4
 195:25519/sha256.c ****     uint32 left, fill;
 196:25519/sha256.c **** 
 197:25519/sha256.c ****     if( ! length ) return;
 4212              		.loc 1 197 0
 4213 0004 1746     		mov	r7, r2
 194:25519/sha256.c **** {
 4214              		.loc 1 194 0
 4215 0006 0646     		mov	r6, r0
 4216 0008 8846     		mov	r8, r1
 4217              		.loc 1 197 0
 4218 000a 02B3     		cbz	r2, .L28
 4219              	.LVL274:
 4220              	.LBB8:
 4221              	.LBB9:
 198:25519/sha256.c **** 
 199:25519/sha256.c ****     left = ctx->total[0] & 0x3F;
 4222              		.loc 1 199 0
 4223 000c 0368     		ldr	r3, [r0]
 200:25519/sha256.c ****     fill = 64 - left;
 201:25519/sha256.c **** 
 202:25519/sha256.c ****     ctx->total[0] += length;
 4224              		.loc 1 202 0
 4225 000e 1A44     		add	r2, r2, r3
 4226              	.LVL275:
 203:25519/sha256.c ****     ctx->total[0] &= 0xFFFFFFFF;
 204:25519/sha256.c **** 
 205:25519/sha256.c ****     if( ctx->total[0] < length )
 4227              		.loc 1 205 0
 4228 0010 9742     		cmp	r7, r2
 202:25519/sha256.c ****     ctx->total[0] += length;
 4229              		.loc 1 202 0
 4230 0012 0260     		str	r2, [r0]
 199:25519/sha256.c ****     left = ctx->total[0] & 0x3F;
 4231              		.loc 1 199 0
 4232 0014 03F03F03 		and	r3, r3, #63
 4233              	.LVL276:
 4234              		.loc 1 205 0
 4235 0018 02D9     		bls	.L31
 206:25519/sha256.c ****         ctx->total[1]++;
 4236              		.loc 1 206 0
 4237 001a 4268     		ldr	r2, [r0, #4]
 4238 001c 0132     		adds	r2, r2, #1
 4239 001e 4260     		str	r2, [r0, #4]
 4240              	.L31:
 207:25519/sha256.c **** 
 208:25519/sha256.c ****     if( left && length >= fill )
 4241              		.loc 1 208 0
 4242 0020 BBB9     		cbnz	r3, .L46
 4243              	.LVL277:
 4244              	.L32:
 209:25519/sha256.c ****     {
 210:25519/sha256.c ****         memcpy( (void *) (ctx->buffer + left),
 211:25519/sha256.c ****                 (void *) input, fill );
 212:25519/sha256.c ****         sha256_process( ctx, ctx->buffer );
 213:25519/sha256.c ****         length -= fill;
 214:25519/sha256.c ****         input  += fill;
 215:25519/sha256.c ****         left = 0;
 216:25519/sha256.c ****     }
 217:25519/sha256.c **** 
 218:25519/sha256.c ****     while( length >= 64 )
 4245              		.loc 1 218 0
 4246 0022 3F2F     		cmp	r7, #63
 4247 0024 12D9     		bls	.L34
 4248 0026 3D46     		mov	r5, r7
 4249 0028 4446     		mov	r4, r8
 4250              	.LVL278:
 4251              	.L36:
 219:25519/sha256.c ****     {
 220:25519/sha256.c ****         sha256_process( ctx, input );
 4252              		.loc 1 220 0
 4253 002a 2146     		mov	r1, r4
 221:25519/sha256.c ****         length -= 64;
 4254              		.loc 1 221 0
 4255 002c 403D     		subs	r5, r5, #64
 4256              	.LVL279:
 220:25519/sha256.c ****         sha256_process( ctx, input );
 4257              		.loc 1 220 0
 4258 002e 3046     		mov	r0, r6
 4259 0030 FFF7FEFF 		bl	sha256_process
 4260              	.LVL280:
 218:25519/sha256.c ****     while( length >= 64 )
 4261              		.loc 1 218 0
 4262 0034 3F2D     		cmp	r5, #63
 222:25519/sha256.c ****         input  += 64;
 4263              		.loc 1 222 0
 4264 0036 04F14004 		add	r4, r4, #64
 4265              	.LVL281:
 218:25519/sha256.c ****     while( length >= 64 )
 4266              		.loc 1 218 0
 4267 003a F6D8     		bhi	.L36
 4268 003c A7F14003 		sub	r3, r7, #64
 4269 0040 23F03F03 		bic	r3, r3, #63
 4270 0044 4033     		adds	r3, r3, #64
 4271 0046 9844     		add	r8, r8, r3
 4272 0048 07F03F07 		and	r7, r7, #63
 4273              	.LVL282:
 4274              	.L34:
 223:25519/sha256.c ****     }
 224:25519/sha256.c **** 
 225:25519/sha256.c ****     if( length )
 4275              		.loc 1 225 0
 4276 004c EFB9     		cbnz	r7, .L47
 4277              	.LVL283:
 4278              	.L28:
 4279 004e BDE8F081 		pop	{r4, r5, r6, r7, r8, pc}
 4280              	.LVL284:
 4281              	.L46:
 200:25519/sha256.c ****     fill = 64 - left;
 4282              		.loc 1 200 0
 4283 0052 C3F14004 		rsb	r4, r3, #64
 208:25519/sha256.c ****     if( left && length >= fill )
 4284              		.loc 1 208 0
 4285 0056 A742     		cmp	r7, r4
 4286 0058 08D2     		bcs	.L48
 4287              	.LVL285:
 4288              	.L33:
 226:25519/sha256.c ****     {
 227:25519/sha256.c ****         memcpy( (void *) (ctx->buffer + left),
 4289              		.loc 1 227 0
 4290 005a 03F12800 		add	r0, r3, #40
 4291 005e 3044     		add	r0, r0, r6
 4292 0060 4146     		mov	r1, r8
 4293 0062 3A46     		mov	r2, r7
 4294              	.LBE9:
 4295              	.LBE8:
 228:25519/sha256.c ****                 (void *) input, length );
 229:25519/sha256.c ****     }
 230:25519/sha256.c **** }
 4296              		.loc 1 230 0
 4297 0064 BDE8F041 		pop	{r4, r5, r6, r7, r8, lr}
 4298              	.LVL286:
 4299              	.LBB11:
 4300              	.LBB10:
 227:25519/sha256.c ****         memcpy( (void *) (ctx->buffer + left),
 4301              		.loc 1 227 0
 4302 0068 FFF7FEBF 		b	memcpy
 4303              	.LVL287:
 4304              	.L48:
 210:25519/sha256.c ****         memcpy( (void *) (ctx->buffer + left),
 4305              		.loc 1 210 0
 4306 006c 03F12800 		add	r0, r3, #40
 4307              	.LVL288:
 4308 0070 4146     		mov	r1, r8
 4309              	.LVL289:
 4310 0072 2246     		mov	r2, r4
 4311 0074 3044     		add	r0, r0, r6
 4312 0076 FFF7FEFF 		bl	memcpy
 4313              	.LVL290:
 212:25519/sha256.c ****         sha256_process( ctx, ctx->buffer );
 4314              		.loc 1 212 0
 4315 007a 3046     		mov	r0, r6
 4316 007c 06F12801 		add	r1, r6, #40
 4317 0080 FFF7FEFF 		bl	sha256_process
 4318              	.LVL291:
 213:25519/sha256.c ****         length -= fill;
 4319              		.loc 1 213 0
 4320 0084 3F1B     		subs	r7, r7, r4
 4321              	.LVL292:
 214:25519/sha256.c ****         input  += fill;
 4322              		.loc 1 214 0
 4323 0086 A044     		add	r8, r8, r4
 4324              	.LVL293:
 4325 0088 CBE7     		b	.L32
 4326              	.LVL294:
 4327              	.L47:
 225:25519/sha256.c ****     if( length )
 4328              		.loc 1 225 0
 4329 008a 0023     		movs	r3, #0
 4330 008c E5E7     		b	.L33
 4331              	.LBE10:
 4332              	.LBE11:
 4333              		.cfi_endproc
 4334              	.LFE2:
 4336 008e 00BF     		.section	.text.sha256_finish,"ax",%progbits
 4337              		.align	2
 4338              		.global	sha256_finish
 4339              		.thumb
 4340              		.thumb_func
 4342              	sha256_finish:
 4343              	.LFB3:
 231:25519/sha256.c **** 
 232:25519/sha256.c **** static uint8 sha256_padding[64] =
 233:25519/sha256.c **** {
 234:25519/sha256.c ****  0x80, 0, 0, 0, 0, 0, 0, 0, 0, 0, 0, 0, 0, 0, 0, 0,
 235:25519/sha256.c ****     0, 0, 0, 0, 0, 0, 0, 0, 0, 0, 0, 0, 0, 0, 0, 0,
 236:25519/sha256.c ****     0, 0, 0, 0, 0, 0, 0, 0, 0, 0, 0, 0, 0, 0, 0, 0,
 237:25519/sha256.c ****     0, 0, 0, 0, 0, 0, 0, 0, 0, 0, 0, 0, 0, 0, 0, 0
 238:25519/sha256.c **** };
 239:25519/sha256.c **** 
 240:25519/sha256.c **** void sha256_finish( sha256_context *ctx, uint8 digest[32] )
 241:25519/sha256.c **** {
 4344              		.loc 1 241 0
 4345              		.cfi_startproc
 4346              		@ args = 0, pretend = 0, frame = 8
 4347              		@ frame_needed = 0, uses_anonymous_args = 0
 4348              	.LVL295:
 4349 0000 2DE9F04F 		push	{r4, r5, r6, r7, r8, r9, r10, fp, lr}
 4350              		.cfi_def_cfa_offset 36
 4351              		.cfi_offset 4, -36
 4352              		.cfi_offset 5, -32
 4353              		.cfi_offset 6, -28
 4354              		.cfi_offset 7, -24
 4355              		.cfi_offset 8, -20
 4356              		.cfi_offset 9, -16
 4357              		.cfi_offset 10, -12
 4358              		.cfi_offset 11, -8
 4359              		.cfi_offset 14, -4
 242:25519/sha256.c ****     uint32 last, padn;
 243:25519/sha256.c ****     uint32 high, low;
 244:25519/sha256.c ****     uint8 msglen[8];
 245:25519/sha256.c **** 
 246:25519/sha256.c ****     high = ( ctx->total[0] >> 29 )
 247:25519/sha256.c ****          | ( ctx->total[1] <<  3 );
 4360              		.loc 1 247 0
 4361 0004 90E88800 		ldmia	r0, {r3, r7}
 248:25519/sha256.c ****     low  = ( ctx->total[0] <<  3 );
 4362              		.loc 1 248 0
 4363 0008 DA00     		lsls	r2, r3, #3
 249:25519/sha256.c **** 
 250:25519/sha256.c ****     PUT_UINT32( high, msglen, 0 );
 251:25519/sha256.c ****     PUT_UINT32( low,  msglen, 4 );
 252:25519/sha256.c **** 
 253:25519/sha256.c ****     last = ctx->total[0] & 0x3F;
 4364              		.loc 1 253 0
 4365 000a 03F03F06 		and	r6, r3, #63
 241:25519/sha256.c **** {
 4366              		.loc 1 241 0
 4367 000e 83B0     		sub	sp, sp, #12
 4368              		.cfi_def_cfa_offset 48
 251:25519/sha256.c ****     PUT_UINT32( low,  msglen, 4 );
 4369              		.loc 1 251 0
 4370 0010 4FEA1268 		lsr	r8, r2, #24
 254:25519/sha256.c ****     padn = ( last < 56 ) ? ( 56 - last ) : ( 120 - last );
 4371              		.loc 1 254 0
 4372 0014 372E     		cmp	r6, #55
 251:25519/sha256.c ****     PUT_UINT32( low,  msglen, 4 );
 4373              		.loc 1 251 0
 4374 0016 8DF80480 		strb	r8, [sp, #4]
 4375              		.loc 1 254 0
 4376 001a 94BF     		ite	ls
 4377 001c C6F13808 		rsbls	r8, r6, #56
 4378 0020 C6F17808 		rsbhi	r8, r6, #120
 241:25519/sha256.c **** {
 4379              		.loc 1 241 0
 4380 0024 0446     		mov	r4, r0
 246:25519/sha256.c ****     high = ( ctx->total[0] >> 29 )
 4381              		.loc 1 246 0
 4382 0026 580F     		lsrs	r0, r3, #29
 4383              	.LVL296:
 4384              	.LBB20:
 4385              	.LBB21:
 4386              	.LBB22:
 4387              	.LBB23:
 202:25519/sha256.c ****     ctx->total[0] += length;
 4388              		.loc 1 202 0
 4389 0028 4344     		add	r3, r3, r8
 4390              	.LBE23:
 4391              	.LBE22:
 4392              	.LBE21:
 4393              	.LBE20:
 246:25519/sha256.c ****     high = ( ctx->total[0] >> 29 )
 4394              		.loc 1 246 0
 4395 002a 40EAC700 		orr	r0, r0, r7, lsl #3
 4396              	.LVL297:
 4397              	.LBB39:
 4398              	.LBB34:
 4399              	.LBB29:
 4400              	.LBB24:
 205:25519/sha256.c ****     if( ctx->total[0] < length )
 4401              		.loc 1 205 0
 4402 002e 9845     		cmp	r8, r3
 4403              	.LBE24:
 4404              	.LBE29:
 4405              	.LBE34:
 4406              	.LBE39:
 250:25519/sha256.c ****     PUT_UINT32( high, msglen, 0 );
 4407              		.loc 1 250 0
 4408 0030 4FEA106B 		lsr	fp, r0, #24
 4409 0034 4FEA104A 		lsr	r10, r0, #16
 4410 0038 4FEA1029 		lsr	r9, r0, #8
 251:25519/sha256.c ****     PUT_UINT32( low,  msglen, 4 );
 4411              		.loc 1 251 0
 4412 003c 4FEA124C 		lsr	ip, r2, #16
 4413 0040 4FEA122E 		lsr	lr, r2, #8
 4414              	.LBB40:
 4415              	.LBB35:
 4416              	.LBB30:
 4417              	.LBB25:
 206:25519/sha256.c ****         ctx->total[1]++;
 4418              		.loc 1 206 0
 4419 0044 88BF     		it	hi
 4420 0046 0137     		addhi	r7, r7, #1
 4421              	.LBE25:
 4422              	.LBE30:
 4423              	.LBE35:
 4424              	.LBE40:
 241:25519/sha256.c **** {
 4425              		.loc 1 241 0
 4426 0048 0D46     		mov	r5, r1
 250:25519/sha256.c ****     PUT_UINT32( high, msglen, 0 );
 4427              		.loc 1 250 0
 4428 004a 8DF80300 		strb	r0, [sp, #3]
 4429 004e 8DF800B0 		strb	fp, [sp]
 4430 0052 8DF801A0 		strb	r10, [sp, #1]
 4431 0056 8DF80290 		strb	r9, [sp, #2]
 251:25519/sha256.c ****     PUT_UINT32( low,  msglen, 4 );
 4432              		.loc 1 251 0
 4433 005a 8DF80720 		strb	r2, [sp, #7]
 4434 005e 8DF805C0 		strb	ip, [sp, #5]
 4435 0062 8DF806E0 		strb	lr, [sp, #6]
 4436              	.LBB41:
 4437              	.LBB36:
 4438              	.LBB31:
 4439              	.LBB26:
 202:25519/sha256.c ****     ctx->total[0] += length;
 4440              		.loc 1 202 0
 4441 0066 2360     		str	r3, [r4]
 206:25519/sha256.c ****         ctx->total[1]++;
 4442              		.loc 1 206 0
 4443 0068 88BF     		it	hi
 4444 006a 6760     		strhi	r7, [r4, #4]
 208:25519/sha256.c ****     if( left && length >= fill )
 4445              		.loc 1 208 0
 4446 006c 002E     		cmp	r6, #0
 4447 006e 00F0A180 		beq	.L66
 200:25519/sha256.c ****     fill = 64 - left;
 4448              		.loc 1 200 0
 4449 0072 C6F14007 		rsb	r7, r6, #64
 4450              	.LVL298:
 208:25519/sha256.c ****     if( left && length >= fill )
 4451              		.loc 1 208 0
 4452 0076 B845     		cmp	r8, r7
 4453 0078 73D2     		bcs	.L79
 4454 007a DFF89891 		ldr	r9, .L81
 4455 007e 4246     		mov	r2, r8
 4456              	.LVL299:
 4457              	.L54:
 225:25519/sha256.c ****     if( length )
 4458              		.loc 1 225 0
 4459 0080 2AB1     		cbz	r2, .L57
 227:25519/sha256.c ****         memcpy( (void *) (ctx->buffer + left),
 4460              		.loc 1 227 0
 4461 0082 06F12800 		add	r0, r6, #40
 4462 0086 2044     		add	r0, r0, r4
 4463 0088 4946     		mov	r1, r9
 4464 008a FFF7FEFF 		bl	memcpy
 4465              	.LVL300:
 4466              	.L57:
 4467              	.LBE26:
 4468              	.LBE31:
 4469              	.LBE36:
 4470              	.LBE41:
 4471              	.LBB42:
 4472              	.LBB43:
 4473              	.LBB44:
 4474              	.LBB45:
 199:25519/sha256.c ****     left = ctx->total[0] & 0x3F;
 4475              		.loc 1 199 0
 4476 008e 2268     		ldr	r2, [r4]
 202:25519/sha256.c ****     ctx->total[0] += length;
 4477              		.loc 1 202 0
 4478 0090 02F10803 		add	r3, r2, #8
 205:25519/sha256.c ****     if( ctx->total[0] < length )
 4479              		.loc 1 205 0
 4480 0094 072B     		cmp	r3, #7
 202:25519/sha256.c ****     ctx->total[0] += length;
 4481              		.loc 1 202 0
 4482 0096 2360     		str	r3, [r4]
 199:25519/sha256.c ****     left = ctx->total[0] & 0x3F;
 4483              		.loc 1 199 0
 4484 0098 02F03F08 		and	r8, r2, #63
 4485              	.LVL301:
 205:25519/sha256.c ****     if( ctx->total[0] < length )
 4486              		.loc 1 205 0
 4487 009c 02D8     		bhi	.L58
 206:25519/sha256.c ****         ctx->total[1]++;
 4488              		.loc 1 206 0
 4489 009e 6368     		ldr	r3, [r4, #4]
 4490 00a0 0133     		adds	r3, r3, #1
 4491 00a2 6360     		str	r3, [r4, #4]
 4492              	.L58:
 208:25519/sha256.c ****     if( left && length >= fill )
 4493              		.loc 1 208 0
 4494 00a4 B8F1000F 		cmp	r8, #0
 4495 00a8 05D0     		beq	.L59
 200:25519/sha256.c ****     fill = 64 - left;
 4496              		.loc 1 200 0
 4497 00aa C8F14009 		rsb	r9, r8, #64
 208:25519/sha256.c ****     if( left && length >= fill )
 4498              		.loc 1 208 0
 4499 00ae B9F1080F 		cmp	r9, #8
 4500 00b2 40F28280 		bls	.L80
 4501              	.L59:
 215:25519/sha256.c ****         left = 0;
 4502              		.loc 1 215 0
 4503 00b6 0826     		movs	r6, #8
 4504 00b8 E946     		mov	r9, sp
 4505              	.LVL302:
 4506              	.L65:
 227:25519/sha256.c ****         memcpy( (void *) (ctx->buffer + left),
 4507              		.loc 1 227 0
 4508 00ba 08F12800 		add	r0, r8, #40
 4509 00be 2044     		add	r0, r0, r4
 4510 00c0 4946     		mov	r1, r9
 4511 00c2 3246     		mov	r2, r6
 4512 00c4 FFF7FEFF 		bl	memcpy
 4513              	.LVL303:
 4514              	.L64:
 4515              	.LBE45:
 4516              	.LBE44:
 4517              	.LBE43:
 4518              	.LBE42:
 255:25519/sha256.c **** 
 256:25519/sha256.c ****     sha256_update( ctx, sha256_padding, padn );
 257:25519/sha256.c ****     sha256_update( ctx, msglen, 8 );
 258:25519/sha256.c **** 
 259:25519/sha256.c ****     PUT_UINT32( ctx->state[0], digest,  0 );
 4519              		.loc 1 259 0
 4520 00c8 E37A     		ldrb	r3, [r4, #11]	@ zero_extendqisi2
 4521 00ca 2B70     		strb	r3, [r5]
 4522 00cc 6389     		ldrh	r3, [r4, #10]
 4523 00ce 6B70     		strb	r3, [r5, #1]
 4524 00d0 A368     		ldr	r3, [r4, #8]
 4525 00d2 1B0A     		lsrs	r3, r3, #8
 4526 00d4 AB70     		strb	r3, [r5, #2]
 4527 00d6 A368     		ldr	r3, [r4, #8]
 4528 00d8 EB70     		strb	r3, [r5, #3]
 260:25519/sha256.c ****     PUT_UINT32( ctx->state[1], digest,  4 );
 4529              		.loc 1 260 0
 4530 00da E37B     		ldrb	r3, [r4, #15]	@ zero_extendqisi2
 4531 00dc 2B71     		strb	r3, [r5, #4]
 4532 00de E389     		ldrh	r3, [r4, #14]
 4533 00e0 6B71     		strb	r3, [r5, #5]
 4534 00e2 E368     		ldr	r3, [r4, #12]
 4535 00e4 1B0A     		lsrs	r3, r3, #8
 4536 00e6 AB71     		strb	r3, [r5, #6]
 4537 00e8 E368     		ldr	r3, [r4, #12]
 4538 00ea EB71     		strb	r3, [r5, #7]
 261:25519/sha256.c ****     PUT_UINT32( ctx->state[2], digest,  8 );
 4539              		.loc 1 261 0
 4540 00ec E37C     		ldrb	r3, [r4, #19]	@ zero_extendqisi2
 4541 00ee 2B72     		strb	r3, [r5, #8]
 4542 00f0 638A     		ldrh	r3, [r4, #18]
 4543 00f2 6B72     		strb	r3, [r5, #9]
 4544 00f4 2369     		ldr	r3, [r4, #16]
 4545 00f6 1B0A     		lsrs	r3, r3, #8
 4546 00f8 AB72     		strb	r3, [r5, #10]
 4547 00fa 2369     		ldr	r3, [r4, #16]
 4548 00fc EB72     		strb	r3, [r5, #11]
 262:25519/sha256.c ****     PUT_UINT32( ctx->state[3], digest, 12 );
 4549              		.loc 1 262 0
 4550 00fe E37D     		ldrb	r3, [r4, #23]	@ zero_extendqisi2
 4551 0100 2B73     		strb	r3, [r5, #12]
 4552 0102 E38A     		ldrh	r3, [r4, #22]
 4553 0104 6B73     		strb	r3, [r5, #13]
 4554 0106 6369     		ldr	r3, [r4, #20]
 4555 0108 1B0A     		lsrs	r3, r3, #8
 4556 010a AB73     		strb	r3, [r5, #14]
 4557 010c 6369     		ldr	r3, [r4, #20]
 4558 010e EB73     		strb	r3, [r5, #15]
 263:25519/sha256.c ****     PUT_UINT32( ctx->state[4], digest, 16 );
 4559              		.loc 1 263 0
 4560 0110 E37E     		ldrb	r3, [r4, #27]	@ zero_extendqisi2
 4561 0112 2B74     		strb	r3, [r5, #16]
 4562 0114 638B     		ldrh	r3, [r4, #26]
 4563 0116 6B74     		strb	r3, [r5, #17]
 4564 0118 A369     		ldr	r3, [r4, #24]
 4565 011a 1B0A     		lsrs	r3, r3, #8
 4566 011c AB74     		strb	r3, [r5, #18]
 4567 011e A369     		ldr	r3, [r4, #24]
 4568 0120 EB74     		strb	r3, [r5, #19]
 264:25519/sha256.c ****     PUT_UINT32( ctx->state[5], digest, 20 );
 4569              		.loc 1 264 0
 4570 0122 E37F     		ldrb	r3, [r4, #31]	@ zero_extendqisi2
 4571 0124 2B75     		strb	r3, [r5, #20]
 4572 0126 E38B     		ldrh	r3, [r4, #30]
 4573 0128 6B75     		strb	r3, [r5, #21]
 4574 012a E369     		ldr	r3, [r4, #28]
 4575 012c 1B0A     		lsrs	r3, r3, #8
 4576 012e AB75     		strb	r3, [r5, #22]
 4577 0130 E369     		ldr	r3, [r4, #28]
 4578 0132 EB75     		strb	r3, [r5, #23]
 265:25519/sha256.c ****     PUT_UINT32( ctx->state[6], digest, 24 );
 4579              		.loc 1 265 0
 4580 0134 94F82330 		ldrb	r3, [r4, #35]	@ zero_extendqisi2
 4581 0138 2B76     		strb	r3, [r5, #24]
 4582 013a 638C     		ldrh	r3, [r4, #34]
 4583 013c 6B76     		strb	r3, [r5, #25]
 4584 013e 236A     		ldr	r3, [r4, #32]
 4585 0140 1B0A     		lsrs	r3, r3, #8
 4586 0142 AB76     		strb	r3, [r5, #26]
 4587 0144 236A     		ldr	r3, [r4, #32]
 4588 0146 EB76     		strb	r3, [r5, #27]
 266:25519/sha256.c ****     PUT_UINT32( ctx->state[7], digest, 28 );
 4589              		.loc 1 266 0
 4590 0148 94F82730 		ldrb	r3, [r4, #39]	@ zero_extendqisi2
 4591 014c 2B77     		strb	r3, [r5, #28]
 4592 014e E38C     		ldrh	r3, [r4, #38]
 4593 0150 6B77     		strb	r3, [r5, #29]
 4594 0152 636A     		ldr	r3, [r4, #36]
 4595 0154 1B0A     		lsrs	r3, r3, #8
 4596 0156 AB77     		strb	r3, [r5, #30]
 4597 0158 636A     		ldr	r3, [r4, #36]
 4598 015a EB77     		strb	r3, [r5, #31]
 267:25519/sha256.c **** }...
 4599              		.loc 1 267 0
 4600 015c 03B0     		add	sp, sp, #12
 4601              	.LVL304:
 4602              		@ sp needed
 4603 015e BDE8F08F 		pop	{r4, r5, r6, r7, r8, r9, r10, fp, pc}
 4604              	.LVL305:
 4605              	.L79:
 4606              	.LBB52:
 4607              	.LBB37:
 4608              	.LBB32:
 4609              	.LBB27:
 210:25519/sha256.c ****         memcpy( (void *) (ctx->buffer + left),
 4610              		.loc 1 210 0
 4611 0162 DFF8B090 		ldr	r9, .L81
 4612 0166 06F12800 		add	r0, r6, #40
 4613              	.LVL306:
 4614 016a 4946     		mov	r1, r9
 4615              	.LVL307:
 4616 016c 2044     		add	r0, r0, r4
 4617 016e 3A46     		mov	r2, r7
 4618              	.LVL308:
 4619 0170 FFF7FEFF 		bl	memcpy
 4620              	.LVL309:
 212:25519/sha256.c ****         sha256_process( ctx, ctx->buffer );
 4621              		.loc 1 212 0
 4622 0174 2046     		mov	r0, r4
 4623 0176 04F12801 		add	r1, r4, #40
 213:25519/sha256.c ****         length -= fill;
 4624              		.loc 1 213 0
 4625 017a C7EB0808 		rsb	r8, r7, r8
 4626              	.LVL310:
 214:25519/sha256.c ****         input  += fill;
 4627              		.loc 1 214 0
 4628 017e B944     		add	r9, r9, r7
 212:25519/sha256.c ****         sha256_process( ctx, ctx->buffer );
 4629              		.loc 1 212 0
 4630 0180 FFF7FEFF 		bl	sha256_process
 4631              	.LVL311:
 4632              	.L53:
 218:25519/sha256.c ****     while( length >= 64 )
 4633              		.loc 1 218 0
 4634 0184 B8F13F0F 		cmp	r8, #63
 4635 0188 3AD9     		bls	.L68
 4636 018a 4746     		mov	r7, r8
 4637 018c 4E46     		mov	r6, r9
 4638              	.LVL312:
 4639              	.L56:
 220:25519/sha256.c ****         sha256_process( ctx, input );
 4640              		.loc 1 220 0
 4641 018e 3146     		mov	r1, r6
 221:25519/sha256.c ****         length -= 64;
 4642              		.loc 1 221 0
 4643 0190 403F     		subs	r7, r7, #64
 4644              	.LVL313:
 220:25519/sha256.c ****         sha256_process( ctx, input );
 4645              		.loc 1 220 0
 4646 0192 2046     		mov	r0, r4
 4647 0194 FFF7FEFF 		bl	sha256_process
 4648              	.LVL314:
 218:25519/sha256.c ****     while( length >= 64 )
 4649              		.loc 1 218 0
 4650 0198 3F2F     		cmp	r7, #63
 222:25519/sha256.c ****         input  += 64;
 4651              		.loc 1 222 0
 4652 019a 06F14006 		add	r6, r6, #64
 4653              	.LVL315:
 218:25519/sha256.c ****     while( length >= 64 )
 4654              		.loc 1 218 0
 4655 019e F6D8     		bhi	.L56
 4656 01a0 A8F14003 		sub	r3, r8, #64
 4657 01a4 23F03F03 		bic	r3, r3, #63
 4658 01a8 4033     		adds	r3, r3, #64
 4659 01aa 9944     		add	r9, r9, r3
 4660 01ac 08F03F02 		and	r2, r8, #63
 4661 01b0 0026     		movs	r6, #0
 4662              	.LVL316:
 4663 01b2 65E7     		b	.L54
 4664              	.LVL317:
 4665              	.L66:
 208:25519/sha256.c ****     if( left && length >= fill )
 4666              		.loc 1 208 0
 4667 01b4 DFF85C90 		ldr	r9, .L81
 4668 01b8 E4E7     		b	.L53
 4669              	.LVL318:
 4670              	.L80:
 4671              	.LBE27:
 4672              	.LBE32:
 4673              	.LBE37:
 4674              	.LBE52:
 4675              	.LBB53:
 4676              	.LBB50:
 4677              	.LBB48:
 4678              	.LBB46:
 210:25519/sha256.c ****         memcpy( (void *) (ctx->buffer + left),
 4679              		.loc 1 210 0
 4680 01ba 08F12800 		add	r0, r8, #40
 4681 01be 4A46     		mov	r2, r9
 4682 01c0 6946     		mov	r1, sp
 4683 01c2 2044     		add	r0, r0, r4
 4684 01c4 FFF7FEFF 		bl	memcpy
 4685              	.LVL319:
 213:25519/sha256.c ****         length -= fill;
 4686              		.loc 1 213 0
 4687 01c8 A8F13806 		sub	r6, r8, #56
 214:25519/sha256.c ****         input  += fill;
 4688              		.loc 1 214 0
 4689 01cc 00AB     		add	r3, sp, #0
 212:25519/sha256.c ****         sha256_process( ctx, ctx->buffer );
 4690              		.loc 1 212 0
 4691 01ce 2046     		mov	r0, r4
 4692 01d0 04F12801 		add	r1, r4, #40
 214:25519/sha256.c ****         input  += fill;
 4693              		.loc 1 214 0
 4694 01d4 9944     		add	r9, r9, r3
 212:25519/sha256.c ****         sha256_process( ctx, ctx->buffer );
 4695              		.loc 1 212 0
 4696 01d6 FFF7FEFF 		bl	sha256_process
 4697              	.LVL320:
 218:25519/sha256.c ****     while( length >= 64 )
 4698              		.loc 1 218 0
 4699 01da 3F2E     		cmp	r6, #63
 4700 01dc 13D9     		bls	.L60
 214:25519/sha256.c ****         input  += fill;
 4701              		.loc 1 214 0
 4702 01de 4F46     		mov	r7, r9
 4703              	.LVL321:
 4704              	.L62:
 220:25519/sha256.c ****         sha256_process( ctx, input );
 4705              		.loc 1 220 0
 4706 01e0 3946     		mov	r1, r7
 221:25519/sha256.c ****         length -= 64;
 4707              		.loc 1 221 0
 4708 01e2 403E     		subs	r6, r6, #64
 4709              	.LVL322:
 220:25519/sha256.c ****         sha256_process( ctx, input );
 4710              		.loc 1 220 0
 4711 01e4 2046     		mov	r0, r4
 4712 01e6 FFF7FEFF 		bl	sha256_process
 4713              	.LVL323:
 218:25519/sha256.c ****     while( length >= 64 )
 4714              		.loc 1 218 0
 4715 01ea 3F2E     		cmp	r6, #63
 222:25519/sha256.c ****         input  += 64;
 4716              		.loc 1 222 0
 4717 01ec 07F14007 		add	r7, r7, #64
 4718              	.LVL324:
 218:25519/sha256.c ****     while( length >= 64 )
 4719              		.loc 1 218 0
 4720 01f0 F6D8     		bhi	.L62
 4721 01f2 08F10806 		add	r6, r8, #8
 4722              	.LVL325:
 4723 01f6 A9F14009 		sub	r9, r9, #64
 215:25519/sha256.c ****         left = 0;
 4724              		.loc 1 215 0
 4725 01fa 4FF00008 		mov	r8, #0
 4726              	.LVL326:
 4727 01fe 5CE7     		b	.L65
 4728              	.LVL327:
 4729              	.L68:
 4730              	.LBE46:
 4731              	.LBE48:
 4732              	.LBE50:
 4733              	.LBE53:
 4734              	.LBB54:
 4735              	.LBB38:
 4736              	.LBB33:
 4737              	.LBB28:
 218:25519/sha256.c ****     while( length >= 64 )
 4738              		.loc 1 218 0
 4739 0200 4246     		mov	r2, r8
 4740 0202 0026     		movs	r6, #0
 4741              	.LVL328:
 4742 0204 3CE7     		b	.L54
 4743              	.LVL329:
 4744              	.L60:
 4745              	.LBE28:
 4746              	.LBE33:
 4747              	.LBE38:
 4748              	.LBE54:
 4749              	.LBB55:
 4750              	.LBB51:
 4751              	.LBB49:
 4752              	.LBB47:
 225:25519/sha256.c ****     if( length )
 4753              		.loc 1 225 0
 4754 0206 002E     		cmp	r6, #0
 4755 0208 3FF45EAF 		beq	.L64
 215:25519/sha256.c ****         left = 0;
 4756              		.loc 1 215 0
 4757 020c 4FF00008 		mov	r8, #0
 4758              	.LVL330:
 4759 0210 53E7     		b	.L65
 4760              	.L82:
 4761 0212 00BF     		.align	2
 4762              	.L81:
 4763 0214 00000000 		.word	.LANCHOR0
 4764              	.LBE47:
 4765              	.LBE49:
 4766              	.LBE51:
 4767              	.LBE55:
 4768              		.cfi_endproc
 4769              	.LFE3:
 4771              		.global	k
 4772              		.section	.data.sha256_padding,"aw",%progbits
 4773              		.align	2
 4774              		.set	.LANCHOR0,. + 0
 4777              	sha256_padding:
 4778 0000 80       		.byte	-128
 4779 0001 00       		.byte	0
 4780 0002 00       		.byte	0
 4781 0003 00       		.byte	0
 4782 0004 00       		.byte	0
 4783 0005 00       		.byte	0
 4784 0006 00       		.byte	0
 4785 0007 00       		.byte	0
 4786 0008 00       		.byte	0
 4787 0009 00       		.byte	0
 4788 000a 00       		.byte	0
 4789 000b 00       		.byte	0
 4790 000c 00       		.byte	0
 4791 000d 00       		.byte	0
 4792 000e 00       		.byte	0
 4793 000f 00       		.byte	0
 4794 0010 00       		.byte	0
 4795 0011 00       		.byte	0
 4796 0012 00       		.byte	0
 4797 0013 00       		.byte	0
 4798 0014 00       		.byte	0
 4799 0015 00       		.byte	0
 4800 0016 00       		.byte	0
 4801 0017 00       		.byte	0
 4802 0018 00       		.byte	0
 4803 0019 00       		.byte	0
 4804 001a 00       		.byte	0
 4805 001b 00       		.byte	0
 4806 001c 00       		.byte	0
 4807 001d 00       		.byte	0
 4808 001e 00       		.byte	0
 4809 001f 00       		.byte	0
 4810 0020 00       		.byte	0
 4811 0021 00       		.byte	0
 4812 0022 00       		.byte	0
 4813 0023 00       		.byte	0
 4814 0024 00       		.byte	0
 4815 0025 00       		.byte	0
 4816 0026 00       		.byte	0
 4817 0027 00       		.byte	0
 4818 0028 00       		.byte	0
 4819 0029 00       		.byte	0
 4820 002a 00       		.byte	0
 4821 002b 00       		.byte	0
 4822 002c 00       		.byte	0
