   1              		.cpu cortex-m3
   2              		.eabi_attribute 20, 1
   3              		.eabi_attribute 21, 1
   4              		.eabi_attribute 23, 3
   5              		.eabi_attribute 24, 1
   6              		.eabi_attribute 25, 1
   7              		.eabi_attribute 26, 1
   8              		.eabi_attribute 30, 4
   9              		.eabi_attribute 34, 1
  10              		.eabi_attribute 18, 4
  11              		.file	"sha256.c"
  12              		.text
  13              	.Ltext0:
  14              		.cfi_sections	.debug_frame
  15              		.section	.text.sha256_starts,"ax",%progbits
  16              		.align	1
  17              		.global	sha256_starts
  18              		.syntax unified
  19              		.thumb
  20              		.thumb_func
  21              		.fpu softvfp
  23              	sha256_starts:
  24              	.LFB0:
  25              		.file 1 "25519/sha256.c"
   1:25519/sha256.c **** #include <string.h>
   2:25519/sha256.c **** #include "sha256.h"
   3:25519/sha256.c **** 
   4:25519/sha256.c **** #define uchar unsigned char // 8-bit byte
   5:25519/sha256.c **** #define uint unsigned int // 32-bit word
   6:25519/sha256.c **** // DBL_INT_ADD treats two unsigned ints a and b as one 64-bit integer and adds c to it
   7:25519/sha256.c **** #define DBL_INT_ADD(a,b,c) if (a > 0xffffffff - (c)) ++b; a += c;
   8:25519/sha256.c **** #define ROTLEFT(a,b) (((a) << (b)) | ((a) >> (32-(b))))
   9:25519/sha256.c **** #define ROTRIGHT(a,b) (((a) >> (b)) | ((a) << (32-(b))))
  10:25519/sha256.c **** 
  11:25519/sha256.c **** #define CH(x,y,z) (((x) & (y)) ^ (~(x) & (z)))
  12:25519/sha256.c **** #define MAJ(x,y,z) (((x) & (y)) ^ ((x) & (z)) ^ ((y) & (z)))
  13:25519/sha256.c **** #define EP0(x) (ROTRIGHT(x,2) ^ ROTRIGHT(x,13) ^ ROTRIGHT(x,22))
  14:25519/sha256.c **** #define EP1(x) (ROTRIGHT(x,6) ^ ROTRIGHT(x,11) ^ ROTRIGHT(x,25))
  15:25519/sha256.c **** #define SIG0(x) (ROTRIGHT(x,7) ^ ROTRIGHT(x,18) ^ ((x) >> 3))
  16:25519/sha256.c **** #define SIG1(x) (ROTRIGHT(x,17) ^ ROTRIGHT(x,19) ^ ((x) >> 10))
  17:25519/sha256.c **** 
  18:25519/sha256.c **** uint k[64] = {
  19:25519/sha256.c ****    0x428a2f98,0x71374491,0xb5c0fbcf,0xe9b5dba5,0x3956c25b,0x59f111f1,0x923f82a4,0xab1c5ed5,
  20:25519/sha256.c ****    0xd807aa98,0x12835b01,0x243185be,0x550c7dc3,0x72be5d74,0x80deb1fe,0x9bdc06a7,0xc19bf174,
  21:25519/sha256.c ****    0xe49b69c1,0xefbe4786,0x0fc19dc6,0x240ca1cc,0x2de92c6f,0x4a7484aa,0x5cb0a9dc,0x76f988da,
  22:25519/sha256.c ****    0x983e5152,0xa831c66d,0xb00327c8,0xbf597fc7,0xc6e00bf3,0xd5a79147,0x06ca6351,0x14292967,
  23:25519/sha256.c ****    0x27b70a85,0x2e1b2138,0x4d2c6dfc,0x53380d13,0x650a7354,0x766a0abb,0x81c2c92e,0x92722c85,
  24:25519/sha256.c ****    0xa2bfe8a1,0xa81a664b,0xc24b8b70,0xc76c51a3,0xd192e819,0xd6990624,0xf40e3585,0x106aa070,
  25:25519/sha256.c ****    0x19a4c116,0x1e376c08,0x2748774c,0x34b0bcb5,0x391c0cb3,0x4ed8aa4a,0x5b9cca4f,0x682e6ff3,
  26:25519/sha256.c ****    0x748f82ee,0x78a5636f,0x84c87814,0x8cc70208,0x90befffa,0xa4506ceb,0xbef9a3f7,0xc67178f2
  27:25519/sha256.c **** };
  28:25519/sha256.c **** 
  29:25519/sha256.c **** 
  30:25519/sha256.c **** 
  31:25519/sha256.c **** #define GET_UINT32(n,b,i)                       \
  32:25519/sha256.c **** {                                               \
  33:25519/sha256.c ****     (n) = ( (uint32) (b)[(i)    ] << 24 )       \
  34:25519/sha256.c ****         | ( (uint32) (b)[(i) + 1] << 16 )       \
  35:25519/sha256.c ****         | ( (uint32) (b)[(i) + 2] <<  8 )       \
  36:25519/sha256.c ****         | ( (uint32) (b)[(i) + 3]       );      \
  37:25519/sha256.c **** }
  38:25519/sha256.c **** 
  39:25519/sha256.c **** #define PUT_UINT32(n,b,i)                       \
  40:25519/sha256.c **** {                                               \
  41:25519/sha256.c ****     (b)[(i)    ] = (uint8) ( (n) >> 24 );       \
  42:25519/sha256.c ****     (b)[(i) + 1] = (uint8) ( (n) >> 16 );       \
  43:25519/sha256.c ****     (b)[(i) + 2] = (uint8) ( (n) >>  8 );       \
  44:25519/sha256.c ****     (b)[(i) + 3] = (uint8) ( (n)       );       \
  45:25519/sha256.c **** }
  46:25519/sha256.c **** 
  47:25519/sha256.c **** void sha256_starts( sha256_context *ctx )
  48:25519/sha256.c **** {
  26              		.loc 1 48 0
  27              		.cfi_startproc
  28              		@ args = 0, pretend = 0, frame = 0
  29              		@ frame_needed = 0, uses_anonymous_args = 0
  30              		@ link register save eliminated.
  31              	.LVL0:
  49:25519/sha256.c ****     ctx->total[0] = 0;
  32              		.loc 1 49 0
  33 0000 0023     		movs	r3, #0
  50:25519/sha256.c ****     ctx->total[1] = 0;
  51:25519/sha256.c **** 
  52:25519/sha256.c ****     ctx->state[0] = 0x6A09E667;
  53:25519/sha256.c ****     ctx->state[1] = 0xBB67AE85;
  34              		.loc 1 53 0
  35 0002 0C4A     		ldr	r2, .L2
  50:25519/sha256.c ****     ctx->total[1] = 0;
  36              		.loc 1 50 0
  37 0004 C0E90033 		strd	r3, r3, [r0]
  38              		.loc 1 53 0
  39 0008 0B4B     		ldr	r3, .L2+4
  54:25519/sha256.c ****     ctx->state[2] = 0x3C6EF372;
  55:25519/sha256.c ****     ctx->state[3] = 0xA54FF53A;
  40              		.loc 1 55 0
  41 000a 0C49     		ldr	r1, .L2+8
  53:25519/sha256.c ****     ctx->state[2] = 0x3C6EF372;
  42              		.loc 1 53 0
  43 000c C0E90223 		strd	r2, r3, [r0, #8]
  44              		.loc 1 55 0
  45 0010 0B4B     		ldr	r3, .L2+12
  56:25519/sha256.c ****     ctx->state[4] = 0x510E527F;
  57:25519/sha256.c ****     ctx->state[5] = 0x9B05688C;
  46              		.loc 1 57 0
  47 0012 DFF838C0 		ldr	ip, .L2+24
  55:25519/sha256.c ****     ctx->state[4] = 0x510E527F;
  48              		.loc 1 55 0
  49 0016 C0E90413 		strd	r1, r3, [r0, #16]
  50              		.loc 1 57 0
  51 001a 0A4B     		ldr	r3, .L2+16
  52 001c C0E906C3 		strd	ip, r3, [r0, #24]
  58:25519/sha256.c ****     ctx->state[6] = 0x1F83D9AB;
  53              		.loc 1 58 0
  54 0020 094B     		ldr	r3, .L2+20
  55 0022 0362     		str	r3, [r0, #32]
  59:25519/sha256.c ****     ctx->state[7] = 0x5BE0CD19;
  56              		.loc 1 59 0
  57 0024 03F17453 		add	r3, r3, #1023410176
  58 0028 A3F52303 		sub	r3, r3, #10682368
  59 002c A3F69243 		subw	r3, r3, #3218
  60 0030 4362     		str	r3, [r0, #36]
  60:25519/sha256.c **** }
  61              		.loc 1 60 0
  62 0032 7047     		bx	lr
  63              	.L3:
  64              		.align	2
  65              	.L2:
  66 0034 67E6096A 		.word	1779033703
  67 0038 85AE67BB 		.word	-1150833019
  68 003c 72F36E3C 		.word	1013904242
  69 0040 3AF54FA5 		.word	-1521486534
  70 0044 8C68059B 		.word	-1694144372
  71 0048 ABD9831F 		.word	528734635
  72 004c 7F520E51 		.word	1359893119
  73              		.cfi_endproc
  74              	.LFE0:
  76              		.section	.text.sha256_process,"ax",%progbits
  77              		.align	1
  78              		.global	sha256_process
  79              		.syntax unified
  80              		.thumb
  81              		.thumb_func
  82              		.fpu softvfp
  84              	sha256_process:
  85              	.LFB1:
  61:25519/sha256.c **** 
  62:25519/sha256.c **** void sha256_process( sha256_context *ctx, uint8 data[64] )
  63:25519/sha256.c **** {
  86              		.loc 1 63 0
  87              		.cfi_startproc
  88              		@ args = 0, pretend = 0, frame = 104
  89              		@ frame_needed = 0, uses_anonymous_args = 0
  90              	.LVL1:
  91 0000 2DE9F04F 		push	{r4, r5, r6, r7, r8, r9, r10, fp, lr}
  92              		.cfi_def_cfa_offset 36
  93              		.cfi_offset 4, -36
  94              		.cfi_offset 5, -32
  95              		.cfi_offset 6, -28
  96              		.cfi_offset 7, -24
  97              		.cfi_offset 8, -20
  98              		.cfi_offset 9, -16
  99              		.cfi_offset 10, -12
 100              		.cfi_offset 11, -8
 101              		.cfi_offset 14, -4
 102 0004 0A68     		ldr	r2, [r1]	@ unaligned
 103 0006 4D68     		ldr	r5, [r1, #4]	@ unaligned
 104 0008 9BB0     		sub	sp, sp, #108
 105              		.cfi_def_cfa_offset 144
 106 000a 13BA     		rev	r3, r2
 107 000c 0893     		str	r3, [sp, #32]
 108 000e 2BBA     		rev	r3, r5
 109 0010 0493     		str	r3, [sp, #16]
 110 0012 CB68     		ldr	r3, [r1, #12]	@ unaligned
 111              		.loc 1 63 0
 112 0014 0090     		str	r0, [sp]
 113              	.LVL2:
 114 0016 0869     		ldr	r0, [r1, #16]	@ unaligned
 115              	.LVL3:
 116 0018 1BBA     		rev	r3, r3
 117 001a 0593     		str	r3, [sp, #20]
 118 001c 03BA     		rev	r3, r0
 119 001e 4869     		ldr	r0, [r1, #20]	@ unaligned
 120 0020 0693     		str	r3, [sp, #24]
 121 0022 03BA     		rev	r3, r0
 122 0024 8869     		ldr	r0, [r1, #24]	@ unaligned
 123 0026 0793     		str	r3, [sp, #28]
 124 0028 03BA     		rev	r3, r0
 125 002a C869     		ldr	r0, [r1, #28]	@ unaligned
 126 002c 0993     		str	r3, [sp, #36]
 127 002e 03BA     		rev	r3, r0
 128 0030 086A     		ldr	r0, [r1, #32]	@ unaligned
 129 0032 0F93     		str	r3, [sp, #60]
 130 0034 03BA     		rev	r3, r0
 131 0036 486A     		ldr	r0, [r1, #36]	@ unaligned
 132 0038 1093     		str	r3, [sp, #64]
 133 003a 03BA     		rev	r3, r0
 134 003c 886A     		ldr	r0, [r1, #40]	@ unaligned
 135 003e 0A93     		str	r3, [sp, #40]
 136 0040 03BA     		rev	r3, r0
 137 0042 0B93     		str	r3, [sp, #44]
 138 0044 CB6A     		ldr	r3, [r1, #44]	@ unaligned
 139 0046 0A6B     		ldr	r2, [r1, #48]	@ unaligned
 140 0048 1BBA     		rev	r3, r3
 141 004a 0C93     		str	r3, [sp, #48]
 142 004c 13BA     		rev	r3, r2
 143 004e 0D93     		str	r3, [sp, #52]
 144 0050 4B6B     		ldr	r3, [r1, #52]	@ unaligned
 145 0052 D1F808C0 		ldr	ip, [r1, #8]	@ unaligned
 146 0056 1BBA     		rev	r3, r3
 147 0058 0E93     		str	r3, [sp, #56]
 148 005a 8B6B     		ldr	r3, [r1, #56]	@ unaligned
 149 005c 9CFA8CFC 		rev	ip, ip
 150              	.LVL4:
 151 0060 1BBA     		rev	r3, r3
 152 0062 0293     		str	r3, [sp, #8]
 153 0064 CB6B     		ldr	r3, [r1, #60]	@ unaligned
  64:25519/sha256.c ****     uint32 temp1, temp2, W[64];
  65:25519/sha256.c ****     uint32 A, B, C, D, E, F, G, H;
  66:25519/sha256.c **** 
  67:25519/sha256.c ****     GET_UINT32( W[0],  data,  0 );
  68:25519/sha256.c ****     GET_UINT32( W[1],  data,  4 );
  69:25519/sha256.c ****     GET_UINT32( W[2],  data,  8 );
  70:25519/sha256.c ****     GET_UINT32( W[3],  data, 12 );
  71:25519/sha256.c ****     GET_UINT32( W[4],  data, 16 );
  72:25519/sha256.c ****     GET_UINT32( W[5],  data, 20 );
  73:25519/sha256.c ****     GET_UINT32( W[6],  data, 24 );
  74:25519/sha256.c ****     GET_UINT32( W[7],  data, 28 );
  75:25519/sha256.c ****     GET_UINT32( W[8],  data, 32 );
  76:25519/sha256.c ****     GET_UINT32( W[9],  data, 36 );
  77:25519/sha256.c ****     GET_UINT32( W[10], data, 40 );
  78:25519/sha256.c ****     GET_UINT32( W[11], data, 44 );
  79:25519/sha256.c ****     GET_UINT32( W[12], data, 48 );
  80:25519/sha256.c ****     GET_UINT32( W[13], data, 52 );
  81:25519/sha256.c ****     GET_UINT32( W[14], data, 56 );
  82:25519/sha256.c ****     GET_UINT32( W[15], data, 60 );
  83:25519/sha256.c **** 
  84:25519/sha256.c **** #define  SHR(x,n) ((x & 0xFFFFFFFF) >> n)
  85:25519/sha256.c **** #define ROTR(x,n) (SHR(x,n) | (x << (32 - n)))
  86:25519/sha256.c **** 
  87:25519/sha256.c **** #define S0(x) (ROTR(x, 7) ^ ROTR(x,18) ^  SHR(x, 3))
  88:25519/sha256.c **** #define S1(x) (ROTR(x,17) ^ ROTR(x,19) ^  SHR(x,10))
  89:25519/sha256.c **** 
  90:25519/sha256.c **** #define S2(x) (ROTR(x, 2) ^ ROTR(x,13) ^ ROTR(x,22))
  91:25519/sha256.c **** #define S3(x) (ROTR(x, 6) ^ ROTR(x,11) ^ ROTR(x,25))
  92:25519/sha256.c **** 
  93:25519/sha256.c **** #define F0(x,y,z) ((x & y) | (z & (x | y)))
  94:25519/sha256.c **** #define F1(x,y,z) (z ^ (x & (y ^ z)))
  95:25519/sha256.c **** 
  96:25519/sha256.c **** #define R(t)                                    \
  97:25519/sha256.c **** (                                               \
  98:25519/sha256.c ****     W[t] = S1(W[t -  2]) + W[t -  7] +          \
  99:25519/sha256.c ****            S0(W[t - 15]) + W[t - 16]            \
 100:25519/sha256.c **** )
 101:25519/sha256.c **** 
 102:25519/sha256.c **** #define P(a,b,c,d,e,f,g,h,x,K)                  \
 103:25519/sha256.c **** {                                               \
 104:25519/sha256.c ****     temp1 = h + S3(e) + F1(e,f,g) + K + x;      \
 105:25519/sha256.c ****     temp2 = S2(a) + F0(a,b,c);                  \
 106:25519/sha256.c ****     d += temp1; h = temp1 + temp2;              \
 107:25519/sha256.c **** }
 108:25519/sha256.c **** 
 109:25519/sha256.c ****     A = ctx->state[0];
 110:25519/sha256.c ****     B = ctx->state[1];
 111:25519/sha256.c ****     C = ctx->state[2];
 112:25519/sha256.c ****     D = ctx->state[3];
 113:25519/sha256.c ****     E = ctx->state[4];
 114:25519/sha256.c ****     F = ctx->state[5];
 115:25519/sha256.c ****     G = ctx->state[6];
 116:25519/sha256.c ****     H = ctx->state[7];
 117:25519/sha256.c **** 
 118:25519/sha256.c ****     P( A, B, C, D, E, F, G, H, W[ 0], 0x428A2F98 );
 119:25519/sha256.c ****     P( H, A, B, C, D, E, F, G, W[ 1], 0x71374491 );
 120:25519/sha256.c ****     P( G, H, A, B, C, D, E, F, W[ 2], 0xB5C0FBCF );
 121:25519/sha256.c ****     P( F, G, H, A, B, C, D, E, W[ 3], 0xE9B5DBA5 );
 154              		.loc 1 121 0
 155 0066 DA4F     		ldr	r7, .L5
 156 0068 1BBA     		rev	r3, r3
 157 006a 0393     		str	r3, [sp, #12]
 109:25519/sha256.c ****     B = ctx->state[1];
 158              		.loc 1 109 0
 159 006c 009B     		ldr	r3, [sp]
 160 006e 9B68     		ldr	r3, [r3, #8]
 161 0070 0193     		str	r3, [sp, #4]
 162              	.LVL5:
 110:25519/sha256.c ****     C = ctx->state[2];
 163              		.loc 1 110 0
 164 0072 009B     		ldr	r3, [sp]
 165              	.LVL6:
 166 0074 DB68     		ldr	r3, [r3, #12]
 167 0076 1493     		str	r3, [sp, #80]
 168              	.LVL7:
 111:25519/sha256.c ****     D = ctx->state[3];
 169              		.loc 1 111 0
 170 0078 009B     		ldr	r3, [sp]
 171              	.LVL8:
 172 007a 1B69     		ldr	r3, [r3, #16]
 173 007c 1793     		str	r3, [sp, #92]
 174              	.LVL9:
 112:25519/sha256.c ****     E = ctx->state[4];
 175              		.loc 1 112 0
 176 007e 009B     		ldr	r3, [sp]
 177              	.LVL10:
 178 0080 5B69     		ldr	r3, [r3, #20]
 179 0082 1893     		str	r3, [sp, #96]
 180              	.LVL11:
 113:25519/sha256.c ****     F = ctx->state[5];
 181              		.loc 1 113 0
 182 0084 009B     		ldr	r3, [sp]
 183              	.LVL12:
 184 0086 9B69     		ldr	r3, [r3, #24]
 185 0088 1293     		str	r3, [sp, #72]
 186              	.LVL13:
 114:25519/sha256.c ****     G = ctx->state[6];
 187              		.loc 1 114 0
 188 008a 009B     		ldr	r3, [sp]
 189              	.LVL14:
 118:25519/sha256.c ****     P( H, A, B, C, D, E, F, G, W[ 1], 0x71374491 );
 190              		.loc 1 118 0
 191 008c 129A     		ldr	r2, [sp, #72]
 114:25519/sha256.c ****     G = ctx->state[6];
 192              		.loc 1 114 0
 193 008e DB69     		ldr	r3, [r3, #28]
 194 0090 1593     		str	r3, [sp, #84]
 195              	.LVL15:
 115:25519/sha256.c ****     H = ctx->state[7];
 196              		.loc 1 115 0
 197 0092 009B     		ldr	r3, [sp]
 198              	.LVL16:
 199 0094 1B6A     		ldr	r3, [r3, #32]
 200 0096 1693     		str	r3, [sp, #88]
 201              	.LVL17:
 116:25519/sha256.c **** 
 202              		.loc 1 116 0
 203 0098 009B     		ldr	r3, [sp]
 204              	.LVL18:
 205 009a 5B6A     		ldr	r3, [r3, #36]
 206 009c 1993     		str	r3, [sp, #100]
 207              	.LVL19:
 118:25519/sha256.c ****     P( H, A, B, C, D, E, F, G, W[ 1], 0x71374491 );
 208              		.loc 1 118 0
 209 009e 129B     		ldr	r3, [sp, #72]
 210              	.LVL20:
 211 00a0 1999     		ldr	r1, [sp, #100]
 212              	.LVL21:
 213 00a2 4FEAF323 		ror	r3, r3, #11
 214 00a6 83EAB213 		eor	r3, r3, r2, ror #6
 215 00aa 83EA7263 		eor	r3, r3, r2, ror #25
 216 00ae C94A     		ldr	r2, .L5+4
 217 00b0 0A44     		add	r2, r2, r1
 218 00b2 1344     		add	r3, r3, r2
 219 00b4 DDE91521 		ldrd	r2, r1, [sp, #84]
 220 00b8 4A40     		eors	r2, r2, r1
 221 00ba 1299     		ldr	r1, [sp, #72]
 222 00bc 0A40     		ands	r2, r2, r1
 223 00be 1699     		ldr	r1, [sp, #88]
 224 00c0 4A40     		eors	r2, r2, r1
 225 00c2 1344     		add	r3, r3, r2
 226 00c4 089A     		ldr	r2, [sp, #32]
 227 00c6 9A18     		adds	r2, r3, r2
 228              	.LVL22:
 229 00c8 189B     		ldr	r3, [sp, #96]
 230 00ca 0199     		ldr	r1, [sp, #4]
 231 00cc 03EB0208 		add	r8, r3, r2
 232              	.LVL23:
 233 00d0 019B     		ldr	r3, [sp, #4]
 234 00d2 1498     		ldr	r0, [sp, #80]
 235 00d4 4FEA7333 		ror	r3, r3, #13
 236 00d8 83EAB103 		eor	r3, r3, r1, ror #2
 237 00dc 83EAB153 		eor	r3, r3, r1, ror #22
 238 00e0 0143     		orrs	r1, r1, r0
 239 00e2 1798     		ldr	r0, [sp, #92]
 240 00e4 149C     		ldr	r4, [sp, #80]
 241 00e6 0140     		ands	r1, r1, r0
 242 00e8 0198     		ldr	r0, [sp, #4]
 120:25519/sha256.c ****     P( F, G, H, A, B, C, D, E, W[ 3], 0xE9B5DBA5 );
 243              		.loc 1 120 0
 244 00ea 019E     		ldr	r6, [sp, #4]
 118:25519/sha256.c ****     P( H, A, B, C, D, E, F, G, W[ 1], 0x71374491 );
 245              		.loc 1 118 0
 246 00ec 2040     		ands	r0, r0, r4
 247 00ee 0143     		orrs	r1, r1, r0
 248 00f0 0B44     		add	r3, r3, r1
 249 00f2 1344     		add	r3, r3, r2
 250              	.LVL24:
 119:25519/sha256.c ****     P( G, H, A, B, C, D, E, F, W[ 2], 0xB5C0FBCF );
 251              		.loc 1 119 0
 252 00f4 1599     		ldr	r1, [sp, #84]
 253 00f6 129A     		ldr	r2, [sp, #72]
 254              	.LVL25:
 122:25519/sha256.c ****     P( E, F, G, H, A, B, C, D, W[ 4], 0x3956C25B );
 255              		.loc 1 122 0
 256 00f8 069D     		ldr	r5, [sp, #24]
 119:25519/sha256.c ****     P( G, H, A, B, C, D, E, F, W[ 2], 0xB5C0FBCF );
 257              		.loc 1 119 0
 258 00fa 82EA0100 		eor	r0, r2, r1
 259 00fe 00EA0800 		and	r0, r0, r8
 260 0102 4840     		eors	r0, r0, r1
 261 0104 B44A     		ldr	r2, .L5+8
 262 0106 1699     		ldr	r1, [sp, #88]
 263 0108 0A44     		add	r2, r2, r1
 264 010a 0499     		ldr	r1, [sp, #16]
 265 010c 0A44     		add	r2, r2, r1
 266 010e 1044     		add	r0, r0, r2
 267 0110 4FEAF822 		ror	r2, r8, #11
 268 0114 82EAB812 		eor	r2, r2, r8, ror #6
 269 0118 1799     		ldr	r1, [sp, #92]
 270 011a 82EA7862 		eor	r2, r2, r8, ror #25
 271 011e 0244     		add	r2, r2, r0
 272              	.LVL26:
 273 0120 01EB020E 		add	lr, r1, r2
 274              	.LVL27:
 275 0124 0199     		ldr	r1, [sp, #4]
 276 0126 4FEA7330 		ror	r0, r3, #13
 277 012a 1943     		orrs	r1, r1, r3
 278 012c 2140     		ands	r1, r1, r4
 279 012e 019C     		ldr	r4, [sp, #4]
 280 0130 80EAB300 		eor	r0, r0, r3, ror #2
 281 0134 1C40     		ands	r4, r4, r3
 282 0136 2143     		orrs	r1, r1, r4
 283 0138 80EAB350 		eor	r0, r0, r3, ror #22
 284 013c 0844     		add	r0, r0, r1
 285 013e 1044     		add	r0, r0, r2
 286              	.LVL28:
 120:25519/sha256.c ****     P( F, G, H, A, B, C, D, E, W[ 3], 0xE9B5DBA5 );
 287              		.loc 1 120 0
 288 0140 129A     		ldr	r2, [sp, #72]
 289              	.LVL29:
 290 0142 159C     		ldr	r4, [sp, #84]
 291 0144 82EA0801 		eor	r1, r2, r8
 292 0148 01EA0E01 		and	r1, r1, lr
 293 014c 5140     		eors	r1, r1, r2
 294 014e A34A     		ldr	r2, .L5+12
 295 0150 2244     		add	r2, r2, r4
 296 0152 6244     		add	r2, r2, ip
 297 0154 1144     		add	r1, r1, r2
 298 0156 4FEAFE22 		ror	r2, lr, #11
 299 015a 82EABE12 		eor	r2, r2, lr, ror #6
 300 015e 82EA7E62 		eor	r2, r2, lr, ror #25
 301 0162 0A44     		add	r2, r2, r1
 302              	.LVL30:
 303 0164 1499     		ldr	r1, [sp, #80]
 304 0166 43EA0004 		orr	r4, r3, r0
 305 016a 01EB020B 		add	fp, r1, r2
 306              	.LVL31:
 307 016e 4FEA7031 		ror	r1, r0, #13
 308 0172 81EAB001 		eor	r1, r1, r0, ror #2
 309 0176 3440     		ands	r4, r4, r6
 310 0178 03EA0006 		and	r6, r3, r0
 311 017c 3443     		orrs	r4, r4, r6
 312 017e 81EAB051 		eor	r1, r1, r0, ror #22
 313 0182 2144     		add	r1, r1, r4
 121:25519/sha256.c ****     P( E, F, G, H, A, B, C, D, W[ 4], 0x3956C25B );
 314              		.loc 1 121 0
 315 0184 129C     		ldr	r4, [sp, #72]
 120:25519/sha256.c ****     P( F, G, H, A, B, C, D, E, W[ 3], 0xE9B5DBA5 );
 316              		.loc 1 120 0
 317 0186 1144     		add	r1, r1, r2
 318              	.LVL32:
 121:25519/sha256.c ****     P( E, F, G, H, A, B, C, D, W[ 4], 0x3956C25B );
 319              		.loc 1 121 0
 320 0188 2744     		add	r7, r7, r4
 321 018a 88EA0E02 		eor	r2, r8, lr
 322              	.LVL33:
 323 018e 059C     		ldr	r4, [sp, #20]
 324 0190 02EA0B02 		and	r2, r2, fp
 325 0194 2744     		add	r7, r7, r4
 326 0196 82EA0802 		eor	r2, r2, r8
 327 019a 3A44     		add	r2, r2, r7
 328 019c 4FEAFB27 		ror	r7, fp, #11
 329 01a0 87EABB17 		eor	r7, r7, fp, ror #6
 330 01a4 87EA7B67 		eor	r7, r7, fp, ror #25
 331 01a8 1744     		add	r7, r7, r2
 332              	.LVL34:
 333 01aa 019A     		ldr	r2, [sp, #4]
 334 01ac 40EA0104 		orr	r4, r0, r1
 335 01b0 D619     		adds	r6, r2, r7
 336              	.LVL35:
 337 01b2 4FEA7132 		ror	r2, r1, #13
 338 01b6 00EA0109 		and	r9, r0, r1
 339 01ba 82EAB102 		eor	r2, r2, r1, ror #2
 340 01be 1C40     		ands	r4, r4, r3
 341 01c0 44EA0904 		orr	r4, r4, r9
 342 01c4 82EAB152 		eor	r2, r2, r1, ror #22
 343 01c8 2244     		add	r2, r2, r4
 344              		.loc 1 122 0
 345 01ca 854C     		ldr	r4, .L5+16
 121:25519/sha256.c ****     P( E, F, G, H, A, B, C, D, W[ 4], 0x3956C25B );
 346              		.loc 1 121 0
 347 01cc 3A44     		add	r2, r2, r7
 348              	.LVL36:
 349              		.loc 1 122 0
 350 01ce 8EEA0B07 		eor	r7, lr, fp
 351              	.LVL37:
 352 01d2 3740     		ands	r7, r7, r6
 353 01d4 2C44     		add	r4, r4, r5
 354 01d6 4FEAF62A 		ror	r10, r6, #11
 355 01da 87EA0E07 		eor	r7, r7, lr
 356 01de 4444     		add	r4, r4, r8
 357 01e0 8AEAB61A 		eor	r10, r10, r6, ror #6
 358 01e4 8AEA766A 		eor	r10, r10, r6, ror #25
 359 01e8 3C44     		add	r4, r4, r7
 360 01ea 5444     		add	r4, r4, r10
 361              	.LVL38:
 362 01ec 41EA0207 		orr	r7, r1, r2
 363 01f0 4FEA723A 		ror	r10, r2, #13
 364 01f4 01EA0208 		and	r8, r1, r2
 365              	.LVL39:
 366 01f8 8AEAB20A 		eor	r10, r10, r2, ror #2
 367 01fc 0740     		ands	r7, r7, r0
 368 01fe 47EA0807 		orr	r7, r7, r8
 369 0202 8AEAB25A 		eor	r10, r10, r2, ror #22
 370 0206 BA44     		add	r10, r10, r7
 371 0208 A244     		add	r10, r10, r4
 372 020a 2344     		add	r3, r3, r4
 373              	.LVL40:
 123:25519/sha256.c ****     P( D, E, F, G, H, A, B, C, W[ 5], 0x59F111F1 );
 374              		.loc 1 123 0
 375 020c 079D     		ldr	r5, [sp, #28]
 376 020e 754C     		ldr	r4, .L5+20
 377              	.LVL41:
 378 0210 8BEA0607 		eor	r7, fp, r6
 379 0214 2C44     		add	r4, r4, r5
 380 0216 1F40     		ands	r7, r7, r3
 381 0218 4FEAF329 		ror	r9, r3, #11
 382 021c A644     		add	lr, lr, r4
 383              	.LVL42:
 384 021e 87EA0B07 		eor	r7, r7, fp
 385 0222 89EAB319 		eor	r9, r9, r3, ror #6
 386 0226 7744     		add	r7, r7, lr
 387 0228 89EA7369 		eor	r9, r9, r3, ror #25
 388 022c 07EB0908 		add	r8, r7, r9
 389              	.LVL43:
 390 0230 00EB0804 		add	r4, r0, r8
 391              	.LVL44:
 392 0234 4FEA7A39 		ror	r9, r10, #13
 393 0238 42EA0A00 		orr	r0, r2, r10
 394 023c 02EA0A07 		and	r7, r2, r10
 395 0240 89EABA09 		eor	r9, r9, r10, ror #2
 396 0244 0840     		ands	r0, r0, r1
 397 0246 3843     		orrs	r0, r0, r7
 398 0248 89EABA59 		eor	r9, r9, r10, ror #22
 124:25519/sha256.c ****     P( C, D, E, F, G, H, A, B, W[ 6], 0x923F82A4 );
 399              		.loc 1 124 0
 400 024c 099D     		ldr	r5, [sp, #36]
 123:25519/sha256.c ****     P( D, E, F, G, H, A, B, C, W[ 5], 0x59F111F1 );
 401              		.loc 1 123 0
 402 024e 8144     		add	r9, r9, r0
 403              		.loc 1 124 0
 404 0250 6548     		ldr	r0, .L5+24
 123:25519/sha256.c ****     P( D, E, F, G, H, A, B, C, W[ 5], 0x59F111F1 );
 405              		.loc 1 123 0
 406 0252 C144     		add	r9, r9, r8
 407              	.LVL45:
 408              		.loc 1 124 0
 409 0254 86EA0308 		eor	r8, r6, r3
 410              	.LVL46:
 411 0258 2844     		add	r0, r0, r5
 412 025a 08EA0408 		and	r8, r8, r4
 413 025e 4FEAF427 		ror	r7, r4, #11
 414 0262 8344     		add	fp, fp, r0
 415              	.LVL47:
 416 0264 88EA0608 		eor	r8, r8, r6
 417 0268 87EAB417 		eor	r7, r7, r4, ror #6
 418 026c D844     		add	r8, r8, fp
 419 026e 87EA7467 		eor	r7, r7, r4, ror #25
 420 0272 08EB070E 		add	lr, r8, r7
 421              	.LVL48:
 422 0276 01EB0E00 		add	r0, r1, lr
 423              	.LVL49:
 424 027a 4FEA7937 		ror	r7, r9, #13
 425 027e 4AEA0901 		orr	r1, r10, r9
 426 0282 0AEA0908 		and	r8, r10, r9
 427 0286 87EAB907 		eor	r7, r7, r9, ror #2
 428 028a 1140     		ands	r1, r1, r2
 429 028c 41EA0801 		orr	r1, r1, r8
 430 0290 87EAB957 		eor	r7, r7, r9, ror #22
 125:25519/sha256.c ****     P( B, C, D, E, F, G, H, A, W[ 7], 0xAB1C5ED5 );
 431              		.loc 1 125 0
 432 0294 0F9D     		ldr	r5, [sp, #60]
 124:25519/sha256.c ****     P( C, D, E, F, G, H, A, B, W[ 6], 0x923F82A4 );
 433              		.loc 1 124 0
 434 0296 0F44     		add	r7, r7, r1
 435              		.loc 1 125 0
 436 0298 5449     		ldr	r1, .L5+28
 124:25519/sha256.c ****     P( C, D, E, F, G, H, A, B, W[ 6], 0x923F82A4 );
 437              		.loc 1 124 0
 438 029a 7744     		add	r7, r7, lr
 439              	.LVL50:
 440              		.loc 1 125 0
 441 029c 83EA040E 		eor	lr, r3, r4
 442              	.LVL51:
 443 02a0 0EEA000E 		and	lr, lr, r0
 444 02a4 2944     		add	r1, r1, r5
 445 02a6 4FEAF028 		ror	r8, r0, #11
 446 02aa 8EEA030E 		eor	lr, lr, r3
 447 02ae 3144     		add	r1, r1, r6
 448 02b0 88EAB018 		eor	r8, r8, r0, ror #6
 449 02b4 88EA7068 		eor	r8, r8, r0, ror #25
 450 02b8 7144     		add	r1, r1, lr
 451 02ba 4144     		add	r1, r1, r8
 452              	.LVL52:
 453 02bc 49EA0706 		orr	r6, r9, r7
 454              	.LVL53:
 455 02c0 4FEA7738 		ror	r8, r7, #13
 456 02c4 09EA070E 		and	lr, r9, r7
 457 02c8 88EAB708 		eor	r8, r8, r7, ror #2
 458 02cc 06EA0A06 		and	r6, r6, r10
 459 02d0 46EA0E06 		orr	r6, r6, lr
 460 02d4 88EAB758 		eor	r8, r8, r7, ror #22
 461 02d8 B044     		add	r8, r8, r6
 462 02da 8844     		add	r8, r8, r1
 463 02dc 0A44     		add	r2, r2, r1
 464              	.LVL54:
 126:25519/sha256.c ****     P( A, B, C, D, E, F, G, H, W[ 8], 0xD807AA98 );
 465              		.loc 1 126 0
 466 02de 109D     		ldr	r5, [sp, #64]
 467 02e0 4349     		ldr	r1, .L5+32
 468              	.LVL55:
 469 02e2 84EA0006 		eor	r6, r4, r0
 470 02e6 2944     		add	r1, r1, r5
 471 02e8 1640     		ands	r6, r6, r2
 472 02ea 4FEAF22E 		ror	lr, r2, #11
 473 02ee 6640     		eors	r6, r6, r4
 474 02f0 0B44     		add	r3, r3, r1
 475              	.LVL56:
 476 02f2 8EEAB21E 		eor	lr, lr, r2, ror #6
 477 02f6 8EEA726E 		eor	lr, lr, r2, ror #25
 478 02fa 3344     		add	r3, r3, r6
 479 02fc 7344     		add	r3, r3, lr
 480              	.LVL57:
 481 02fe 47EA0801 		orr	r1, r7, r8
 482 0302 4FEA783E 		ror	lr, r8, #13
 483 0306 07EA0806 		and	r6, r7, r8
 484 030a 8EEAB80E 		eor	lr, lr, r8, ror #2
 485 030e 01EA0901 		and	r1, r1, r9
 486 0312 3143     		orrs	r1, r1, r6
 487 0314 8EEAB85E 		eor	lr, lr, r8, ror #22
 488 0318 8E44     		add	lr, lr, r1
 489 031a 9E44     		add	lr, lr, r3
 490 031c 9A44     		add	r10, r10, r3
 491              	.LVL58:
 127:25519/sha256.c ****     P( H, A, B, C, D, E, F, G, W[ 9], 0x12835B01 );
 492              		.loc 1 127 0
 493 031e 0A9D     		ldr	r5, [sp, #40]
 494 0320 344B     		ldr	r3, .L5+36
 495              	.LVL59:
 496 0322 80EA0201 		eor	r1, r0, r2
 497 0326 2B44     		add	r3, r3, r5
 498 0328 01EA0A01 		and	r1, r1, r10
 499 032c 4FEAFA26 		ror	r6, r10, #11
 500 0330 1C44     		add	r4, r4, r3
 501              	.LVL60:
 502 0332 4140     		eors	r1, r1, r0
 503 0334 86EABA16 		eor	r6, r6, r10, ror #6
 504 0338 86EA7A66 		eor	r6, r6, r10, ror #25
 505 033c 2144     		add	r1, r1, r4
 506 033e 8C19     		adds	r4, r1, r6
 507              	.LVL61:
 508 0340 48EA0E01 		orr	r1, r8, lr
 509 0344 4FEA7E36 		ror	r6, lr, #13
 510 0348 08EA0E03 		and	r3, r8, lr
 511 034c 86EABE06 		eor	r6, r6, lr, ror #2
 512 0350 3940     		ands	r1, r1, r7
 513 0352 86EABE56 		eor	r6, r6, lr, ror #22
 514 0356 1943     		orrs	r1, r1, r3
 515 0358 3144     		add	r1, r1, r6
 516 035a 0E19     		adds	r6, r1, r4
 517 035c A144     		add	r9, r9, r4
 518              	.LVL62:
 128:25519/sha256.c ****     P( G, H, A, B, C, D, E, F, W[10], 0x243185BE );
 519              		.loc 1 128 0
 520 035e 2649     		ldr	r1, .L5+40
 521 0360 0B9C     		ldr	r4, [sp, #44]
 522              	.LVL63:
 523 0362 82EA0A03 		eor	r3, r2, r10
 524 0366 03EA0903 		and	r3, r3, r9
 525 036a 2144     		add	r1, r1, r4
 526 036c 4FEAF92B 		ror	fp, r9, #11
 527 0370 5340     		eors	r3, r3, r2
 528 0372 0144     		add	r1, r1, r0
 529 0374 8BEAB91B 		eor	fp, fp, r9, ror #6
 530 0378 8BEA796B 		eor	fp, fp, r9, ror #25
 531 037c 1944     		add	r1, r1, r3
 532 037e 5944     		add	r1, r1, fp
 533              	.LVL64:
 534 0380 4EEA0603 		orr	r3, lr, r6
 535 0384 4FEA763B 		ror	fp, r6, #13
 536 0388 0EEA0600 		and	r0, lr, r6
 537              	.LVL65:
 538 038c 8BEAB60B 		eor	fp, fp, r6, ror #2
 539 0390 03EA0803 		and	r3, r3, r8
 540 0394 0343     		orrs	r3, r3, r0
 541 0396 8BEAB65B 		eor	fp, fp, r6, ror #22
 129:25519/sha256.c ****     P( F, G, H, A, B, C, D, E, W[11], 0x550C7DC3 );
 542              		.loc 1 129 0
 543 039a 0C98     		ldr	r0, [sp, #48]
 128:25519/sha256.c ****     P( G, H, A, B, C, D, E, F, W[10], 0x243185BE );
 544              		.loc 1 128 0
 545 039c 9B44     		add	fp, fp, r3
 546              		.loc 1 129 0
 547 039e 174B     		ldr	r3, .L5+44
 128:25519/sha256.c ****     P( G, H, A, B, C, D, E, F, W[10], 0x243185BE );
 548              		.loc 1 128 0
 549 03a0 8B44     		add	fp, fp, r1
 550 03a2 0F44     		add	r7, r7, r1
 551              	.LVL66:
 552              		.loc 1 129 0
 553 03a4 8AEA0901 		eor	r1, r10, r9
 554              	.LVL67:
 555 03a8 0344     		add	r3, r3, r0
 556 03aa 3940     		ands	r1, r1, r7
 557 03ac 4FEAF724 		ror	r4, r7, #11
 558 03b0 81EA0A01 		eor	r1, r1, r10
 559 03b4 1A44     		add	r2, r2, r3
 560              	.LVL68:
 561 03b6 84EAB714 		eor	r4, r4, r7, ror #6
 562 03ba 84EA7764 		eor	r4, r4, r7, ror #25
 563 03be 0A44     		add	r2, r2, r1
 564 03c0 2244     		add	r2, r2, r4
 565              	.LVL69:
 566 03c2 46EA0B03 		orr	r3, r6, fp
 567 03c6 4FEA7B34 		ror	r4, fp, #13
 568 03ca 06EA0B01 		and	r1, r6, fp
 569 03ce 17E0     		b	.L6
 570              	.L7:
 571              		.align	2
 572              	.L5:
 573 03d0 A5DBB5E9 		.word	-373957723
 574 03d4 982F8A42 		.word	1116352408
 575 03d8 91443771 		.word	1899447441
 576 03dc CFFBC0B5 		.word	-1245643825
 577 03e0 5BC25639 		.word	961987163
 578 03e4 F111F159 		.word	1508970993
 579 03e8 A4823F92 		.word	-1841331548
 580 03ec D55E1CAB 		.word	-1424204075
 581 03f0 98AA07D8 		.word	-670586216
 582 03f4 015B8312 		.word	310598401
 583 03f8 BE853124 		.word	607225278
 584 03fc C37D0C55 		.word	1426881987
 585              	.L6:
 586 0400 84EABB04 		eor	r4, r4, fp, ror #2
 587 0404 03EA0E03 		and	r3, r3, lr
 588 0408 0B43     		orrs	r3, r3, r1
 589 040a 84EABB54 		eor	r4, r4, fp, ror #22
 590 040e 1C44     		add	r4, r4, r3
 591 0410 1444     		add	r4, r4, r2
 592 0412 9044     		add	r8, r8, r2
 593              	.LVL70:
 130:25519/sha256.c ****     P( E, F, G, H, A, B, C, D, W[12], 0x72BE5D74 );
 594              		.loc 1 130 0
 595 0414 0D9B     		ldr	r3, [sp, #52]
 596 0416 E74A     		ldr	r2, .L8
 597              	.LVL71:
 598 0418 89EA0701 		eor	r1, r9, r7
 599 041c 1A44     		add	r2, r2, r3
 600 041e 01EA0801 		and	r1, r1, r8
 601 0422 81EA0901 		eor	r1, r1, r9
 602 0426 9244     		add	r10, r10, r2
 603              	.LVL72:
 604 0428 01EB0A03 		add	r3, r1, r10
 605 042c 4FEAF82A 		ror	r10, r8, #11
 606 0430 8AEAB81A 		eor	r10, r10, r8, ror #6
 607 0434 8AEA786A 		eor	r10, r10, r8, ror #25
 608 0438 9A44     		add	r10, r10, r3
 609              	.LVL73:
 610 043a 4BEA0402 		orr	r2, fp, r4
 611 043e 4FEA7433 		ror	r3, r4, #13
 612 0442 0BEA0401 		and	r1, fp, r4
 613 0446 83EAB403 		eor	r3, r3, r4, ror #2
 614 044a 3240     		ands	r2, r2, r6
 615 044c 0A43     		orrs	r2, r2, r1
 616 044e 83EAB453 		eor	r3, r3, r4, ror #22
 131:25519/sha256.c ****     P( D, E, F, G, H, A, B, C, W[13], 0x80DEB1FE );
 617              		.loc 1 131 0
 618 0452 0E98     		ldr	r0, [sp, #56]
 130:25519/sha256.c ****     P( E, F, G, H, A, B, C, D, W[12], 0x72BE5D74 );
 619              		.loc 1 130 0
 620 0454 1344     		add	r3, r3, r2
 621              		.loc 1 131 0
 622 0456 D84A     		ldr	r2, .L8+4
 130:25519/sha256.c ****     P( E, F, G, H, A, B, C, D, W[12], 0x72BE5D74 );
 623              		.loc 1 130 0
 624 0458 D644     		add	lr, lr, r10
 625              	.LVL74:
 626              		.loc 1 131 0
 627 045a 87EA0801 		eor	r1, r7, r8
 628 045e 0244     		add	r2, r2, r0
 629 0460 01EA0E01 		and	r1, r1, lr
 630 0464 7940     		eors	r1, r1, r7
 631 0466 9144     		add	r9, r9, r2
 632              	.LVL75:
 130:25519/sha256.c ****     P( E, F, G, H, A, B, C, D, W[12], 0x72BE5D74 );
 633              		.loc 1 130 0
 634 0468 5344     		add	r3, r3, r10
 635              	.LVL76:
 636              		.loc 1 131 0
 637 046a 01EB090A 		add	r10, r1, r9
 638              	.LVL77:
 639 046e 4FEAFE29 		ror	r9, lr, #11
 640 0472 89EABE19 		eor	r9, r9, lr, ror #6
 641 0476 89EA7E69 		eor	r9, r9, lr, ror #25
 642 047a D144     		add	r9, r9, r10
 643              	.LVL78:
 644 047c 44EA0302 		orr	r2, r4, r3
 645 0480 4FEA733A 		ror	r10, r3, #13
 646 0484 04EA0300 		and	r0, r4, r3
 647 0488 8AEAB30A 		eor	r10, r10, r3, ror #2
 648 048c 02EA0B02 		and	r2, r2, fp
 649 0490 0243     		orrs	r2, r2, r0
 650 0492 8AEAB35A 		eor	r10, r10, r3, ror #22
 132:25519/sha256.c ****     P( C, D, E, F, G, H, A, B, W[14], 0x9BDC06A7 );
 651              		.loc 1 132 0
 652 0496 029D     		ldr	r5, [sp, #8]
 131:25519/sha256.c ****     P( D, E, F, G, H, A, B, C, W[13], 0x80DEB1FE );
 653              		.loc 1 131 0
 654 0498 9244     		add	r10, r10, r2
 655              		.loc 1 132 0
 656 049a C84A     		ldr	r2, .L8+8
 131:25519/sha256.c ****     P( D, E, F, G, H, A, B, C, W[13], 0x80DEB1FE );
 657              		.loc 1 131 0
 658 049c 06EB0901 		add	r1, r6, r9
 659              	.LVL79:
 660              		.loc 1 132 0
 661 04a0 88EA0E00 		eor	r0, r8, lr
 662 04a4 2A44     		add	r2, r2, r5
 663 04a6 0840     		ands	r0, r0, r1
 664 04a8 80EA0800 		eor	r0, r0, r8
 665 04ac 1744     		add	r7, r7, r2
 666              	.LVL80:
 131:25519/sha256.c ****     P( D, E, F, G, H, A, B, C, W[13], 0x80DEB1FE );
 667              		.loc 1 131 0
 668 04ae CA44     		add	r10, r10, r9
 669              	.LVL81:
 670              		.loc 1 132 0
 671 04b0 00EB0709 		add	r9, r0, r7
 672              	.LVL82:
 673 04b4 4FEAF127 		ror	r7, r1, #11
 674 04b8 87EAB117 		eor	r7, r7, r1, ror #6
 675 04bc 87EA7167 		eor	r7, r7, r1, ror #25
 676 04c0 4F44     		add	r7, r7, r9
 677              	.LVL83:
 678 04c2 43EA0A02 		orr	r2, r3, r10
 679 04c6 4FEA7A39 		ror	r9, r10, #13
 680 04ca 03EA0A00 		and	r0, r3, r10
 681 04ce 89EABA09 		eor	r9, r9, r10, ror #2
 682 04d2 2240     		ands	r2, r2, r4
 683 04d4 0243     		orrs	r2, r2, r0
 684 04d6 89EABA59 		eor	r9, r9, r10, ror #22
 133:25519/sha256.c ****     P( B, C, D, E, F, G, H, A, W[15], 0xC19BF174 );
 685              		.loc 1 133 0
 686 04da 039D     		ldr	r5, [sp, #12]
 132:25519/sha256.c ****     P( C, D, E, F, G, H, A, B, W[14], 0x9BDC06A7 );
 687              		.loc 1 132 0
 688 04dc 9144     		add	r9, r9, r2
 689              		.loc 1 133 0
 690 04de B84A     		ldr	r2, .L8+12
 132:25519/sha256.c ****     P( C, D, E, F, G, H, A, B, W[14], 0x9BDC06A7 );
 691              		.loc 1 132 0
 692 04e0 BB44     		add	fp, fp, r7
 693              	.LVL84:
 694              		.loc 1 133 0
 695 04e2 8EEA0100 		eor	r0, lr, r1
 696 04e6 2A44     		add	r2, r2, r5
 697 04e8 00EA0B00 		and	r0, r0, fp
 698 04ec 80EA0E00 		eor	r0, r0, lr
 699 04f0 9044     		add	r8, r8, r2
 700              	.LVL85:
 132:25519/sha256.c ****     P( C, D, E, F, G, H, A, B, W[14], 0x9BDC06A7 );
 701              		.loc 1 132 0
 702 04f2 B944     		add	r9, r9, r7
 703              	.LVL86:
 704              		.loc 1 133 0
 705 04f4 00EB0807 		add	r7, r0, r8
 706              	.LVL87:
 707 04f8 4FEAFB28 		ror	r8, fp, #11
 708 04fc 88EABB18 		eor	r8, r8, fp, ror #6
 709 0500 88EA7B68 		eor	r8, r8, fp, ror #25
 710 0504 B844     		add	r8, r8, r7
 711              	.LVL88:
 712 0506 4AEA0902 		orr	r2, r10, r9
 713 050a 4FEA7937 		ror	r7, r9, #13
 714 050e 0AEA0900 		and	r0, r10, r9
 715 0512 87EAB907 		eor	r7, r7, r9, ror #2
 716 0516 1A40     		ands	r2, r2, r3
 717 0518 0243     		orrs	r2, r2, r0
 718 051a 87EAB957 		eor	r7, r7, r9, ror #22
 719 051e 1744     		add	r7, r7, r2
 134:25519/sha256.c ****     P( A, B, C, D, E, F, G, H, R(16), 0xE49B69C1 );
 720              		.loc 1 134 0
 721 0520 029A     		ldr	r2, [sp, #8]
 133:25519/sha256.c ****     P( B, C, D, E, F, G, H, A, W[15], 0xC19BF174 );
 722              		.loc 1 133 0
 723 0522 4444     		add	r4, r4, r8
 724              	.LVL89:
 725 0524 4744     		add	r7, r7, r8
 726              	.LVL90:
 727              		.loc 1 134 0
 728 0526 4FEAF248 		ror	r8, r2, #19
 729              	.LVL91:
 730 052a 88EA7248 		eor	r8, r8, r2, ror #17
 731 052e 0A98     		ldr	r0, [sp, #40]
 732 0530 88EA9228 		eor	r8, r8, r2, lsr #10
 733 0534 089A     		ldr	r2, [sp, #32]
 734 0536 4FEAF426 		ror	r6, r4, #11
 735 053a 0244     		add	r2, r2, r0
 736 053c 9044     		add	r8, r8, r2
 737 053e 049A     		ldr	r2, [sp, #16]
 738 0540 0498     		ldr	r0, [sp, #16]
 739 0542 4FEAB242 		ror	r2, r2, #18
 740 0546 82EAF012 		eor	r2, r2, r0, ror #7
 741 054a 82EAD002 		eor	r2, r2, r0, lsr #3
 742 054e 9044     		add	r8, r8, r2
 743 0550 9C4A     		ldr	r2, .L8+16
 744 0552 81EA0B00 		eor	r0, r1, fp
 745 0556 2040     		ands	r0, r0, r4
 746 0558 4244     		add	r2, r2, r8
 747 055a 4840     		eors	r0, r0, r1
 748 055c 7244     		add	r2, r2, lr
 749 055e 86EAB416 		eor	r6, r6, r4, ror #6
 750 0562 86EA7466 		eor	r6, r6, r4, ror #25
 751 0566 0244     		add	r2, r2, r0
 752 0568 3244     		add	r2, r2, r6
 753              	.LVL92:
 754 056a 49EA0700 		orr	r0, r9, r7
 755 056e 4FEA7736 		ror	r6, r7, #13
 756 0572 09EA070E 		and	lr, r9, r7
 757              	.LVL93:
 758 0576 86EAB706 		eor	r6, r6, r7, ror #2
 759 057a 00EA0A00 		and	r0, r0, r10
 760 057e 40EA0E00 		orr	r0, r0, lr
 761 0582 86EAB756 		eor	r6, r6, r7, ror #22
 135:25519/sha256.c ****     P( H, A, B, C, D, E, F, G, R(17), 0xEFBE4786 );
 762              		.loc 1 135 0
 763 0586 4FEAF54E 		ror	lr, r5, #19
 764 058a 8EEA754E 		eor	lr, lr, r5, ror #17
 134:25519/sha256.c ****     P( A, B, C, D, E, F, G, H, R(16), 0xE49B69C1 );
 765              		.loc 1 134 0
 766 058e 0644     		add	r6, r6, r0
 767 0590 1644     		add	r6, r6, r2
 768 0592 1344     		add	r3, r3, r2
 769              	.LVL94:
 770              		.loc 1 135 0
 771 0594 0B98     		ldr	r0, [sp, #44]
 772 0596 8EEA9522 		eor	r2, lr, r5, lsr #10
 773              	.LVL95:
 774 059a 049D     		ldr	r5, [sp, #16]
 775 059c 0544     		add	r5, r5, r0
 776 059e AE46     		mov	lr, r5
 777 05a0 9644     		add	lr, lr, r2
 778 05a2 4FEABC42 		ror	r2, ip, #18
 779 05a6 82EAFC12 		eor	r2, r2, ip, ror #7
 780 05aa 82EADC02 		eor	r2, r2, ip, lsr #3
 781 05ae 9644     		add	lr, lr, r2
 782 05b0 854A     		ldr	r2, .L8+20
 783 05b2 8BEA0400 		eor	r0, fp, r4
 784 05b6 7244     		add	r2, r2, lr
 785 05b8 1840     		ands	r0, r0, r3
 786 05ba 80EA0B00 		eor	r0, r0, fp
 787 05be 1144     		add	r1, r1, r2
 788              	.LVL96:
 789 05c0 4518     		adds	r5, r0, r1
 790 05c2 4FEAF321 		ror	r1, r3, #11
 791 05c6 81EAB311 		eor	r1, r1, r3, ror #6
 792 05ca 81EA7361 		eor	r1, r1, r3, ror #25
 793 05ce 2944     		add	r1, r1, r5
 794              	.LVL97:
 795 05d0 47EA0602 		orr	r2, r7, r6
 796 05d4 4FEA7635 		ror	r5, r6, #13
 797 05d8 07EA0600 		and	r0, r7, r6
 798 05dc 85EAB605 		eor	r5, r5, r6, ror #2
 799 05e0 02EA0902 		and	r2, r2, r9
 800 05e4 0243     		orrs	r2, r2, r0
 801 05e6 85EAB655 		eor	r5, r5, r6, ror #22
 802 05ea 1544     		add	r5, r5, r2
 136:25519/sha256.c ****     P( G, H, A, B, C, D, E, F, R(18), 0x0FC19DC6 );
 803              		.loc 1 136 0
 804 05ec 059A     		ldr	r2, [sp, #20]
 135:25519/sha256.c ****     P( H, A, B, C, D, E, F, G, R(17), 0xEFBE4786 );
 805              		.loc 1 135 0
 806 05ee 0D44     		add	r5, r5, r1
 807 05f0 8A44     		add	r10, r10, r1
 808              	.LVL98:
 809              		.loc 1 136 0
 810 05f2 0599     		ldr	r1, [sp, #20]
 811              	.LVL99:
 812 05f4 4FEAB242 		ror	r2, r2, #18
 813 05f8 82EAF112 		eor	r2, r2, r1, ror #7
 814 05fc 82EAD102 		eor	r2, r2, r1, lsr #3
 815 0600 0C99     		ldr	r1, [sp, #48]
 816 0602 84EA0300 		eor	r0, r4, r3
 817 0606 8C44     		add	ip, ip, r1
 818 0608 9444     		add	ip, ip, r2
 819 060a 4FEAF842 		ror	r2, r8, #19
 820 060e 82EA7842 		eor	r2, r2, r8, ror #17
 821 0612 82EA9822 		eor	r2, r2, r8, lsr #10
 822 0616 9444     		add	ip, ip, r2
 823 0618 6C4A     		ldr	r2, .L8+24
 824 061a 00EA0A00 		and	r0, r0, r10
 825 061e 6244     		add	r2, r2, ip
 826 0620 6040     		eors	r0, r0, r4
 827 0622 9344     		add	fp, fp, r2
 828              	.LVL100:
 829 0624 00EB0B01 		add	r1, r0, fp
 830 0628 4FEAFA2B 		ror	fp, r10, #11
 831 062c 8BEABA1B 		eor	fp, fp, r10, ror #6
 832 0630 8BEA7A6B 		eor	fp, fp, r10, ror #25
 833 0634 8B44     		add	fp, fp, r1
 834              	.LVL101:
 835 0636 46EA0502 		orr	r2, r6, r5
 836 063a 4FEA7531 		ror	r1, r5, #13
 837 063e 06EA0500 		and	r0, r6, r5
 838 0642 81EAB501 		eor	r1, r1, r5, ror #2
 839 0646 3A40     		ands	r2, r2, r7
 840 0648 0243     		orrs	r2, r2, r0
 841 064a 81EAB551 		eor	r1, r1, r5, ror #22
 842 064e 1144     		add	r1, r1, r2
 843 0650 01EB0B02 		add	r2, r1, fp
 844 0654 0892     		str	r2, [sp, #32]
 137:25519/sha256.c ****     P( F, G, H, A, B, C, D, E, R(19), 0x240CA1CC );
 845              		.loc 1 137 0
 846 0656 069A     		ldr	r2, [sp, #24]
 847 0658 0698     		ldr	r0, [sp, #24]
 848 065a 4FEAB242 		ror	r2, r2, #18
 849 065e 82EAF012 		eor	r2, r2, r0, ror #7
 850 0662 0D99     		ldr	r1, [sp, #52]
 851 0664 82EAD002 		eor	r2, r2, r0, lsr #3
 852 0668 0598     		ldr	r0, [sp, #20]
 136:25519/sha256.c ****     P( G, H, A, B, C, D, E, F, R(18), 0x0FC19DC6 );
 853              		.loc 1 136 0
 854 066a D944     		add	r9, r9, fp
 855              	.LVL102:
 856              		.loc 1 137 0
 857 066c 0844     		add	r0, r0, r1
 858 066e 0244     		add	r2, r2, r0
 859 0670 4FEAFE40 		ror	r0, lr, #19
 860 0674 80EA7E40 		eor	r0, r0, lr, ror #17
 861 0678 80EA9E20 		eor	r0, r0, lr, lsr #10
 862 067c 0244     		add	r2, r2, r0
 863 067e 5448     		ldr	r0, .L8+28
 864 0680 83EA0A0B 		eor	fp, r3, r10
 865              	.LVL103:
 866 0684 0492     		str	r2, [sp, #16]
 867 0686 0BEA090B 		and	fp, fp, r9
 868 068a 1044     		add	r0, r0, r2
 869 068c 4FEAF922 		ror	r2, r9, #11
 870 0690 8BEA030B 		eor	fp, fp, r3
 871 0694 2044     		add	r0, r0, r4
 872 0696 82EAB912 		eor	r2, r2, r9, ror #6
 873 069a 82EA7962 		eor	r2, r2, r9, ror #25
 874 069e 5844     		add	r0, r0, fp
 875 06a0 0899     		ldr	r1, [sp, #32]
 876 06a2 1044     		add	r0, r0, r2
 877              	.LVL104:
 878 06a4 089A     		ldr	r2, [sp, #32]
 879 06a6 45EA0104 		orr	r4, r5, r1
 880              	.LVL105:
 881 06aa 4FEA7232 		ror	r2, r2, #13
 882 06ae 05EA010B 		and	fp, r5, r1
 883 06b2 82EAB102 		eor	r2, r2, r1, ror #2
 884 06b6 3440     		ands	r4, r4, r6
 885 06b8 44EA0B04 		orr	r4, r4, fp
 886 06bc 82EAB152 		eor	r2, r2, r1, ror #22
 138:25519/sha256.c ****     P( E, F, G, H, A, B, C, D, R(20), 0x2DE92C6F );
 887              		.loc 1 138 0
 888 06c0 0799     		ldr	r1, [sp, #28]
 137:25519/sha256.c ****     P( F, G, H, A, B, C, D, E, R(19), 0x240CA1CC );
 889              		.loc 1 137 0
 890 06c2 2244     		add	r2, r2, r4
 891 06c4 0244     		add	r2, r2, r0
 892 06c6 0744     		add	r7, r7, r0
 893              	.LVL106:
 894              		.loc 1 138 0
 895 06c8 4FEAB140 		ror	r0, r1, #18
 896              	.LVL107:
 897 06cc 80EAF110 		eor	r0, r0, r1, ror #7
 898 06d0 80EAD104 		eor	r4, r0, r1, lsr #3
 899 06d4 0699     		ldr	r1, [sp, #24]
 900 06d6 0E98     		ldr	r0, [sp, #56]
 901 06d8 8AEA090B 		eor	fp, r10, r9
 902 06dc 0818     		adds	r0, r1, r0
 903 06de 2044     		add	r0, r0, r4
 904 06e0 4FEAFC44 		ror	r4, ip, #19
 905 06e4 84EA7C44 		eor	r4, r4, ip, ror #17
 906 06e8 84EA9C24 		eor	r4, r4, ip, lsr #10
 907 06ec 0119     		adds	r1, r0, r4
 908 06ee 394C     		ldr	r4, .L8+32
 909 06f0 0BEA070B 		and	fp, fp, r7
 910 06f4 0C44     		add	r4, r4, r1
 911 06f6 4FEAF720 		ror	r0, r7, #11
 912 06fa 0591     		str	r1, [sp, #20]
 913 06fc 8BEA0A0B 		eor	fp, fp, r10
 914 0700 0899     		ldr	r1, [sp, #32]
 915 0702 2344     		add	r3, r3, r4
 916              	.LVL108:
 917 0704 80EAB710 		eor	r0, r0, r7, ror #6
 918 0708 5B44     		add	r3, r3, fp
 919 070a 80EA7760 		eor	r0, r0, r7, ror #25
 920 070e 1844     		add	r0, r0, r3
 921              	.LVL109:
 922 0710 41EA0204 		orr	r4, r1, r2
 923 0714 4FEA7233 		ror	r3, r2, #13
 924 0718 01EA020B 		and	fp, r1, r2
 925 071c 83EAB203 		eor	r3, r3, r2, ror #2
 926 0720 2C40     		ands	r4, r4, r5
 139:25519/sha256.c ****     P( D, E, F, G, H, A, B, C, R(21), 0x4A7484AA );
 927              		.loc 1 139 0
 928 0722 0999     		ldr	r1, [sp, #36]
 138:25519/sha256.c ****     P( E, F, G, H, A, B, C, D, R(20), 0x2DE92C6F );
 929              		.loc 1 138 0
 930 0724 44EA0B04 		orr	r4, r4, fp
 931 0728 83EAB253 		eor	r3, r3, r2, ror #22
 932 072c 2344     		add	r3, r3, r4
 933 072e 0344     		add	r3, r3, r0
 934 0730 0644     		add	r6, r6, r0
 935              	.LVL110:
 936              		.loc 1 139 0
 937 0732 4FEAB140 		ror	r0, r1, #18
 938              	.LVL111:
 939 0736 80EAF110 		eor	r0, r0, r1, ror #7
 940 073a 80EAD104 		eor	r4, r0, r1, lsr #3
 941 073e 0799     		ldr	r1, [sp, #28]
 942 0740 0298     		ldr	r0, [sp, #8]
 943 0742 4FEAF62B 		ror	fp, r6, #11
 944 0746 0818     		adds	r0, r1, r0
 945 0748 0499     		ldr	r1, [sp, #16]
 946 074a 2044     		add	r0, r0, r4
 947 074c 4FEAF144 		ror	r4, r1, #19
 948 0750 84EA7144 		eor	r4, r4, r1, ror #17
 949 0754 84EA9124 		eor	r4, r4, r1, lsr #10
 950 0758 0119     		adds	r1, r0, r4
 951 075a 1F48     		ldr	r0, .L8+36
 952 075c 89EA0704 		eor	r4, r9, r7
 953 0760 0844     		add	r0, r0, r1
 954 0762 3440     		ands	r4, r4, r6
 955 0764 84EA0904 		eor	r4, r4, r9
 956 0768 8244     		add	r10, r10, r0
 957              	.LVL112:
 958 076a 8BEAB61B 		eor	fp, fp, r6, ror #6
 959 076e 0691     		str	r1, [sp, #24]
 960 0770 8BEA766B 		eor	fp, fp, r6, ror #25
 961 0774 0899     		ldr	r1, [sp, #32]
 962 0776 A244     		add	r10, r10, r4
 963 0778 DA44     		add	r10, r10, fp
 964              	.LVL113:
 965 077a 42EA0300 		orr	r0, r2, r3
 966 077e 4FEA733B 		ror	fp, r3, #13
 967 0782 02EA0304 		and	r4, r2, r3
 968 0786 8BEAB30B 		eor	fp, fp, r3, ror #2
 969 078a 0840     		ands	r0, r0, r1
 140:25519/sha256.c ****     P( C, D, E, F, G, H, A, B, R(22), 0x5CB0A9DC );
 970              		.loc 1 140 0
 971 078c 0F99     		ldr	r1, [sp, #60]
 139:25519/sha256.c ****     P( D, E, F, G, H, A, B, C, R(21), 0x4A7484AA );
 972              		.loc 1 139 0
 973 078e 2043     		orrs	r0, r0, r4
 974 0790 8BEAB35B 		eor	fp, fp, r3, ror #22
 975 0794 8344     		add	fp, fp, r0
 976              		.loc 1 140 0
 977 0796 4FEAB140 		ror	r0, r1, #18
 978 079a 80EAF110 		eor	r0, r0, r1, ror #7
 979 079e 80EAD104 		eor	r4, r0, r1, lsr #3
 980 07a2 0999     		ldr	r1, [sp, #36]
 981 07a4 0398     		ldr	r0, [sp, #12]
 139:25519/sha256.c ****     P( D, E, F, G, H, A, B, C, R(21), 0x4A7484AA );
 982              		.loc 1 139 0
 983 07a6 5544     		add	r5, r5, r10
 984              	.LVL114:
 985              		.loc 1 140 0
 986 07a8 0818     		adds	r0, r1, r0
 987 07aa 0599     		ldr	r1, [sp, #20]
 988 07ac 2044     		add	r0, r0, r4
 989 07ae 4FEAF144 		ror	r4, r1, #19
 990 07b2 13E0     		b	.L9
 991              	.L10:
 992              		.align	2
 993              	.L8:
 994 07b4 745DBE72 		.word	1925078388
 995 07b8 FEB1DE80 		.word	-2132889090
 996 07bc A706DC9B 		.word	-1680079193
 997 07c0 74F19BC1 		.word	-1046744716
 998 07c4 C1699BE4 		.word	-459576895
 999 07c8 8647BEEF 		.word	-272742522
 1000 07cc C69DC10F 		.word	264347078
 1001 07d0 CCA10C24 		.word	604807628
 1002 07d4 6F2CE92D 		.word	770255983
 1003 07d8 AA84744A 		.word	1249150122
 1004              	.L9:
 1005 07dc 84EA7144 		eor	r4, r4, r1, ror #17
 1006 07e0 84EA9124 		eor	r4, r4, r1, lsr #10
 1007 07e4 0119     		adds	r1, r0, r4
 1008 07e6 DB48     		ldr	r0, .L11
 1009 07e8 87EA0604 		eor	r4, r7, r6
 139:25519/sha256.c ****     P( D, E, F, G, H, A, B, C, R(21), 0x4A7484AA );
 1010              		.loc 1 139 0
 1011 07ec D344     		add	fp, fp, r10
 1012              	.LVL115:
 1013              		.loc 1 140 0
 1014 07ee 0844     		add	r0, r0, r1
 1015 07f0 2C40     		ands	r4, r4, r5
 1016 07f2 4FEAF52A 		ror	r10, r5, #11
 1017              	.LVL116:
 1018 07f6 7C40     		eors	r4, r4, r7
 1019 07f8 8144     		add	r9, r9, r0
 1020              	.LVL117:
 1021 07fa 8AEAB51A 		eor	r10, r10, r5, ror #6
 1022 07fe 8AEA756A 		eor	r10, r10, r5, ror #25
 1023 0802 A144     		add	r9, r9, r4
 1024 0804 D144     		add	r9, r9, r10
 1025 0806 43EA0B00 		orr	r0, r3, fp
 1026 080a 4FEA7B3A 		ror	r10, fp, #13
 1027 080e 03EA0B04 		and	r4, r3, fp
 1028 0812 8AEABB0A 		eor	r10, r10, fp, ror #2
 1029 0816 1040     		ands	r0, r0, r2
 1030 0818 2043     		orrs	r0, r0, r4
 1031 081a 8AEABB5A 		eor	r10, r10, fp, ror #22
 1032 081e 8244     		add	r10, r10, r0
 141:25519/sha256.c ****     P( B, C, D, E, F, G, H, A, R(23), 0x76F988DA );
 1033              		.loc 1 141 0
 1034 0820 1098     		ldr	r0, [sp, #64]
 1035 0822 109C     		ldr	r4, [sp, #64]
 1036 0824 4FEAB040 		ror	r0, r0, #18
 1037 0828 80EAF410 		eor	r0, r0, r4, ror #7
 1038 082c 80EAD400 		eor	r0, r0, r4, lsr #3
 1039 0830 0F9C     		ldr	r4, [sp, #60]
 140:25519/sha256.c ****     P( C, D, E, F, G, H, A, B, R(22), 0x5CB0A9DC );
 1040              		.loc 1 140 0
 1041 0832 0791     		str	r1, [sp, #28]
 1042              	.LVL118:
 1043 0834 0899     		ldr	r1, [sp, #32]
 1044              		.loc 1 141 0
 1045 0836 2044     		add	r0, r0, r4
 1046 0838 069C     		ldr	r4, [sp, #24]
 140:25519/sha256.c ****     P( C, D, E, F, G, H, A, B, R(22), 0x5CB0A9DC );
 1047              		.loc 1 140 0
 1048 083a CA44     		add	r10, r10, r9
 1049 083c 4944     		add	r1, r1, r9
 1050              	.LVL119:
 1051              		.loc 1 141 0
 1052 083e 00EB0809 		add	r9, r0, r8
 1053              	.LVL120:
 1054 0842 0698     		ldr	r0, [sp, #24]
 1055 0844 4FEAF444 		ror	r4, r4, #19
 1056 0848 84EA7044 		eor	r4, r4, r0, ror #17
 1057 084c 84EA9024 		eor	r4, r4, r0, lsr #10
 1058 0850 09EB0400 		add	r0, r9, r4
 1059 0854 86EA0504 		eor	r4, r6, r5
 1060 0858 0890     		str	r0, [sp, #32]
 1061 085a 0C40     		ands	r4, r4, r1
 1062 085c 84EA0609 		eor	r9, r4, r6
 1063 0860 BD48     		ldr	r0, .L11+4
 1064 0862 089C     		ldr	r4, [sp, #32]
 1065 0864 2044     		add	r0, r0, r4
 1066 0866 0744     		add	r7, r7, r0
 1067              	.LVL121:
 1068 0868 4F44     		add	r7, r7, r9
 1069 086a 4FEAF129 		ror	r9, r1, #11
 1070 086e 89EAB119 		eor	r9, r9, r1, ror #6
 1071 0872 89EA7169 		eor	r9, r9, r1, ror #25
 1072 0876 4F44     		add	r7, r7, r9
 1073              	.LVL122:
 1074 0878 4BEA0A00 		orr	r0, fp, r10
 1075 087c 4FEA7A39 		ror	r9, r10, #13
 1076 0880 0BEA0A04 		and	r4, fp, r10
 1077 0884 89EABA09 		eor	r9, r9, r10, ror #2
 1078 0888 1840     		ands	r0, r0, r3
 1079 088a 2043     		orrs	r0, r0, r4
 1080 088c 89EABA59 		eor	r9, r9, r10, ror #22
 1081 0890 8144     		add	r9, r9, r0
 142:25519/sha256.c ****     P( A, B, C, D, E, F, G, H, R(24), 0x983E5152 );
 1082              		.loc 1 142 0
 1083 0892 0A98     		ldr	r0, [sp, #40]
 1084 0894 0A9C     		ldr	r4, [sp, #40]
 1085 0896 4FEAB040 		ror	r0, r0, #18
 1086 089a 80EAF410 		eor	r0, r0, r4, ror #7
 1087 089e 80EAD400 		eor	r0, r0, r4, lsr #3
 1088 08a2 109C     		ldr	r4, [sp, #64]
 141:25519/sha256.c ****     P( B, C, D, E, F, G, H, A, R(23), 0x76F988DA );
 1089              		.loc 1 141 0
 1090 08a4 B944     		add	r9, r9, r7
 1091              		.loc 1 142 0
 1092 08a6 2044     		add	r0, r0, r4
 1093 08a8 079C     		ldr	r4, [sp, #28]
 141:25519/sha256.c ****     P( B, C, D, E, F, G, H, A, R(23), 0x76F988DA );
 1094              		.loc 1 141 0
 1095 08aa 3A44     		add	r2, r2, r7
 1096              	.LVL123:
 1097              		.loc 1 142 0
 1098 08ac 079F     		ldr	r7, [sp, #28]
 1099              	.LVL124:
 1100 08ae 4FEAF444 		ror	r4, r4, #19
 1101 08b2 84EA7744 		eor	r4, r4, r7, ror #17
 1102 08b6 84EA9724 		eor	r4, r4, r7, lsr #10
 1103 08ba 7044     		add	r0, r0, lr
 1104 08bc 2044     		add	r0, r0, r4
 1105 08be 0990     		str	r0, [sp, #36]
 1106 08c0 099F     		ldr	r7, [sp, #36]
 1107 08c2 A648     		ldr	r0, .L11+8
 1108 08c4 85EA0104 		eor	r4, r5, r1
 1109 08c8 3844     		add	r0, r0, r7
 1110 08ca 1440     		ands	r4, r4, r2
 1111 08cc 4FEAF227 		ror	r7, r2, #11
 1112 08d0 6C40     		eors	r4, r4, r5
 1113 08d2 0644     		add	r6, r6, r0
 1114              	.LVL125:
 1115 08d4 87EAB217 		eor	r7, r7, r2, ror #6
 1116 08d8 87EA7267 		eor	r7, r7, r2, ror #25
 1117 08dc 2644     		add	r6, r6, r4
 1118 08de 3E44     		add	r6, r6, r7
 1119              	.LVL126:
 1120 08e0 4AEA0900 		orr	r0, r10, r9
 1121 08e4 4FEA7937 		ror	r7, r9, #13
 1122 08e8 0AEA0904 		and	r4, r10, r9
 1123 08ec 87EAB907 		eor	r7, r7, r9, ror #2
 1124 08f0 00EA0B00 		and	r0, r0, fp
 1125 08f4 2043     		orrs	r0, r0, r4
 1126 08f6 87EAB957 		eor	r7, r7, r9, ror #22
 1127 08fa 0744     		add	r7, r7, r0
 143:25519/sha256.c ****     P( H, A, B, C, D, E, F, G, R(25), 0xA831C66D );
 1128              		.loc 1 143 0
 1129 08fc 0B98     		ldr	r0, [sp, #44]
 1130 08fe 0B9C     		ldr	r4, [sp, #44]
 1131 0900 4FEAB040 		ror	r0, r0, #18
 1132 0904 80EAF410 		eor	r0, r0, r4, ror #7
 1133 0908 80EAD400 		eor	r0, r0, r4, lsr #3
 1134 090c 0A9C     		ldr	r4, [sp, #40]
 142:25519/sha256.c ****     P( A, B, C, D, E, F, G, H, R(24), 0x983E5152 );
 1135              		.loc 1 142 0
 1136 090e 3744     		add	r7, r7, r6
 1137              		.loc 1 143 0
 1138 0910 2044     		add	r0, r0, r4
 1139 0912 089C     		ldr	r4, [sp, #32]
 142:25519/sha256.c ****     P( A, B, C, D, E, F, G, H, R(24), 0x983E5152 );
 1140              		.loc 1 142 0
 1141 0914 3344     		add	r3, r3, r6
 1142              	.LVL127:
 1143              		.loc 1 143 0
 1144 0916 089E     		ldr	r6, [sp, #32]
 1145              	.LVL128:
 1146 0918 4FEAF444 		ror	r4, r4, #19
 1147 091c 84EA7644 		eor	r4, r4, r6, ror #17
 1148 0920 84EA9624 		eor	r4, r4, r6, lsr #10
 1149 0924 6044     		add	r0, r0, ip
 1150 0926 2044     		add	r0, r0, r4
 1151 0928 0A90     		str	r0, [sp, #40]
 1152 092a 0A9E     		ldr	r6, [sp, #40]
 1153 092c 8C48     		ldr	r0, .L11+12
 1154 092e 81EA0204 		eor	r4, r1, r2
 1155 0932 3044     		add	r0, r0, r6
 1156 0934 1C40     		ands	r4, r4, r3
 1157 0936 4FEAF326 		ror	r6, r3, #11
 1158 093a 4C40     		eors	r4, r4, r1
 1159 093c 0544     		add	r5, r5, r0
 1160              	.LVL129:
 1161 093e 86EAB316 		eor	r6, r6, r3, ror #6
 1162 0942 86EA7366 		eor	r6, r6, r3, ror #25
 1163 0946 2544     		add	r5, r5, r4
 1164 0948 3544     		add	r5, r5, r6
 1165              	.LVL130:
 1166 094a 49EA0700 		orr	r0, r9, r7
 1167 094e 4FEA7736 		ror	r6, r7, #13
 1168 0952 09EA0704 		and	r4, r9, r7
 1169 0956 86EAB706 		eor	r6, r6, r7, ror #2
 1170 095a 00EA0A00 		and	r0, r0, r10
 1171 095e 2043     		orrs	r0, r0, r4
 1172 0960 86EAB756 		eor	r6, r6, r7, ror #22
 1173 0964 0644     		add	r6, r6, r0
 144:25519/sha256.c ****     P( G, H, A, B, C, D, E, F, R(26), 0xB00327C8 );
 1174              		.loc 1 144 0
 1175 0966 0C98     		ldr	r0, [sp, #48]
 1176 0968 0C9C     		ldr	r4, [sp, #48]
 1177 096a 4FEAB040 		ror	r0, r0, #18
 1178 096e 80EAF410 		eor	r0, r0, r4, ror #7
 1179 0972 80EAD400 		eor	r0, r0, r4, lsr #3
 1180 0976 0B9C     		ldr	r4, [sp, #44]
 143:25519/sha256.c ****     P( H, A, B, C, D, E, F, G, R(25), 0xA831C66D );
 1181              		.loc 1 143 0
 1182 0978 2E44     		add	r6, r6, r5
 1183              		.loc 1 144 0
 1184 097a 2044     		add	r0, r0, r4
 1185 097c 049C     		ldr	r4, [sp, #16]
 143:25519/sha256.c ****     P( H, A, B, C, D, E, F, G, R(25), 0xA831C66D );
 1186              		.loc 1 143 0
 1187 097e AB44     		add	fp, fp, r5
 1188              	.LVL131:
 1189              		.loc 1 144 0
 1190 0980 2044     		add	r0, r0, r4
 1191 0982 099C     		ldr	r4, [sp, #36]
 1192 0984 099D     		ldr	r5, [sp, #36]
 1193              	.LVL132:
 1194 0986 4FEAF444 		ror	r4, r4, #19
 1195 098a 84EA7544 		eor	r4, r4, r5, ror #17
 1196 098e 84EA9524 		eor	r4, r4, r5, lsr #10
 1197 0992 2044     		add	r0, r0, r4
 1198 0994 0B90     		str	r0, [sp, #44]
 1199 0996 0B9D     		ldr	r5, [sp, #44]
 1200 0998 7248     		ldr	r0, .L11+16
 1201 099a 82EA0304 		eor	r4, r2, r3
 1202 099e 2844     		add	r0, r0, r5
 1203 09a0 04EA0B04 		and	r4, r4, fp
 1204 09a4 4FEAFB25 		ror	r5, fp, #11
 1205 09a8 5440     		eors	r4, r4, r2
 1206 09aa 0144     		add	r1, r1, r0
 1207              	.LVL133:
 1208 09ac 85EABB15 		eor	r5, r5, fp, ror #6
 1209 09b0 85EA7B65 		eor	r5, r5, fp, ror #25
 1210 09b4 2144     		add	r1, r1, r4
 1211 09b6 2944     		add	r1, r1, r5
 1212              	.LVL134:
 1213 09b8 47EA0600 		orr	r0, r7, r6
 1214 09bc 4FEA7635 		ror	r5, r6, #13
 1215 09c0 07EA0604 		and	r4, r7, r6
 1216 09c4 85EAB605 		eor	r5, r5, r6, ror #2
 1217 09c8 00EA0900 		and	r0, r0, r9
 1218 09cc 2043     		orrs	r0, r0, r4
 1219 09ce 85EAB655 		eor	r5, r5, r6, ror #22
 1220 09d2 0544     		add	r5, r5, r0
 1221 09d4 0D44     		add	r5, r5, r1
 1222 09d6 8A44     		add	r10, r10, r1
 1223              	.LVL135:
 145:25519/sha256.c ****     P( F, G, H, A, B, C, D, E, R(27), 0xBF597FC7 );
 1224              		.loc 1 145 0
 1225 09d8 0D99     		ldr	r1, [sp, #52]
 1226              	.LVL136:
 1227 09da 0D98     		ldr	r0, [sp, #52]
 1228 09dc 4FEAB141 		ror	r1, r1, #18
 1229 09e0 81EAF011 		eor	r1, r1, r0, ror #7
 1230 09e4 81EAD001 		eor	r1, r1, r0, lsr #3
 1231 09e8 0C98     		ldr	r0, [sp, #48]
 1232 09ea 0A9C     		ldr	r4, [sp, #40]
 1233 09ec 0144     		add	r1, r1, r0
 1234 09ee 0598     		ldr	r0, [sp, #20]
 1235 09f0 0144     		add	r1, r1, r0
 1236 09f2 0A98     		ldr	r0, [sp, #40]
 1237 09f4 4FEAF040 		ror	r0, r0, #19
 1238 09f8 80EA7440 		eor	r0, r0, r4, ror #17
 1239 09fc 80EA9420 		eor	r0, r0, r4, lsr #10
 1240 0a00 0144     		add	r1, r1, r0
 1241 0a02 0C91     		str	r1, [sp, #48]
 1242 0a04 0C9C     		ldr	r4, [sp, #48]
 1243 0a06 5849     		ldr	r1, .L11+20
 1244 0a08 83EA0B00 		eor	r0, r3, fp
 1245 0a0c 2144     		add	r1, r1, r4
 1246 0a0e 00EA0A00 		and	r0, r0, r10
 1247 0a12 4FEAFA24 		ror	r4, r10, #11
 1248 0a16 5840     		eors	r0, r0, r3
 1249 0a18 0A44     		add	r2, r2, r1
 1250              	.LVL137:
 1251 0a1a 84EABA14 		eor	r4, r4, r10, ror #6
 1252 0a1e 84EA7A64 		eor	r4, r4, r10, ror #25
 1253 0a22 0244     		add	r2, r2, r0
 1254 0a24 2244     		add	r2, r2, r4
 1255              	.LVL138:
 1256 0a26 46EA0501 		orr	r1, r6, r5
 1257 0a2a 4FEA7534 		ror	r4, r5, #13
 1258 0a2e 06EA0500 		and	r0, r6, r5
 1259 0a32 84EAB504 		eor	r4, r4, r5, ror #2
 1260 0a36 3940     		ands	r1, r1, r7
 1261 0a38 0143     		orrs	r1, r1, r0
 1262 0a3a 84EAB554 		eor	r4, r4, r5, ror #22
 1263 0a3e 0C44     		add	r4, r4, r1
 1264 0a40 1444     		add	r4, r4, r2
 1265 0a42 9144     		add	r9, r9, r2
 1266              	.LVL139:
 146:25519/sha256.c ****     P( E, F, G, H, A, B, C, D, R(28), 0xC6E00BF3 );
 1267              		.loc 1 146 0
 1268 0a44 0E9A     		ldr	r2, [sp, #56]
 1269              	.LVL140:
 1270 0a46 0E99     		ldr	r1, [sp, #56]
 1271 0a48 4FEAB242 		ror	r2, r2, #18
 1272 0a4c 82EAF112 		eor	r2, r2, r1, ror #7
 1273 0a50 82EAD102 		eor	r2, r2, r1, lsr #3
 1274 0a54 0D99     		ldr	r1, [sp, #52]
 1275 0a56 0B98     		ldr	r0, [sp, #44]
 1276 0a58 0A44     		add	r2, r2, r1
 1277 0a5a 0699     		ldr	r1, [sp, #24]
 1278 0a5c 0A44     		add	r2, r2, r1
 1279 0a5e 0B99     		ldr	r1, [sp, #44]
 1280 0a60 4FEAF141 		ror	r1, r1, #19
 1281 0a64 81EA7041 		eor	r1, r1, r0, ror #17
 1282 0a68 81EA9021 		eor	r1, r1, r0, lsr #10
 1283 0a6c 0A44     		add	r2, r2, r1
 1284 0a6e 0D92     		str	r2, [sp, #52]
 1285 0a70 0D98     		ldr	r0, [sp, #52]
 1286 0a72 3E4A     		ldr	r2, .L11+24
 1287 0a74 8BEA0A01 		eor	r1, fp, r10
 1288 0a78 0244     		add	r2, r2, r0
 1289 0a7a 01EA0901 		and	r1, r1, r9
 1290 0a7e 4FEAF920 		ror	r0, r9, #11
 1291 0a82 81EA0B01 		eor	r1, r1, fp
 1292 0a86 1344     		add	r3, r3, r2
 1293              	.LVL141:
 1294 0a88 80EAB910 		eor	r0, r0, r9, ror #6
 1295 0a8c 80EA7960 		eor	r0, r0, r9, ror #25
 1296 0a90 0B44     		add	r3, r3, r1
 1297 0a92 0344     		add	r3, r3, r0
 1298              	.LVL142:
 1299 0a94 45EA0402 		orr	r2, r5, r4
 1300 0a98 4FEA7430 		ror	r0, r4, #13
 1301 0a9c 05EA0401 		and	r1, r5, r4
 1302 0aa0 80EAB400 		eor	r0, r0, r4, ror #2
 1303 0aa4 3240     		ands	r2, r2, r6
 1304 0aa6 0A43     		orrs	r2, r2, r1
 1305 0aa8 80EAB450 		eor	r0, r0, r4, ror #22
 1306 0aac 1044     		add	r0, r0, r2
 1307 0aae 1844     		add	r0, r0, r3
 1308 0ab0 1F44     		add	r7, r7, r3
 1309              	.LVL143:
 147:25519/sha256.c ****     P( D, E, F, G, H, A, B, C, R(29), 0xD5A79147 );
 1310              		.loc 1 147 0
 1311 0ab2 029B     		ldr	r3, [sp, #8]
 1312              	.LVL144:
 1313 0ab4 029A     		ldr	r2, [sp, #8]
 1314 0ab6 4FEAB343 		ror	r3, r3, #18
 1315 0aba 83EAF213 		eor	r3, r3, r2, ror #7
 1316 0abe 83EAD203 		eor	r3, r3, r2, lsr #3
 1317 0ac2 0E9A     		ldr	r2, [sp, #56]
 1318 0ac4 0C99     		ldr	r1, [sp, #48]
 1319 0ac6 1344     		add	r3, r3, r2
 1320 0ac8 079A     		ldr	r2, [sp, #28]
 1321 0aca 1344     		add	r3, r3, r2
 1322 0acc 0C9A     		ldr	r2, [sp, #48]
 1323 0ace 4FEAF242 		ror	r2, r2, #19
 1324 0ad2 82EA7142 		eor	r2, r2, r1, ror #17
 1325 0ad6 82EA9122 		eor	r2, r2, r1, lsr #10
 1326 0ada 1344     		add	r3, r3, r2
 1327 0adc 0E93     		str	r3, [sp, #56]
 1328 0ade 0E99     		ldr	r1, [sp, #56]
 1329 0ae0 234B     		ldr	r3, .L11+28
 1330 0ae2 8AEA0902 		eor	r2, r10, r9
 1331 0ae6 0B44     		add	r3, r3, r1
 1332 0ae8 3A40     		ands	r2, r2, r7
 1333 0aea 4FEAF721 		ror	r1, r7, #11
 1334 0aee 82EA0A02 		eor	r2, r2, r10
 1335 0af2 9B44     		add	fp, fp, r3
 1336              	.LVL145:
 1337 0af4 81EAB711 		eor	r1, r1, r7, ror #6
 1338 0af8 81EA7761 		eor	r1, r1, r7, ror #25
 1339 0afc 9344     		add	fp, fp, r2
 1340 0afe 8B44     		add	fp, fp, r1
 1341              	.LVL146:
 1342 0b00 06EB0B03 		add	r3, r6, fp
 1343 0b04 1193     		str	r3, [sp, #68]
 1344              	.LVL147:
 1345 0b06 4FEA7031 		ror	r1, r0, #13
 1346 0b0a 44EA0003 		orr	r3, r4, r0
 1347              	.LVL148:
 1348 0b0e 04EA0002 		and	r2, r4, r0
 1349 0b12 81EAB001 		eor	r1, r1, r0, ror #2
 1350 0b16 2B40     		ands	r3, r3, r5
 1351 0b18 1343     		orrs	r3, r3, r2
 1352 0b1a 81EAB051 		eor	r1, r1, r0, ror #22
 1353 0b1e 1944     		add	r1, r1, r3
 148:25519/sha256.c ****     P( C, D, E, F, G, H, A, B, R(30), 0x06CA6351 );
 1354              		.loc 1 148 0
 1355 0b20 039B     		ldr	r3, [sp, #12]
 1356 0b22 039A     		ldr	r2, [sp, #12]
 1357 0b24 4FEAB343 		ror	r3, r3, #18
 1358 0b28 83EAF213 		eor	r3, r3, r2, ror #7
 1359 0b2c 83EAD203 		eor	r3, r3, r2, lsr #3
 1360 0b30 029A     		ldr	r2, [sp, #8]
 1361 0b32 0D9E     		ldr	r6, [sp, #52]
 1362 0b34 1344     		add	r3, r3, r2
 1363 0b36 089A     		ldr	r2, [sp, #32]
 147:25519/sha256.c ****     P( D, E, F, G, H, A, B, C, R(29), 0xD5A79147 );
 1364              		.loc 1 147 0
 1365 0b38 5944     		add	r1, r1, fp
 1366              	.LVL149:
 1367              		.loc 1 148 0
 1368 0b3a 1344     		add	r3, r3, r2
 1369 0b3c 0D9A     		ldr	r2, [sp, #52]
 1370 0b3e 89EA070B 		eor	fp, r9, r7
 1371              	.LVL150:
 1372 0b42 4FEAF242 		ror	r2, r2, #19
 1373 0b46 82EA7642 		eor	r2, r2, r6, ror #17
 1374 0b4a 82EA9622 		eor	r2, r2, r6, lsr #10
 1375 0b4e 1344     		add	r3, r3, r2
 1376 0b50 10E0     		b	.L12
 1377              	.L13:
 1378 0b52 00BF     		.align	2
 1379              	.L11:
 1380 0b54 DCA9B05C 		.word	1555081692
 1381 0b58 DA88F976 		.word	1996064986
 1382 0b5c 52513E98 		.word	-1740746414
 1383 0b60 6DC631A8 		.word	-1473132947
 1384 0b64 C82703B0 		.word	-1341970488
 1385 0b68 C77F59BF 		.word	-1084653625
 1386 0b6c F30BE0C6 		.word	-958395405
 1387 0b70 4791A7D5 		.word	-710438585
 1388              	.L12:
 1389 0b74 0293     		str	r3, [sp, #8]
 1390 0b76 119B     		ldr	r3, [sp, #68]
 1391 0b78 029A     		ldr	r2, [sp, #8]
 1392 0b7a 0BEA030B 		and	fp, fp, r3
 1393 0b7e DC4B     		ldr	r3, .L14
 1394 0b80 8BEA090B 		eor	fp, fp, r9
 1395 0b84 1344     		add	r3, r3, r2
 1396 0b86 9A44     		add	r10, r10, r3
 1397              	.LVL151:
 1398 0b88 119B     		ldr	r3, [sp, #68]
 1399 0b8a DA44     		add	r10, r10, fp
 1400 0b8c 4FEAF322 		ror	r2, r3, #11
 1401 0b90 82EAB312 		eor	r2, r2, r3, ror #6
 1402 0b94 82EA7362 		eor	r2, r2, r3, ror #25
 1403 0b98 9244     		add	r10, r10, r2
 1404              	.LVL152:
 1405 0b9a 40EA0103 		orr	r3, r0, r1
 1406 0b9e 4FEA7132 		ror	r2, r1, #13
 1407 0ba2 00EA010B 		and	fp, r0, r1
 1408 0ba6 82EAB102 		eor	r2, r2, r1, ror #2
 1409 0baa 2340     		ands	r3, r3, r4
 1410 0bac 43EA0B03 		orr	r3, r3, fp
 1411 0bb0 82EAB152 		eor	r2, r2, r1, ror #22
 1412 0bb4 1A44     		add	r2, r2, r3
 149:25519/sha256.c ****     P( B, C, D, E, F, G, H, A, R(31), 0x14292967 );
 1413              		.loc 1 149 0
 1414 0bb6 4FEAB843 		ror	r3, r8, #18
 1415 0bba 039E     		ldr	r6, [sp, #12]
 1416 0bbc 83EAF813 		eor	r3, r3, r8, ror #7
 1417 0bc0 83EAD803 		eor	r3, r3, r8, lsr #3
 1418 0bc4 3344     		add	r3, r3, r6
 1419 0bc6 099E     		ldr	r6, [sp, #36]
 148:25519/sha256.c ****     P( C, D, E, F, G, H, A, B, R(30), 0x06CA6351 );
 1420              		.loc 1 148 0
 1421 0bc8 5244     		add	r2, r2, r10
 1422              		.loc 1 149 0
 1423 0bca 3344     		add	r3, r3, r6
 1424 0bcc 0E9E     		ldr	r6, [sp, #56]
 148:25519/sha256.c ****     P( C, D, E, F, G, H, A, B, R(30), 0x06CA6351 );
 1425              		.loc 1 148 0
 1426 0bce 5544     		add	r5, r5, r10
 1427              	.LVL153:
 1428              		.loc 1 149 0
 1429 0bd0 4FEAF64A 		ror	r10, r6, #19
 1430              	.LVL154:
 1431 0bd4 8AEA764A 		eor	r10, r10, r6, ror #17
 1432 0bd8 8AEA962A 		eor	r10, r10, r6, lsr #10
 1433 0bdc 5344     		add	r3, r3, r10
 1434 0bde 0393     		str	r3, [sp, #12]
 1435 0be0 119B     		ldr	r3, [sp, #68]
 1436 0be2 039E     		ldr	r6, [sp, #12]
 1437 0be4 87EA030A 		eor	r10, r7, r3
 1438 0be8 C24B     		ldr	r3, .L14+4
 1439 0bea 0AEA050A 		and	r10, r10, r5
 1440 0bee 3344     		add	r3, r3, r6
 1441 0bf0 9944     		add	r9, r9, r3
 1442              	.LVL155:
 1443 0bf2 4FEAF523 		ror	r3, r5, #11
 1444 0bf6 8AEA070A 		eor	r10, r10, r7
 1445 0bfa 83EAB513 		eor	r3, r3, r5, ror #6
 1446 0bfe 83EA7563 		eor	r3, r3, r5, ror #25
 1447 0c02 D144     		add	r9, r9, r10
 1448 0c04 9944     		add	r9, r9, r3
 1449              	.LVL156:
 1450 0c06 41EA020A 		orr	r10, r1, r2
 1451 0c0a 4FEA7233 		ror	r3, r2, #13
 1452 0c0e 01EA020B 		and	fp, r1, r2
 1453 0c12 83EAB203 		eor	r3, r3, r2, ror #2
 1454 0c16 0AEA000A 		and	r10, r10, r0
 1455 0c1a 83EAB253 		eor	r3, r3, r2, ror #22
 1456 0c1e 4AEA0B0A 		orr	r10, r10, fp
 1457 0c22 9A44     		add	r10, r10, r3
 150:25519/sha256.c ****     P( A, B, C, D, E, F, G, H, R(32), 0x27B70A85 );
 1458              		.loc 1 150 0
 1459 0c24 4FEABE43 		ror	r3, lr, #18
 1460 0c28 83EAFE13 		eor	r3, r3, lr, ror #7
 1461 0c2c 83EADE03 		eor	r3, r3, lr, lsr #3
 1462 0c30 9844     		add	r8, r8, r3
 1463 0c32 0A9B     		ldr	r3, [sp, #40]
 1464 0c34 029E     		ldr	r6, [sp, #8]
 1465 0c36 9844     		add	r8, r8, r3
 1466 0c38 029B     		ldr	r3, [sp, #8]
 149:25519/sha256.c ****     P( B, C, D, E, F, G, H, A, R(31), 0x14292967 );
 1467              		.loc 1 149 0
 1468 0c3a 4C44     		add	r4, r4, r9
 1469              	.LVL157:
 1470              		.loc 1 150 0
 1471 0c3c 4FEAF343 		ror	r3, r3, #19
 1472 0c40 83EA7643 		eor	r3, r3, r6, ror #17
 1473 0c44 83EA9623 		eor	r3, r3, r6, lsr #10
 1474 0c48 4344     		add	r3, r8, r3
 1475 0c4a 0F93     		str	r3, [sp, #60]
 1476 0c4c 119B     		ldr	r3, [sp, #68]
 1477 0c4e 0F9E     		ldr	r6, [sp, #60]
 1478 0c50 83EA0508 		eor	r8, r3, r5
 1479 0c54 08EA0408 		and	r8, r8, r4
 1480 0c58 88EA0308 		eor	r8, r8, r3
 1481 0c5c A64B     		ldr	r3, .L14+8
 149:25519/sha256.c ****     P( B, C, D, E, F, G, H, A, R(31), 0x14292967 );
 1482              		.loc 1 149 0
 1483 0c5e D144     		add	r9, r9, r10
 1484              	.LVL158:
 1485              		.loc 1 150 0
 1486 0c60 3344     		add	r3, r3, r6
 1487 0c62 1F44     		add	r7, r7, r3
 1488              	.LVL159:
 1489 0c64 4744     		add	r7, r7, r8
 1490 0c66 4FEAF428 		ror	r8, r4, #11
 1491 0c6a 88EAB418 		eor	r8, r8, r4, ror #6
 1492 0c6e 88EA7468 		eor	r8, r8, r4, ror #25
 1493 0c72 4744     		add	r7, r7, r8
 1494              	.LVL160:
 1495 0c74 42EA0903 		orr	r3, r2, r9
 1496 0c78 4FEA7938 		ror	r8, r9, #13
 1497 0c7c 02EA090A 		and	r10, r2, r9
 1498 0c80 88EAB908 		eor	r8, r8, r9, ror #2
 1499 0c84 0B40     		ands	r3, r3, r1
 1500 0c86 88EAB958 		eor	r8, r8, r9, ror #22
 1501 0c8a 43EA0A03 		orr	r3, r3, r10
 1502 0c8e 4344     		add	r3, r3, r8
 1503 0c90 3844     		add	r0, r0, r7
 1504              	.LVL161:
 1505 0c92 1F44     		add	r7, r7, r3
 1506              	.LVL162:
 151:25519/sha256.c ****     P( H, A, B, C, D, E, F, G, R(33), 0x2E1B2138 );
 1507              		.loc 1 151 0
 1508 0c94 4FEABC43 		ror	r3, ip, #18
 1509 0c98 83EAFC13 		eor	r3, r3, ip, ror #7
 1510 0c9c 83EADC03 		eor	r3, r3, ip, lsr #3
 1511 0ca0 9E44     		add	lr, lr, r3
 1512 0ca2 0B9B     		ldr	r3, [sp, #44]
 1513 0ca4 9E44     		add	lr, lr, r3
 1514 0ca6 039B     		ldr	r3, [sp, #12]
 1515 0ca8 4FEAF348 		ror	r8, r3, #19
 1516 0cac 88EA7348 		eor	r8, r8, r3, ror #17
 1517 0cb0 88EA9328 		eor	r8, r8, r3, lsr #10
 1518 0cb4 0EEB0803 		add	r3, lr, r8
 1519 0cb8 1093     		str	r3, [sp, #64]
 1520 0cba 109E     		ldr	r6, [sp, #64]
 1521 0cbc 8F4B     		ldr	r3, .L14+12
 1522 0cbe 85EA040E 		eor	lr, r5, r4
 1523 0cc2 3344     		add	r3, r3, r6
 1524 0cc4 119E     		ldr	r6, [sp, #68]
 1525 0cc6 0EEA000E 		and	lr, lr, r0
 1526 0cca 8EEA050E 		eor	lr, lr, r5
 1527 0cce 1E44     		add	r6, r6, r3
 1528 0cd0 7644     		add	r6, r6, lr
 1529 0cd2 4FEAF02E 		ror	lr, r0, #11
 1530 0cd6 8EEAB01E 		eor	lr, lr, r0, ror #6
 1531 0cda 8EEA706E 		eor	lr, lr, r0, ror #25
 1532 0cde 7644     		add	r6, r6, lr
 1533              	.LVL163:
 1534 0ce0 8B19     		adds	r3, r1, r6
 1535 0ce2 1393     		str	r3, [sp, #76]
 1536              	.LVL164:
 1537 0ce4 4FEA773E 		ror	lr, r7, #13
 1538 0ce8 49EA0703 		orr	r3, r9, r7
 1539              	.LVL165:
 1540 0cec 09EA0708 		and	r8, r9, r7
 1541 0cf0 8EEAB70E 		eor	lr, lr, r7, ror #2
 1542 0cf4 1340     		ands	r3, r3, r2
 1543 0cf6 8EEAB75E 		eor	lr, lr, r7, ror #22
 1544 0cfa 43EA0803 		orr	r3, r3, r8
 1545 0cfe 7344     		add	r3, r3, lr
 1546 0d00 1E44     		add	r6, r6, r3
 1547              	.LVL166:
 152:25519/sha256.c ****     P( G, H, A, B, C, D, E, F, R(34), 0x4D2C6DFC );
 1548              		.loc 1 152 0
 1549 0d02 049B     		ldr	r3, [sp, #16]
 1550 0d04 0499     		ldr	r1, [sp, #16]
 1551 0d06 4FEAB343 		ror	r3, r3, #18
 1552 0d0a 83EAF113 		eor	r3, r3, r1, ror #7
 1553 0d0e 83EAD103 		eor	r3, r3, r1, lsr #3
 1554 0d12 9C44     		add	ip, ip, r3
 1555 0d14 0C9B     		ldr	r3, [sp, #48]
 1556 0d16 9C44     		add	ip, ip, r3
 1557 0d18 0F9B     		ldr	r3, [sp, #60]
 1558 0d1a 4FEAF34E 		ror	lr, r3, #19
 1559 0d1e 8EEA734E 		eor	lr, lr, r3, ror #17
 1560 0d22 8EEA932E 		eor	lr, lr, r3, lsr #10
 1561 0d26 0CEB0E03 		add	r3, ip, lr
 1562 0d2a 1193     		str	r3, [sp, #68]
 1563              	.LVL167:
 1564 0d2c 139B     		ldr	r3, [sp, #76]
 1565 0d2e 84EA000C 		eor	ip, r4, r0
 1566 0d32 1199     		ldr	r1, [sp, #68]
 1567 0d34 0CEA030C 		and	ip, ip, r3
 1568 0d38 714B     		ldr	r3, .L14+16
 1569 0d3a 8CEA040C 		eor	ip, ip, r4
 1570 0d3e 0B44     		add	r3, r3, r1
 1571 0d40 1D44     		add	r5, r5, r3
 1572              	.LVL168:
 1573 0d42 139B     		ldr	r3, [sp, #76]
 1574 0d44 6544     		add	r5, r5, ip
 1575 0d46 4FEAF32C 		ror	ip, r3, #11
 1576 0d4a 8CEAB31C 		eor	ip, ip, r3, ror #6
 1577 0d4e 8CEA736C 		eor	ip, ip, r3, ror #25
 1578 0d52 6544     		add	r5, r5, ip
 1579              	.LVL169:
 1580 0d54 47EA0603 		orr	r3, r7, r6
 1581 0d58 4FEA763C 		ror	ip, r6, #13
 1582 0d5c 07EA060E 		and	lr, r7, r6
 1583 0d60 8CEAB60C 		eor	ip, ip, r6, ror #2
 1584 0d64 03EA0903 		and	r3, r3, r9
 1585 0d68 8CEAB65C 		eor	ip, ip, r6, ror #22
 1586 0d6c 43EA0E03 		orr	r3, r3, lr
 1587 0d70 6344     		add	r3, r3, ip
 1588 0d72 2A44     		add	r2, r2, r5
 1589              	.LVL170:
 1590 0d74 1D44     		add	r5, r5, r3
 1591              	.LVL171:
 153:25519/sha256.c ****     P( F, G, H, A, B, C, D, E, R(35), 0x53380D13 );
 1592              		.loc 1 153 0
 1593 0d76 059B     		ldr	r3, [sp, #20]
 1594 0d78 4FEAF228 		ror	r8, r2, #11
 1595 0d7c 4FEAB34C 		ror	ip, r3, #18
 1596 0d80 8CEAF31C 		eor	ip, ip, r3, ror #7
 1597 0d84 8CEAD30C 		eor	ip, ip, r3, lsr #3
 1598 0d88 049B     		ldr	r3, [sp, #16]
 1599 0d8a 88EAB218 		eor	r8, r8, r2, ror #6
 1600 0d8e 9C44     		add	ip, ip, r3
 1601 0d90 0D9B     		ldr	r3, [sp, #52]
 1602 0d92 88EA7268 		eor	r8, r8, r2, ror #25
 1603 0d96 9C44     		add	ip, ip, r3
 1604 0d98 109B     		ldr	r3, [sp, #64]
 1605 0d9a 1099     		ldr	r1, [sp, #64]
 1606 0d9c 4FEAF343 		ror	r3, r3, #19
 1607 0da0 83EA7143 		eor	r3, r3, r1, ror #17
 1608 0da4 83EA9123 		eor	r3, r3, r1, lsr #10
 1609 0da8 6344     		add	r3, ip, r3
 1610 0daa 0493     		str	r3, [sp, #16]
 1611 0dac 139B     		ldr	r3, [sp, #76]
 1612 0dae 0499     		ldr	r1, [sp, #16]
 1613 0db0 80EA030C 		eor	ip, r0, r3
 1614 0db4 534B     		ldr	r3, .L14+20
 1615 0db6 0CEA020C 		and	ip, ip, r2
 1616 0dba 0B44     		add	r3, r3, r1
 1617 0dbc 8CEA000C 		eor	ip, ip, r0
 1618 0dc0 1C44     		add	r4, r4, r3
 1619              	.LVL172:
 1620 0dc2 6444     		add	r4, r4, ip
 1621 0dc4 4444     		add	r4, r4, r8
 1622              	.LVL173:
 1623 0dc6 46EA0503 		orr	r3, r6, r5
 1624 0dca 4FEA7538 		ror	r8, r5, #13
 1625 0dce 06EA050C 		and	ip, r6, r5
 1626 0dd2 88EAB508 		eor	r8, r8, r5, ror #2
 1627 0dd6 3B40     		ands	r3, r3, r7
 1628 0dd8 88EAB558 		eor	r8, r8, r5, ror #22
 1629 0ddc 43EA0C03 		orr	r3, r3, ip
 1630 0de0 4344     		add	r3, r3, r8
 1631 0de2 03EB040B 		add	fp, r3, r4
 154:25519/sha256.c ****     P( E, F, G, H, A, B, C, D, R(36), 0x650A7354 );
 1632              		.loc 1 154 0
 1633 0de6 069B     		ldr	r3, [sp, #24]
 1634 0de8 0699     		ldr	r1, [sp, #24]
 1635 0dea 4FEAB343 		ror	r3, r3, #18
 1636 0dee 83EAF113 		eor	r3, r3, r1, ror #7
 1637 0df2 83EAD103 		eor	r3, r3, r1, lsr #3
 1638 0df6 0599     		ldr	r1, [sp, #20]
 153:25519/sha256.c ****     P( F, G, H, A, B, C, D, E, R(35), 0x53380D13 );
 1639              		.loc 1 153 0
 1640 0df8 A144     		add	r9, r9, r4
 1641              	.LVL174:
 1642              		.loc 1 154 0
 1643 0dfa 0B44     		add	r3, r3, r1
 1644 0dfc 0E99     		ldr	r1, [sp, #56]
 1645 0dfe 4FEAF92E 		ror	lr, r9, #11
 1646 0e02 0B44     		add	r3, r3, r1
 1647 0e04 1199     		ldr	r1, [sp, #68]
 1648 0e06 8EEAB91E 		eor	lr, lr, r9, ror #6
 1649 0e0a 4FEAF144 		ror	r4, r1, #19
 1650              	.LVL175:
 1651 0e0e 84EA7144 		eor	r4, r4, r1, ror #17
 1652 0e12 84EA9124 		eor	r4, r4, r1, lsr #10
 1653 0e16 2344     		add	r3, r3, r4
 1654 0e18 0593     		str	r3, [sp, #20]
 1655 0e1a 139B     		ldr	r3, [sp, #76]
 1656 0e1c 0599     		ldr	r1, [sp, #20]
 1657 0e1e 83EA0204 		eor	r4, r3, r2
 1658 0e22 04EA0904 		and	r4, r4, r9
 1659 0e26 5C40     		eors	r4, r4, r3
 1660 0e28 374B     		ldr	r3, .L14+24
 1661 0e2a 8EEA796E 		eor	lr, lr, r9, ror #25
 1662 0e2e 0B44     		add	r3, r3, r1
 1663 0e30 1844     		add	r0, r0, r3
 1664              	.LVL176:
 1665 0e32 2044     		add	r0, r0, r4
 1666 0e34 7044     		add	r0, r0, lr
 1667              	.LVL177:
 1668 0e36 45EA0B03 		orr	r3, r5, fp
 1669 0e3a 4FEA7B3E 		ror	lr, fp, #13
 1670 0e3e 05EA0B04 		and	r4, r5, fp
 1671 0e42 8EEABB0E 		eor	lr, lr, fp, ror #2
 1672 0e46 3340     		ands	r3, r3, r6
 1673 0e48 8EEABB5E 		eor	lr, lr, fp, ror #22
 1674 0e4c 2343     		orrs	r3, r3, r4
 1675 0e4e 7344     		add	r3, r3, lr
 1676 0e50 03EB000A 		add	r10, r3, r0
 155:25519/sha256.c ****     P( D, E, F, G, H, A, B, C, R(37), 0x766A0ABB );
 1677              		.loc 1 155 0
 1678 0e54 079B     		ldr	r3, [sp, #28]
 1679 0e56 0499     		ldr	r1, [sp, #16]
 1680 0e58 4FEAB344 		ror	r4, r3, #18
 1681 0e5c 84EAF314 		eor	r4, r4, r3, ror #7
 1682 0e60 84EAD304 		eor	r4, r4, r3, lsr #3
 1683 0e64 069B     		ldr	r3, [sp, #24]
 154:25519/sha256.c ****     P( E, F, G, H, A, B, C, D, R(36), 0x650A7354 );
 1684              		.loc 1 154 0
 1685 0e66 0744     		add	r7, r7, r0
 1686              	.LVL178:
 1687              		.loc 1 155 0
 1688 0e68 1C44     		add	r4, r4, r3
 1689 0e6a 029B     		ldr	r3, [sp, #8]
 1690 0e6c 82EA0900 		eor	r0, r2, r9
 1691              	.LVL179:
 1692 0e70 1C44     		add	r4, r4, r3
 1693 0e72 049B     		ldr	r3, [sp, #16]
 1694 0e74 3840     		ands	r0, r0, r7
 1695 0e76 4FEAF343 		ror	r3, r3, #19
 1696 0e7a 83EA7143 		eor	r3, r3, r1, ror #17
 1697 0e7e 83EA9123 		eor	r3, r3, r1, lsr #10
 1698 0e82 E318     		adds	r3, r4, r3
 1699 0e84 0693     		str	r3, [sp, #24]
 1700 0e86 0699     		ldr	r1, [sp, #24]
 1701 0e88 204B     		ldr	r3, .L14+28
 1702 0e8a 4FEAF72C 		ror	ip, r7, #11
 1703 0e8e 0B44     		add	r3, r3, r1
 1704 0e90 1399     		ldr	r1, [sp, #76]
 1705 0e92 5040     		eors	r0, r0, r2
 1706 0e94 1944     		add	r1, r1, r3
 1707 0e96 8CEAB71C 		eor	ip, ip, r7, ror #6
 1708 0e9a 8CEA776C 		eor	ip, ip, r7, ror #25
 1709 0e9e 0144     		add	r1, r1, r0
 1710 0ea0 6144     		add	r1, r1, ip
 1711              	.LVL180:
 1712 0ea2 4BEA0A03 		orr	r3, fp, r10
 1713 0ea6 4FEA7A3C 		ror	ip, r10, #13
 1714 0eaa 0BEA0A00 		and	r0, fp, r10
 1715 0eae 8CEABA0C 		eor	ip, ip, r10, ror #2
 1716 0eb2 2B40     		ands	r3, r3, r5
 1717 0eb4 8CEABA5C 		eor	ip, ip, r10, ror #22
 1718 0eb8 0343     		orrs	r3, r3, r0
 1719 0eba 6344     		add	r3, r3, ip
 1720 0ebc 0E44     		add	r6, r6, r1
 1721              	.LVL181:
 1722 0ebe 1944     		add	r1, r1, r3
 1723              	.LVL182:
 156:25519/sha256.c ****     P( C, D, E, F, G, H, A, B, R(38), 0x81C2C92E );
 1724              		.loc 1 156 0
 1725 0ec0 089B     		ldr	r3, [sp, #32]
 1726 0ec2 0598     		ldr	r0, [sp, #20]
 1727 0ec4 4FEAB344 		ror	r4, r3, #18
 1728 0ec8 84EAF314 		eor	r4, r4, r3, ror #7
 1729 0ecc 84EAD304 		eor	r4, r4, r3, lsr #3
 1730 0ed0 079B     		ldr	r3, [sp, #28]
 1731 0ed2 1C44     		add	r4, r4, r3
 1732 0ed4 039B     		ldr	r3, [sp, #12]
 1733 0ed6 1C44     		add	r4, r4, r3
 1734 0ed8 059B     		ldr	r3, [sp, #20]
 1735 0eda 4FEAF343 		ror	r3, r3, #19
 1736 0ede 83EA7043 		eor	r3, r3, r0, ror #17
 1737 0ee2 83EA9023 		eor	r3, r3, r0, lsr #10
 1738 0ee6 E318     		adds	r3, r4, r3
 1739 0ee8 0793     		str	r3, [sp, #28]
 1740 0eea 079C     		ldr	r4, [sp, #28]
 1741 0eec 10E0     		b	.L15
 1742              	.L16:
 1743 0eee 00BF     		.align	2
 1744              	.L14:
 1745 0ef0 5163CA06 		.word	113926993
 1746 0ef4 67292914 		.word	338241895
 1747 0ef8 850AB727 		.word	666307205
 1748 0efc 38211B2E 		.word	773529912
 1749 0f00 FC6D2C4D 		.word	1294757372
 1750 0f04 130D3853 		.word	1396182291
 1751 0f08 54730A65 		.word	1695183700
 1752 0f0c BB0A6A76 		.word	1986661051
 1753              	.L15:
 1754 0f10 DE4B     		ldr	r3, .L17
 1755 0f12 89EA0700 		eor	r0, r9, r7
 1756 0f16 2344     		add	r3, r3, r4
 1757 0f18 3040     		ands	r0, r0, r6
 1758 0f1a 4FEAF624 		ror	r4, r6, #11
 1759 0f1e 80EA0900 		eor	r0, r0, r9
 1760 0f22 1A44     		add	r2, r2, r3
 1761              	.LVL183:
 1762 0f24 84EAB614 		eor	r4, r4, r6, ror #6
 1763 0f28 84EA7664 		eor	r4, r4, r6, ror #25
 1764 0f2c 0244     		add	r2, r2, r0
 1765 0f2e 2244     		add	r2, r2, r4
 1766              	.LVL184:
 1767 0f30 4AEA0103 		orr	r3, r10, r1
 1768 0f34 4FEA7134 		ror	r4, r1, #13
 1769 0f38 0AEA0100 		and	r0, r10, r1
 1770 0f3c 84EAB104 		eor	r4, r4, r1, ror #2
 1771 0f40 03EA0B03 		and	r3, r3, fp
 1772 0f44 84EAB154 		eor	r4, r4, r1, ror #22
 1773 0f48 0343     		orrs	r3, r3, r0
 1774 0f4a 2344     		add	r3, r3, r4
 1775 0f4c 1544     		add	r5, r5, r2
 1776              	.LVL185:
 1777 0f4e 1A44     		add	r2, r2, r3
 1778              	.LVL186:
 157:25519/sha256.c ****     P( B, C, D, E, F, G, H, A, R(39), 0x92722C85 );
 1779              		.loc 1 157 0
 1780 0f50 099B     		ldr	r3, [sp, #36]
 1781 0f52 4FEAF52E 		ror	lr, r5, #11
 1782 0f56 4FEAB344 		ror	r4, r3, #18
 1783 0f5a 84EAF314 		eor	r4, r4, r3, ror #7
 1784 0f5e 84EAD304 		eor	r4, r4, r3, lsr #3
 1785 0f62 089B     		ldr	r3, [sp, #32]
 1786 0f64 8EEAB51E 		eor	lr, lr, r5, ror #6
 1787 0f68 1C44     		add	r4, r4, r3
 1788 0f6a 0F9B     		ldr	r3, [sp, #60]
 1789 0f6c 8EEA756E 		eor	lr, lr, r5, ror #25
 1790 0f70 1C44     		add	r4, r4, r3
 1791 0f72 069B     		ldr	r3, [sp, #24]
 1792 0f74 0698     		ldr	r0, [sp, #24]
 1793 0f76 4FEAF343 		ror	r3, r3, #19
 1794 0f7a 83EA7043 		eor	r3, r3, r0, ror #17
 1795 0f7e 83EA9023 		eor	r3, r3, r0, lsr #10
 1796 0f82 E318     		adds	r3, r4, r3
 1797 0f84 0893     		str	r3, [sp, #32]
 1798 0f86 089C     		ldr	r4, [sp, #32]
 1799 0f88 C14B     		ldr	r3, .L17+4
 1800 0f8a 87EA0600 		eor	r0, r7, r6
 1801 0f8e 2344     		add	r3, r3, r4
 1802 0f90 2840     		ands	r0, r0, r5
 1803 0f92 7840     		eors	r0, r0, r7
 1804 0f94 9944     		add	r9, r9, r3
 1805              	.LVL187:
 1806 0f96 8144     		add	r9, r9, r0
 1807 0f98 F144     		add	r9, r9, lr
 1808              	.LVL188:
 1809 0f9a 41EA0203 		orr	r3, r1, r2
 1810 0f9e 4FEA723E 		ror	lr, r2, #13
 1811 0fa2 01EA0200 		and	r0, r1, r2
 1812 0fa6 8EEAB20E 		eor	lr, lr, r2, ror #2
 1813 0faa 03EA0A03 		and	r3, r3, r10
 1814 0fae 8EEAB25E 		eor	lr, lr, r2, ror #22
 1815 0fb2 0343     		orrs	r3, r3, r0
 1816 0fb4 7344     		add	r3, r3, lr
 1817 0fb6 CB44     		add	fp, fp, r9
 1818              	.LVL189:
 1819 0fb8 9944     		add	r9, r9, r3
 1820              	.LVL190:
 158:25519/sha256.c ****     P( A, B, C, D, E, F, G, H, R(40), 0xA2BFE8A1 );
 1821              		.loc 1 158 0
 1822 0fba 0A9B     		ldr	r3, [sp, #40]
 1823 0fbc 86EA0500 		eor	r0, r6, r5
 1824 0fc0 4FEAB344 		ror	r4, r3, #18
 1825 0fc4 84EAF314 		eor	r4, r4, r3, ror #7
 1826 0fc8 84EAD304 		eor	r4, r4, r3, lsr #3
 1827 0fcc 099B     		ldr	r3, [sp, #36]
 1828 0fce 00EA0B00 		and	r0, r0, fp
 1829 0fd2 1C44     		add	r4, r4, r3
 1830 0fd4 109B     		ldr	r3, [sp, #64]
 1831 0fd6 4FEAFB2C 		ror	ip, fp, #11
 1832 0fda 1C44     		add	r4, r4, r3
 1833 0fdc 079B     		ldr	r3, [sp, #28]
 1834 0fde 7040     		eors	r0, r0, r6
 1835 0fe0 4FEAF348 		ror	r8, r3, #19
 1836 0fe4 88EA7348 		eor	r8, r8, r3, ror #17
 1837 0fe8 88EA9328 		eor	r8, r8, r3, lsr #10
 1838 0fec 04EB0803 		add	r3, r4, r8
 1839 0ff0 0993     		str	r3, [sp, #36]
 1840 0ff2 099C     		ldr	r4, [sp, #36]
 1841 0ff4 A74B     		ldr	r3, .L17+8
 1842 0ff6 8CEABB1C 		eor	ip, ip, fp, ror #6
 1843 0ffa 2344     		add	r3, r3, r4
 1844 0ffc 1F44     		add	r7, r7, r3
 1845              	.LVL191:
 1846 0ffe 8CEA7B6C 		eor	ip, ip, fp, ror #25
 1847 1002 0744     		add	r7, r7, r0
 1848 1004 6744     		add	r7, r7, ip
 1849              	.LVL192:
 1850 1006 42EA0903 		orr	r3, r2, r9
 1851 100a 4FEA793C 		ror	ip, r9, #13
 1852 100e 02EA0900 		and	r0, r2, r9
 1853 1012 8CEAB90C 		eor	ip, ip, r9, ror #2
 1854 1016 0B40     		ands	r3, r3, r1
 1855 1018 8CEAB95C 		eor	ip, ip, r9, ror #22
 1856 101c 0343     		orrs	r3, r3, r0
 1857 101e 6344     		add	r3, r3, ip
 1858 1020 BA44     		add	r10, r10, r7
 1859              	.LVL193:
 1860 1022 1F44     		add	r7, r7, r3
 1861              	.LVL194:
 159:25519/sha256.c ****     P( H, A, B, C, D, E, F, G, R(41), 0xA81A664B );
 1862              		.loc 1 159 0
 1863 1024 0B9B     		ldr	r3, [sp, #44]
 1864 1026 85EA0B00 		eor	r0, r5, fp
 1865 102a 4FEAB344 		ror	r4, r3, #18
 1866 102e 84EAF314 		eor	r4, r4, r3, ror #7
 1867 1032 84EAD304 		eor	r4, r4, r3, lsr #3
 1868 1036 0A9B     		ldr	r3, [sp, #40]
 1869 1038 00EA0A00 		and	r0, r0, r10
 1870 103c 1C44     		add	r4, r4, r3
 1871 103e 119B     		ldr	r3, [sp, #68]
 1872 1040 6840     		eors	r0, r0, r5
 1873 1042 1C44     		add	r4, r4, r3
 1874 1044 089B     		ldr	r3, [sp, #32]
 1875 1046 4FEAF34E 		ror	lr, r3, #19
 1876 104a 8EEA734E 		eor	lr, lr, r3, ror #17
 1877 104e 8EEA932E 		eor	lr, lr, r3, lsr #10
 1878 1052 04EB0E03 		add	r3, r4, lr
 1879 1056 0A93     		str	r3, [sp, #40]
 1880 1058 0A9C     		ldr	r4, [sp, #40]
 1881 105a 8F4B     		ldr	r3, .L17+12
 1882 105c 4FEAFA2E 		ror	lr, r10, #11
 1883 1060 2344     		add	r3, r3, r4
 1884 1062 1E44     		add	r6, r6, r3
 1885              	.LVL195:
 1886 1064 8EEABA1E 		eor	lr, lr, r10, ror #6
 1887 1068 8EEA7A6E 		eor	lr, lr, r10, ror #25
 1888 106c 0644     		add	r6, r6, r0
 1889 106e 7644     		add	r6, r6, lr
 1890              	.LVL196:
 1891 1070 49EA0703 		orr	r3, r9, r7
 1892 1074 4FEA773E 		ror	lr, r7, #13
 1893 1078 09EA0700 		and	r0, r9, r7
 1894 107c 8EEAB70E 		eor	lr, lr, r7, ror #2
 1895 1080 1340     		ands	r3, r3, r2
 1896 1082 0343     		orrs	r3, r3, r0
 1897 1084 8EEAB75E 		eor	lr, lr, r7, ror #22
 1898 1088 9E44     		add	lr, lr, r3
 160:25519/sha256.c ****     P( G, H, A, B, C, D, E, F, R(42), 0xC24B8B70 );
 1899              		.loc 1 160 0
 1900 108a 0C9B     		ldr	r3, [sp, #48]
 159:25519/sha256.c ****     P( H, A, B, C, D, E, F, G, R(41), 0xA81A664B );
 1901              		.loc 1 159 0
 1902 108c 3144     		add	r1, r1, r6
 1903              	.LVL197:
 1904              		.loc 1 160 0
 1905 108e 4FEAB344 		ror	r4, r3, #18
 1906 1092 84EAF314 		eor	r4, r4, r3, ror #7
 1907 1096 84EAD304 		eor	r4, r4, r3, lsr #3
 1908 109a 0B9B     		ldr	r3, [sp, #44]
 1909 109c 8BEA0A00 		eor	r0, fp, r10
 1910 10a0 1C44     		add	r4, r4, r3
 1911 10a2 049B     		ldr	r3, [sp, #16]
 159:25519/sha256.c ****     P( H, A, B, C, D, E, F, G, R(41), 0xA81A664B );
 1912              		.loc 1 159 0
 1913 10a4 B644     		add	lr, lr, r6
 1914              	.LVL198:
 1915              		.loc 1 160 0
 1916 10a6 1C44     		add	r4, r4, r3
 1917 10a8 099B     		ldr	r3, [sp, #36]
 1918 10aa 0840     		ands	r0, r0, r1
 1919 10ac 4FEAF34C 		ror	ip, r3, #19
 1920 10b0 8CEA734C 		eor	ip, ip, r3, ror #17
 1921 10b4 8CEA932C 		eor	ip, ip, r3, lsr #10
 1922 10b8 04EB0C03 		add	r3, r4, ip
 1923 10bc 0B93     		str	r3, [sp, #44]
 1924 10be 0B9C     		ldr	r4, [sp, #44]
 1925 10c0 764B     		ldr	r3, .L17+16
 1926 10c2 4FEAF126 		ror	r6, r1, #11
 1927              	.LVL199:
 1928 10c6 2344     		add	r3, r3, r4
 1929 10c8 80EA0B00 		eor	r0, r0, fp
 1930 10cc 1D44     		add	r5, r5, r3
 1931              	.LVL200:
 1932 10ce 86EAB116 		eor	r6, r6, r1, ror #6
 1933 10d2 86EA7166 		eor	r6, r6, r1, ror #25
 1934 10d6 0544     		add	r5, r5, r0
 1935 10d8 3544     		add	r5, r5, r6
 1936              	.LVL201:
 1937 10da 47EA0E03 		orr	r3, r7, lr
 1938 10de 4FEA7E36 		ror	r6, lr, #13
 1939 10e2 07EA0E00 		and	r0, r7, lr
 1940 10e6 86EABE06 		eor	r6, r6, lr, ror #2
 1941 10ea 03EA0903 		and	r3, r3, r9
 1942 10ee 0343     		orrs	r3, r3, r0
 1943 10f0 86EABE56 		eor	r6, r6, lr, ror #22
 1944 10f4 1E44     		add	r6, r6, r3
 161:25519/sha256.c ****     P( F, G, H, A, B, C, D, E, R(43), 0xC76C51A3 );
 1945              		.loc 1 161 0
 1946 10f6 0D9B     		ldr	r3, [sp, #52]
 1947 10f8 0A9C     		ldr	r4, [sp, #40]
 1948 10fa 4FEAB340 		ror	r0, r3, #18
 1949 10fe 80EAF310 		eor	r0, r0, r3, ror #7
 1950 1102 80EAD300 		eor	r0, r0, r3, lsr #3
 1951 1106 0C9B     		ldr	r3, [sp, #48]
 160:25519/sha256.c ****     P( G, H, A, B, C, D, E, F, R(42), 0xC24B8B70 );
 1952              		.loc 1 160 0
 1953 1108 2A44     		add	r2, r2, r5
 1954              	.LVL202:
 1955              		.loc 1 161 0
 1956 110a 1844     		add	r0, r0, r3
 1957 110c 059B     		ldr	r3, [sp, #20]
 1958 110e 4FEAF228 		ror	r8, r2, #11
 1959 1112 1844     		add	r0, r0, r3
 1960 1114 0A9B     		ldr	r3, [sp, #40]
 1961 1116 88EAB218 		eor	r8, r8, r2, ror #6
 1962 111a 4FEAF343 		ror	r3, r3, #19
 1963 111e 83EA7443 		eor	r3, r3, r4, ror #17
 1964 1122 83EA9423 		eor	r3, r3, r4, lsr #10
 1965 1126 C318     		adds	r3, r0, r3
 1966 1128 0C93     		str	r3, [sp, #48]
 1967 112a 0C98     		ldr	r0, [sp, #48]
 1968 112c 5C4C     		ldr	r4, .L17+20
 1969 112e 8AEA0103 		eor	r3, r10, r1
 1970 1132 0444     		add	r4, r4, r0
 1971 1134 1340     		ands	r3, r3, r2
 1972 1136 83EA0A03 		eor	r3, r3, r10
 1973 113a A344     		add	fp, fp, r4
 1974              	.LVL203:
 160:25519/sha256.c ****     P( G, H, A, B, C, D, E, F, R(42), 0xC24B8B70 );
 1975              		.loc 1 160 0
 1976 113c 2E44     		add	r6, r6, r5
 1977              	.LVL204:
 1978              		.loc 1 161 0
 1979 113e 88EA7268 		eor	r8, r8, r2, ror #25
 1980 1142 9B44     		add	fp, fp, r3
 1981 1144 C344     		add	fp, fp, r8
 1982              	.LVL205:
 1983 1146 4EEA0603 		orr	r3, lr, r6
 1984 114a 4FEA7638 		ror	r8, r6, #13
 1985 114e 0EEA0600 		and	r0, lr, r6
 1986 1152 88EAB608 		eor	r8, r8, r6, ror #2
 1987 1156 3B40     		ands	r3, r3, r7
 1988 1158 0343     		orrs	r3, r3, r0
 1989 115a 88EAB658 		eor	r8, r8, r6, ror #22
 1990 115e 9844     		add	r8, r8, r3
 162:25519/sha256.c ****     P( E, F, G, H, A, B, C, D, R(44), 0xD192E819 );
 1991              		.loc 1 162 0
 1992 1160 0E9B     		ldr	r3, [sp, #56]
 1993 1162 0E98     		ldr	r0, [sp, #56]
 1994 1164 4FEAB343 		ror	r3, r3, #18
 1995 1168 83EAF013 		eor	r3, r3, r0, ror #7
 1996 116c 83EAD003 		eor	r3, r3, r0, lsr #3
 1997 1170 0D98     		ldr	r0, [sp, #52]
 161:25519/sha256.c ****     P( F, G, H, A, B, C, D, E, R(43), 0xC76C51A3 );
 1998              		.loc 1 161 0
 1999 1172 D944     		add	r9, r9, fp
 2000              	.LVL206:
 2001              		.loc 1 162 0
 2002 1174 0344     		add	r3, r3, r0
 2003 1176 0698     		ldr	r0, [sp, #24]
 161:25519/sha256.c ****     P( F, G, H, A, B, C, D, E, R(43), 0xC76C51A3 );
 2004              		.loc 1 161 0
 2005 1178 D844     		add	r8, r8, fp
 2006              	.LVL207:
 2007              		.loc 1 162 0
 2008 117a 0344     		add	r3, r3, r0
 2009 117c 0B98     		ldr	r0, [sp, #44]
 2010 117e 4FEAF92B 		ror	fp, r9, #11
 2011              	.LVL208:
 2012 1182 4FEAF04C 		ror	ip, r0, #19
 2013 1186 8CEA704C 		eor	ip, ip, r0, ror #17
 2014 118a 8CEA902C 		eor	ip, ip, r0, lsr #10
 2015 118e 6344     		add	r3, r3, ip
 2016 1190 0D93     		str	r3, [sp, #52]
 2017 1192 0D9C     		ldr	r4, [sp, #52]
 2018 1194 4348     		ldr	r0, .L17+24
 2019 1196 81EA0203 		eor	r3, r1, r2
 2020 119a 2044     		add	r0, r0, r4
 2021 119c 03EA0903 		and	r3, r3, r9
 2022 11a0 4B40     		eors	r3, r3, r1
 2023 11a2 8244     		add	r10, r10, r0
 2024              	.LVL209:
 2025 11a4 8BEAB91B 		eor	fp, fp, r9, ror #6
 2026 11a8 8BEA796B 		eor	fp, fp, r9, ror #25
 2027 11ac 9A44     		add	r10, r10, r3
 2028 11ae DA44     		add	r10, r10, fp
 2029              	.LVL210:
 2030 11b0 46EA0803 		orr	r3, r6, r8
 2031 11b4 4FEA783B 		ror	fp, r8, #13
 2032 11b8 06EA0800 		and	r0, r6, r8
 2033 11bc 8BEAB80B 		eor	fp, fp, r8, ror #2
 2034 11c0 03EA0E03 		and	r3, r3, lr
 2035 11c4 0343     		orrs	r3, r3, r0
 2036 11c6 8BEAB85B 		eor	fp, fp, r8, ror #22
 2037 11ca 9B44     		add	fp, fp, r3
 163:25519/sha256.c ****     P( D, E, F, G, H, A, B, C, R(45), 0xD6990624 );
 2038              		.loc 1 163 0
 2039 11cc 029B     		ldr	r3, [sp, #8]
 2040 11ce 0298     		ldr	r0, [sp, #8]
 2041 11d0 4FEAB343 		ror	r3, r3, #18
 2042 11d4 83EAF013 		eor	r3, r3, r0, ror #7
 2043 11d8 83EAD003 		eor	r3, r3, r0, lsr #3
 2044 11dc 0E98     		ldr	r0, [sp, #56]
 2045 11de 0C9C     		ldr	r4, [sp, #48]
 2046 11e0 0344     		add	r3, r3, r0
 2047 11e2 0798     		ldr	r0, [sp, #28]
 162:25519/sha256.c ****     P( E, F, G, H, A, B, C, D, R(44), 0xD192E819 );
 2048              		.loc 1 162 0
 2049 11e4 5744     		add	r7, r7, r10
 2050              	.LVL211:
 2051              		.loc 1 163 0
 2052 11e6 0344     		add	r3, r3, r0
 2053 11e8 0C98     		ldr	r0, [sp, #48]
 162:25519/sha256.c ****     P( E, F, G, H, A, B, C, D, R(44), 0xD192E819 );
 2054              		.loc 1 162 0
 2055 11ea D344     		add	fp, fp, r10
 2056              	.LVL212:
 2057              		.loc 1 163 0
 2058 11ec 4FEAF040 		ror	r0, r0, #19
 2059 11f0 80EA7440 		eor	r0, r0, r4, ror #17
 2060 11f4 80EA9420 		eor	r0, r0, r4, lsr #10
 2061 11f8 0344     		add	r3, r3, r0
 2062 11fa 0E93     		str	r3, [sp, #56]
 2063 11fc 0E9C     		ldr	r4, [sp, #56]
 2064 11fe 2A4B     		ldr	r3, .L17+28
 2065 1200 82EA0900 		eor	r0, r2, r9
 2066 1204 2344     		add	r3, r3, r4
 2067 1206 3840     		ands	r0, r0, r7
 2068 1208 5040     		eors	r0, r0, r2
 2069 120a 1944     		add	r1, r1, r3
 2070              	.LVL213:
 2071 120c 4518     		adds	r5, r0, r1
 2072 120e 4FEAF721 		ror	r1, r7, #11
 2073 1212 81EAB711 		eor	r1, r1, r7, ror #6
 2074 1216 81EA7761 		eor	r1, r1, r7, ror #25
 2075 121a 2944     		add	r1, r1, r5
 2076              	.LVL214:
 2077 121c 48EA0B03 		orr	r3, r8, fp
 2078 1220 4FEA7B35 		ror	r5, fp, #13
 2079 1224 08EA0B00 		and	r0, r8, fp
 2080 1228 85EABB05 		eor	r5, r5, fp, ror #2
 2081 122c 3340     		ands	r3, r3, r6
 2082 122e 0343     		orrs	r3, r3, r0
 2083 1230 85EABB55 		eor	r5, r5, fp, ror #22
 2084 1234 1D44     		add	r5, r5, r3
 164:25519/sha256.c ****     P( C, D, E, F, G, H, A, B, R(46), 0xF40E3585 );
 2085              		.loc 1 164 0
 2086 1236 039B     		ldr	r3, [sp, #12]
 163:25519/sha256.c ****     P( D, E, F, G, H, A, B, C, R(45), 0xD6990624 );
 2087              		.loc 1 163 0
 2088 1238 0D44     		add	r5, r5, r1
 2089 123a 8E44     		add	lr, lr, r1
 2090              	.LVL215:
 2091              		.loc 1 164 0
 2092 123c 0399     		ldr	r1, [sp, #12]
 2093              	.LVL216:
 2094 123e 4FEAB343 		ror	r3, r3, #18
 2095 1242 83EAF113 		eor	r3, r3, r1, ror #7
 2096 1246 83EAD103 		eor	r3, r3, r1, lsr #3
 2097 124a 0299     		ldr	r1, [sp, #8]
 2098 124c 0D98     		ldr	r0, [sp, #52]
 2099 124e 0B44     		add	r3, r3, r1
 2100 1250 0899     		ldr	r1, [sp, #32]
 2101 1252 0B44     		add	r3, r3, r1
 2102 1254 0D99     		ldr	r1, [sp, #52]
 2103 1256 4FEAF141 		ror	r1, r1, #19
 2104 125a 81EA7041 		eor	r1, r1, r0, ror #17
 2105 125e 81EA9021 		eor	r1, r1, r0, lsr #10
 2106 1262 0B44     		add	r3, r3, r1
 2107 1264 1149     		ldr	r1, .L17+32
 2108 1266 89EA0700 		eor	r0, r9, r7
 2109 126a 1944     		add	r1, r1, r3
 2110 126c 00EA0E00 		and	r0, r0, lr
 2111 1270 80EA0900 		eor	r0, r0, r9
 2112 1274 0A44     		add	r2, r2, r1
 2113              	.LVL217:
 2114 1276 0293     		str	r3, [sp, #8]
 2115 1278 8318     		adds	r3, r0, r2
 2116 127a 4FEAFE22 		ror	r2, lr, #11
 2117 127e 82EABE12 		eor	r2, r2, lr, ror #6
 2118 1282 82EA7E62 		eor	r2, r2, lr, ror #25
 2119 1286 1A44     		add	r2, r2, r3
 2120 1288 12E0     		b	.L18
 2121              	.L19:
 2122 128a 00BF     		.align	2
 2123              	.L17:
 2124 128c 2EC9C281 		.word	-2117940946
 2125 1290 852C7292 		.word	-1838011259
 2126 1294 A1E8BFA2 		.word	-1564481375
 2127 1298 4B661AA8 		.word	-1474664885
 2128 129c 708B4BC2 		.word	-1035236496
 2129 12a0 A3516CC7 		.word	-949202525
 2130 12a4 19E892D1 		.word	-778901479
 2131 12a8 240699D6 		.word	-694614492
 2132 12ac 85350EF4 		.word	-200395387
 2133              	.L18:
 2134              	.LVL218:
 2135 12b0 4BEA0501 		orr	r1, fp, r5
 2136 12b4 4FEA7533 		ror	r3, r5, #13
 2137 12b8 0BEA0500 		and	r0, fp, r5
 2138 12bc 83EAB503 		eor	r3, r3, r5, ror #2
 2139 12c0 01EA0801 		and	r1, r1, r8
 2140 12c4 0143     		orrs	r1, r1, r0
 2141 12c6 83EAB553 		eor	r3, r3, r5, ror #22
 2142 12ca 0B44     		add	r3, r3, r1
 2143 12cc 1344     		add	r3, r3, r2
 2144 12ce 1644     		add	r6, r6, r2
 2145              	.LVL219:
 165:25519/sha256.c ****     P( B, C, D, E, F, G, H, A, R(47), 0x106AA070 );
 2146              		.loc 1 165 0
 2147 12d0 0F9A     		ldr	r2, [sp, #60]
 2148              	.LVL220:
 2149 12d2 87EA0E01 		eor	r1, r7, lr
 2150 12d6 4FEAB24A 		ror	r10, r2, #18
 2151 12da 8AEAF21A 		eor	r10, r10, r2, ror #7
 2152 12de 8AEAD20A 		eor	r10, r10, r2, lsr #3
 2153 12e2 039A     		ldr	r2, [sp, #12]
 2154 12e4 3140     		ands	r1, r1, r6
 2155 12e6 9244     		add	r10, r10, r2
 2156 12e8 099A     		ldr	r2, [sp, #36]
 2157 12ea 7940     		eors	r1, r1, r7
 2158 12ec 9244     		add	r10, r10, r2
 2159 12ee 4FEAF442 		ror	r2, r4, #19
 2160 12f2 82EA7442 		eor	r2, r2, r4, ror #17
 2161 12f6 82EA9422 		eor	r2, r2, r4, lsr #10
 2162 12fa 5244     		add	r2, r10, r2
 2163 12fc 0392     		str	r2, [sp, #12]
 2164 12fe 0398     		ldr	r0, [sp, #12]
 2165 1300 E24A     		ldr	r2, .L20
 166:25519/sha256.c ****     P( A, B, C, D, E, F, G, H, R(48), 0x19A4C116 );
 2166              		.loc 1 166 0
 2167 1302 8EEA0604 		eor	r4, lr, r6
 165:25519/sha256.c ****     P( B, C, D, E, F, G, H, A, R(47), 0x106AA070 );
 2168              		.loc 1 165 0
 2169 1306 0244     		add	r2, r2, r0
 2170 1308 9144     		add	r9, r9, r2
 2171              	.LVL221:
 2172 130a 01EB090A 		add	r10, r1, r9
 2173 130e 4FEAF629 		ror	r9, r6, #11
 2174 1312 89EAB619 		eor	r9, r9, r6, ror #6
 2175 1316 89EA7669 		eor	r9, r9, r6, ror #25
 2176 131a D144     		add	r9, r9, r10
 2177              	.LVL222:
 2178 131c 45EA0302 		orr	r2, r5, r3
 2179 1320 4FEA733A 		ror	r10, r3, #13
 2180 1324 05EA0300 		and	r0, r5, r3
 2181 1328 8AEAB30A 		eor	r10, r10, r3, ror #2
 2182 132c 02EA0B02 		and	r2, r2, fp
 2183 1330 0243     		orrs	r2, r2, r0
 2184 1332 8AEAB35A 		eor	r10, r10, r3, ror #22
 2185 1336 9244     		add	r10, r10, r2
 2186              		.loc 1 166 0
 2187 1338 109A     		ldr	r2, [sp, #64]
 165:25519/sha256.c ****     P( B, C, D, E, F, G, H, A, R(47), 0x106AA070 );
 2188              		.loc 1 165 0
 2189 133a 08EB0901 		add	r1, r8, r9
 2190              	.LVL223:
 2191              		.loc 1 166 0
 2192 133e 4FEAB248 		ror	r8, r2, #18
 2193 1342 88EAF218 		eor	r8, r8, r2, ror #7
 2194 1346 88EAD208 		eor	r8, r8, r2, lsr #3
 2195 134a 0F9A     		ldr	r2, [sp, #60]
 2196 134c 0298     		ldr	r0, [sp, #8]
 2197 134e 9044     		add	r8, r8, r2
 2198 1350 0A9A     		ldr	r2, [sp, #40]
 2199 1352 0C40     		ands	r4, r4, r1
 2200 1354 9044     		add	r8, r8, r2
 2201 1356 029A     		ldr	r2, [sp, #8]
 2202 1358 84EA0E04 		eor	r4, r4, lr
 2203 135c 4FEAF242 		ror	r2, r2, #19
 2204 1360 82EA7042 		eor	r2, r2, r0, ror #17
 2205 1364 82EA9022 		eor	r2, r2, r0, lsr #10
 2206 1368 C948     		ldr	r0, .L20+4
 2207 136a 4244     		add	r2, r8, r2
 2208 136c 0F92     		str	r2, [sp, #60]
 2209 136e 1044     		add	r0, r0, r2
 2210 1370 4FEAF122 		ror	r2, r1, #11
 2211 1374 0744     		add	r7, r7, r0
 2212              	.LVL224:
 2213 1376 82EAB112 		eor	r2, r2, r1, ror #6
 165:25519/sha256.c ****     P( B, C, D, E, F, G, H, A, R(47), 0x106AA070 );
 2214              		.loc 1 165 0
 2215 137a CA44     		add	r10, r10, r9
 2216              	.LVL225:
 2217              		.loc 1 166 0
 2218 137c 2744     		add	r7, r7, r4
 2219 137e 82EA7162 		eor	r2, r2, r1, ror #25
 2220 1382 3A44     		add	r2, r2, r7
 2221              	.LVL226:
 2222 1384 43EA0A00 		orr	r0, r3, r10
 2223 1388 4FEA7A37 		ror	r7, r10, #13
 2224 138c 03EA0A04 		and	r4, r3, r10
 2225 1390 87EABA07 		eor	r7, r7, r10, ror #2
 2226 1394 2840     		ands	r0, r0, r5
 2227 1396 2043     		orrs	r0, r0, r4
 2228 1398 87EABA57 		eor	r7, r7, r10, ror #22
 2229 139c 0744     		add	r7, r7, r0
 2230 139e 9344     		add	fp, fp, r2
 2231              	.LVL227:
 2232 13a0 1744     		add	r7, r7, r2
 2233              	.LVL228:
 167:25519/sha256.c ****     P( H, A, B, C, D, E, F, G, R(49), 0x1E376C08 );
 2234              		.loc 1 167 0
 2235 13a2 119A     		ldr	r2, [sp, #68]
 2236              	.LVL229:
 2237 13a4 4FEAFB29 		ror	r9, fp, #11
 2238 13a8 4FEAB248 		ror	r8, r2, #18
 2239 13ac 88EAF218 		eor	r8, r8, r2, ror #7
 2240 13b0 88EAD208 		eor	r8, r8, r2, lsr #3
 2241 13b4 109A     		ldr	r2, [sp, #64]
 2242 13b6 89EABB19 		eor	r9, r9, fp, ror #6
 2243 13ba 9044     		add	r8, r8, r2
 2244 13bc 0B9A     		ldr	r2, [sp, #44]
 2245 13be 89EA7B69 		eor	r9, r9, fp, ror #25
 2246 13c2 9044     		add	r8, r8, r2
 2247 13c4 039A     		ldr	r2, [sp, #12]
 2248 13c6 0398     		ldr	r0, [sp, #12]
 2249 13c8 4FEAF242 		ror	r2, r2, #19
 2250 13cc 82EA7042 		eor	r2, r2, r0, ror #17
 2251 13d0 82EA9022 		eor	r2, r2, r0, lsr #10
 2252 13d4 9044     		add	r8, r8, r2
 2253 13d6 AF4A     		ldr	r2, .L20+8
 2254 13d8 86EA0100 		eor	r0, r6, r1
 2255 13dc 4244     		add	r2, r2, r8
 2256 13de 00EA0B00 		and	r0, r0, fp
 2257 13e2 7040     		eors	r0, r0, r6
 2258 13e4 9644     		add	lr, lr, r2
 2259              	.LVL230:
 2260 13e6 8644     		add	lr, lr, r0
 2261 13e8 CE44     		add	lr, lr, r9
 2262              	.LVL231:
 2263 13ea 4AEA0702 		orr	r2, r10, r7
 2264 13ee 4FEA7739 		ror	r9, r7, #13
 2265 13f2 0AEA0700 		and	r0, r10, r7
 2266 13f6 89EAB709 		eor	r9, r9, r7, ror #2
 2267 13fa 1A40     		ands	r2, r2, r3
 2268 13fc 0243     		orrs	r2, r2, r0
 2269 13fe 89EAB759 		eor	r9, r9, r7, ror #22
 2270 1402 9144     		add	r9, r9, r2
 168:25519/sha256.c ****     P( G, H, A, B, C, D, E, F, R(50), 0x2748774C );
 2271              		.loc 1 168 0
 2272 1404 049A     		ldr	r2, [sp, #16]
 167:25519/sha256.c ****     P( H, A, B, C, D, E, F, G, R(49), 0x1E376C08 );
 2273              		.loc 1 167 0
 2274 1406 F144     		add	r9, r9, lr
 2275 1408 7544     		add	r5, r5, lr
 2276              	.LVL232:
 2277              		.loc 1 168 0
 2278 140a 4FEAB24E 		ror	lr, r2, #18
 2279              	.LVL233:
 2280 140e 8EEAF21E 		eor	lr, lr, r2, ror #7
 2281 1412 8EEAD20E 		eor	lr, lr, r2, lsr #3
 2282 1416 119A     		ldr	r2, [sp, #68]
 2283 1418 0F98     		ldr	r0, [sp, #60]
 2284 141a 9644     		add	lr, lr, r2
 2285 141c 0C9A     		ldr	r2, [sp, #48]
 2286 141e 81EA0B04 		eor	r4, r1, fp
 2287 1422 9644     		add	lr, lr, r2
 2288 1424 0F9A     		ldr	r2, [sp, #60]
 2289 1426 2C40     		ands	r4, r4, r5
 2290 1428 4FEAF242 		ror	r2, r2, #19
 2291 142c 82EA7042 		eor	r2, r2, r0, ror #17
 2292 1430 82EA9022 		eor	r2, r2, r0, lsr #10
 2293 1434 9848     		ldr	r0, .L20+12
 2294 1436 9644     		add	lr, lr, r2
 2295 1438 7044     		add	r0, r0, lr
 2296 143a 4FEAF522 		ror	r2, r5, #11
 2297 143e 4C40     		eors	r4, r4, r1
 2298 1440 0644     		add	r6, r6, r0
 2299              	.LVL234:
 2300 1442 82EAB512 		eor	r2, r2, r5, ror #6
 2301 1446 2644     		add	r6, r6, r4
 2302 1448 82EA7562 		eor	r2, r2, r5, ror #25
 2303 144c 3244     		add	r2, r2, r6
 2304              	.LVL235:
 2305 144e 47EA0900 		orr	r0, r7, r9
 2306 1452 4FEA7936 		ror	r6, r9, #13
 2307 1456 07EA0904 		and	r4, r7, r9
 2308 145a 86EAB906 		eor	r6, r6, r9, ror #2
 2309 145e 00EA0A00 		and	r0, r0, r10
 2310 1462 2043     		orrs	r0, r0, r4
 2311 1464 86EAB956 		eor	r6, r6, r9, ror #22
 2312 1468 0644     		add	r6, r6, r0
 2313 146a 1644     		add	r6, r6, r2
 2314 146c 1344     		add	r3, r3, r2
 2315              	.LVL236:
 169:25519/sha256.c ****     P( F, G, H, A, B, C, D, E, R(51), 0x34B0BCB5 );
 2316              		.loc 1 169 0
 2317 146e 059A     		ldr	r2, [sp, #20]
 2318              	.LVL237:
 2319 1470 8BEA0500 		eor	r0, fp, r5
 2320 1474 4FEAB24C 		ror	ip, r2, #18
 2321 1478 8CEAF21C 		eor	ip, ip, r2, ror #7
 2322 147c 8CEAD20C 		eor	ip, ip, r2, lsr #3
 2323 1480 049A     		ldr	r2, [sp, #16]
 2324 1482 1840     		ands	r0, r0, r3
 2325 1484 9444     		add	ip, ip, r2
 2326 1486 0D9A     		ldr	r2, [sp, #52]
 2327 1488 4FEAF324 		ror	r4, r3, #11
 2328 148c 9444     		add	ip, ip, r2
 2329 148e 4FEAF842 		ror	r2, r8, #19
 2330 1492 82EA7842 		eor	r2, r2, r8, ror #17
 2331 1496 82EA9822 		eor	r2, r2, r8, lsr #10
 2332 149a 9444     		add	ip, ip, r2
 2333 149c 7F4A     		ldr	r2, .L20+16
 2334 149e 80EA0B00 		eor	r0, r0, fp
 2335 14a2 6244     		add	r2, r2, ip
 2336 14a4 1144     		add	r1, r1, r2
 2337              	.LVL238:
 2338 14a6 84EAB314 		eor	r4, r4, r3, ror #6
 2339 14aa 84EA7364 		eor	r4, r4, r3, ror #25
 2340 14ae 0144     		add	r1, r1, r0
 2341 14b0 2144     		add	r1, r1, r4
 2342              	.LVL239:
 2343 14b2 49EA0602 		orr	r2, r9, r6
 2344 14b6 4FEA7634 		ror	r4, r6, #13
 2345 14ba 09EA0600 		and	r0, r9, r6
 2346 14be 84EAB604 		eor	r4, r4, r6, ror #2
 2347 14c2 3A40     		ands	r2, r2, r7
 2348 14c4 0243     		orrs	r2, r2, r0
 2349 14c6 84EAB654 		eor	r4, r4, r6, ror #22
 2350 14ca 1444     		add	r4, r4, r2
 170:25519/sha256.c ****     P( E, F, G, H, A, B, C, D, R(52), 0x391C0CB3 );
 2351              		.loc 1 170 0
 2352 14cc 069A     		ldr	r2, [sp, #24]
 169:25519/sha256.c ****     P( F, G, H, A, B, C, D, E, R(51), 0x34B0BCB5 );
 2353              		.loc 1 169 0
 2354 14ce 0C44     		add	r4, r4, r1
 2355 14d0 8A44     		add	r10, r10, r1
 2356              	.LVL240:
 2357              		.loc 1 170 0
 2358 14d2 0699     		ldr	r1, [sp, #24]
 2359              	.LVL241:
 2360 14d4 4FEAB242 		ror	r2, r2, #18
 2361 14d8 82EAF112 		eor	r2, r2, r1, ror #7
 2362 14dc 82EAD102 		eor	r2, r2, r1, lsr #3
 2363 14e0 0599     		ldr	r1, [sp, #20]
 2364 14e2 0A44     		add	r2, r2, r1
 2365 14e4 0E99     		ldr	r1, [sp, #56]
 2366 14e6 0A44     		add	r2, r2, r1
 2367 14e8 4FEAFE41 		ror	r1, lr, #19
 2368 14ec 81EA7E41 		eor	r1, r1, lr, ror #17
 2369 14f0 81EA9E21 		eor	r1, r1, lr, lsr #10
 2370 14f4 0A44     		add	r2, r2, r1
 2371 14f6 0492     		str	r2, [sp, #16]
 2372 14f8 0498     		ldr	r0, [sp, #16]
 2373 14fa 694A     		ldr	r2, .L20+20
 2374 14fc 85EA0301 		eor	r1, r5, r3
 2375 1500 01EA0A01 		and	r1, r1, r10
 2376 1504 0244     		add	r2, r2, r0
 2377 1506 4FEAFA20 		ror	r0, r10, #11
 2378 150a 6940     		eors	r1, r1, r5
 2379 150c 5A44     		add	r2, r2, fp
 2380 150e 80EABA10 		eor	r0, r0, r10, ror #6
 2381 1512 80EA7A60 		eor	r0, r0, r10, ror #25
 2382 1516 0A44     		add	r2, r2, r1
 2383 1518 0244     		add	r2, r2, r0
 2384              	.LVL242:
 2385 151a 46EA0401 		orr	r1, r6, r4
 2386 151e 4FEA7430 		ror	r0, r4, #13
 2387 1522 06EA040B 		and	fp, r6, r4
 2388              	.LVL243:
 2389 1526 80EAB400 		eor	r0, r0, r4, ror #2
 2390 152a 01EA0901 		and	r1, r1, r9
 2391 152e 41EA0B01 		orr	r1, r1, fp
 2392 1532 80EAB450 		eor	r0, r0, r4, ror #22
 2393 1536 0844     		add	r0, r0, r1
 2394 1538 1044     		add	r0, r0, r2
 2395 153a 1744     		add	r7, r7, r2
 2396              	.LVL244:
 171:25519/sha256.c ****     P( D, E, F, G, H, A, B, C, R(53), 0x4ED8AA4A );
 2397              		.loc 1 171 0
 2398 153c 079A     		ldr	r2, [sp, #28]
 2399              	.LVL245:
 2400 153e 0799     		ldr	r1, [sp, #28]
 2401 1540 4FEAB242 		ror	r2, r2, #18
 2402 1544 82EAF112 		eor	r2, r2, r1, ror #7
 2403 1548 82EAD102 		eor	r2, r2, r1, lsr #3
 2404 154c 0699     		ldr	r1, [sp, #24]
 2405 154e 83EA0A0B 		eor	fp, r3, r10
 2406 1552 0A44     		add	r2, r2, r1
 2407 1554 0299     		ldr	r1, [sp, #8]
 2408 1556 0BEA070B 		and	fp, fp, r7
 2409 155a 0A44     		add	r2, r2, r1
 2410 155c 4FEAFC41 		ror	r1, ip, #19
 2411 1560 81EA7C41 		eor	r1, r1, ip, ror #17
 2412 1564 81EA9C21 		eor	r1, r1, ip, lsr #10
 2413 1568 0A44     		add	r2, r2, r1
 2414 156a 0592     		str	r2, [sp, #20]
 2415 156c 0599     		ldr	r1, [sp, #20]
 2416 156e 4D4A     		ldr	r2, .L20+24
 2417 1570 8BEA030B 		eor	fp, fp, r3
 2418 1574 0A44     		add	r2, r2, r1
 2419 1576 4FEAF721 		ror	r1, r7, #11
 2420 157a 1544     		add	r5, r5, r2
 2421              	.LVL246:
 2422 157c 81EAB711 		eor	r1, r1, r7, ror #6
 2423 1580 81EA7761 		eor	r1, r1, r7, ror #25
 2424 1584 5D44     		add	r5, r5, fp
 2425 1586 0D44     		add	r5, r5, r1
 2426              	.LVL247:
 2427 1588 44EA0002 		orr	r2, r4, r0
 2428 158c 4FEA7031 		ror	r1, r0, #13
 2429 1590 04EA000B 		and	fp, r4, r0
 2430 1594 81EAB001 		eor	r1, r1, r0, ror #2
 2431 1598 3240     		ands	r2, r2, r6
 2432 159a 42EA0B02 		orr	r2, r2, fp
 2433 159e 81EAB051 		eor	r1, r1, r0, ror #22
 2434 15a2 1144     		add	r1, r1, r2
 172:25519/sha256.c ****     P( C, D, E, F, G, H, A, B, R(54), 0x5B9CCA4F );
 2435              		.loc 1 172 0
 2436 15a4 089A     		ldr	r2, [sp, #32]
 171:25519/sha256.c ****     P( D, E, F, G, H, A, B, C, R(53), 0x4ED8AA4A );
 2437              		.loc 1 171 0
 2438 15a6 2944     		add	r1, r1, r5
 2439 15a8 A944     		add	r9, r9, r5
 2440              	.LVL248:
 2441              		.loc 1 172 0
 2442 15aa 089D     		ldr	r5, [sp, #32]
 2443              	.LVL249:
 2444 15ac 4FEAB242 		ror	r2, r2, #18
 2445 15b0 82EAF512 		eor	r2, r2, r5, ror #7
 2446 15b4 82EAD502 		eor	r2, r2, r5, lsr #3
 2447 15b8 079D     		ldr	r5, [sp, #28]
 2448 15ba 2A44     		add	r2, r2, r5
 2449 15bc 039D     		ldr	r5, [sp, #12]
 2450 15be 02EB050B 		add	fp, r2, r5
 2451 15c2 049D     		ldr	r5, [sp, #16]
 2452 15c4 049A     		ldr	r2, [sp, #16]
 2453 15c6 4FEAF545 		ror	r5, r5, #19
 2454 15ca 85EA7245 		eor	r5, r5, r2, ror #17
 2455 15ce 85EA9225 		eor	r5, r5, r2, lsr #10
 2456 15d2 0BEB0502 		add	r2, fp, r5
 2457 15d6 344D     		ldr	r5, .L20+28
 2458 15d8 8AEA070B 		eor	fp, r10, r7
 2459 15dc 0692     		str	r2, [sp, #24]
 2460 15de 1544     		add	r5, r5, r2
 2461 15e0 0BEA090B 		and	fp, fp, r9
 2462 15e4 4FEAF922 		ror	r2, r9, #11
 2463 15e8 8BEA0A0B 		eor	fp, fp, r10
 2464 15ec 2B44     		add	r3, r3, r5
 2465              	.LVL250:
 2466 15ee 82EAB912 		eor	r2, r2, r9, ror #6
 2467 15f2 82EA7962 		eor	r2, r2, r9, ror #25
 2468 15f6 5B44     		add	r3, r3, fp
 2469 15f8 1344     		add	r3, r3, r2
 2470              	.LVL251:
 2471 15fa 40EA0105 		orr	r5, r0, r1
 2472 15fe 4FEA7132 		ror	r2, r1, #13
 2473 1602 00EA010B 		and	fp, r0, r1
 2474 1606 82EAB102 		eor	r2, r2, r1, ror #2
 2475 160a 2540     		ands	r5, r5, r4
 2476 160c 45EA0B05 		orr	r5, r5, fp
 2477 1610 82EAB152 		eor	r2, r2, r1, ror #22
 2478 1614 2A44     		add	r2, r2, r5
 2479 1616 1A44     		add	r2, r2, r3
 2480 1618 1E44     		add	r6, r6, r3
 2481              	.LVL252:
 173:25519/sha256.c ****     P( B, C, D, E, F, G, H, A, R(55), 0x682E6FF3 );
 2482              		.loc 1 173 0
 2483 161a 099B     		ldr	r3, [sp, #36]
 2484              	.LVL253:
 2485 161c 099D     		ldr	r5, [sp, #36]
 2486 161e 4FEAB343 		ror	r3, r3, #18
 2487 1622 83EAF513 		eor	r3, r3, r5, ror #7
 2488 1626 83EAD503 		eor	r3, r3, r5, lsr #3
 2489 162a 089D     		ldr	r5, [sp, #32]
 2490 162c 2B44     		add	r3, r3, r5
 2491 162e 0F9D     		ldr	r5, [sp, #60]
 2492 1630 03EB050B 		add	fp, r3, r5
 2493 1634 059D     		ldr	r5, [sp, #20]
 2494 1636 059B     		ldr	r3, [sp, #20]
 2495 1638 4FEAF545 		ror	r5, r5, #19
 2496 163c 85EA7345 		eor	r5, r5, r3, ror #17
 2497 1640 85EA9325 		eor	r5, r5, r3, lsr #10
 2498 1644 0BEB0503 		add	r3, fp, r5
 2499 1648 87EA0905 		eor	r5, r7, r9
 2500 164c 0793     		str	r3, [sp, #28]
 2501 164e 3540     		ands	r5, r5, r6
 2502 1650 85EA070B 		eor	fp, r5, r7
 2503 1654 154B     		ldr	r3, .L20+32
 2504 1656 079D     		ldr	r5, [sp, #28]
 2505 1658 2B44     		add	r3, r3, r5
 2506 165a 9A44     		add	r10, r10, r3
 2507              	.LVL254:
 2508 165c 4FEAF623 		ror	r3, r6, #11
 2509 1660 83EAB613 		eor	r3, r3, r6, ror #6
 2510 1664 83EA7663 		eor	r3, r3, r6, ror #25
 2511 1668 DA44     		add	r10, r10, fp
 2512 166a 9A44     		add	r10, r10, r3
 2513              	.LVL255:
 2514 166c 41EA0205 		orr	r5, r1, r2
 2515 1670 4FEA7233 		ror	r3, r2, #13
 2516 1674 01EA020B 		and	fp, r1, r2
 2517 1678 83EAB203 		eor	r3, r3, r2, ror #2
 2518 167c 0540     		ands	r5, r5, r0
 2519 167e 83EAB253 		eor	r3, r3, r2, ror #22
 2520 1682 45EA0B05 		orr	r5, r5, fp
 2521 1686 1D44     		add	r5, r5, r3
 2522 1688 12E0     		b	.L21
 2523              	.L22:
 2524 168a 00BF     		.align	2
 2525              	.L20:
 2526 168c 70A06A10 		.word	275423344
 2527 1690 16C1A419 		.word	430227734
 2528 1694 086C371E 		.word	506948616
 2529 1698 4C774827 		.word	659060556
 2530 169c B5BCB034 		.word	883997877
 2531 16a0 B30C1C39 		.word	958139571
 2532 16a4 4AAAD84E 		.word	1322822218
 2533 16a8 4FCA9C5B 		.word	1537002063
 2534 16ac F36F2E68 		.word	1747873779
 2535              	.L21:
 174:25519/sha256.c ****     P( A, B, C, D, E, F, G, H, R(56), 0x748F82EE );
 2536              		.loc 1 174 0
 2537 16b0 0A9B     		ldr	r3, [sp, #40]
 173:25519/sha256.c ****     P( B, C, D, E, F, G, H, A, R(55), 0x682E6FF3 );
 2538              		.loc 1 173 0
 2539 16b2 5444     		add	r4, r4, r10
 2540              	.LVL256:
 2541 16b4 AA44     		add	r10, r10, r5
 2542              	.LVL257:
 2543              		.loc 1 174 0
 2544 16b6 0A9D     		ldr	r5, [sp, #40]
 2545 16b8 4FEAB343 		ror	r3, r3, #18
 2546 16bc 83EAF513 		eor	r3, r3, r5, ror #7
 2547 16c0 83EAD503 		eor	r3, r3, r5, lsr #3
 2548 16c4 099D     		ldr	r5, [sp, #36]
 2549 16c6 2B44     		add	r3, r3, r5
 2550 16c8 9844     		add	r8, r8, r3
 2551 16ca 069B     		ldr	r3, [sp, #24]
 2552 16cc 069D     		ldr	r5, [sp, #24]
 2553 16ce 4FEAF343 		ror	r3, r3, #19
 2554 16d2 83EA7543 		eor	r3, r3, r5, ror #17
 2555 16d6 83EA9523 		eor	r3, r3, r5, lsr #10
 2556 16da D64D     		ldr	r5, .L23
 2557 16dc 4344     		add	r3, r8, r3
 2558 16de 89EA0608 		eor	r8, r9, r6
 2559 16e2 1D44     		add	r5, r5, r3
 2560 16e4 08EA0408 		and	r8, r8, r4
 2561 16e8 2F44     		add	r7, r7, r5
 2562              	.LVL258:
 2563 16ea 88EA0908 		eor	r8, r8, r9
 2564 16ee B844     		add	r8, r8, r7
 2565 16f0 4FEAF427 		ror	r7, r4, #11
 2566 16f4 87EAB417 		eor	r7, r7, r4, ror #6
 2567 16f8 87EA7467 		eor	r7, r7, r4, ror #25
 2568 16fc 0893     		str	r3, [sp, #32]
 2569 16fe 42EA0A05 		orr	r5, r2, r10
 2570 1702 08EB0703 		add	r3, r8, r7
 2571              	.LVL259:
 2572 1706 4FEA7A37 		ror	r7, r10, #13
 2573 170a 02EA0A08 		and	r8, r2, r10
 2574 170e 87EABA07 		eor	r7, r7, r10, ror #2
 2575 1712 0D40     		ands	r5, r5, r1
 2576 1714 45EA0805 		orr	r5, r5, r8
 2577 1718 87EABA57 		eor	r7, r7, r10, ror #22
 2578 171c 2F44     		add	r7, r7, r5
 2579 171e 1F44     		add	r7, r7, r3
 2580 1720 1844     		add	r0, r0, r3
 2581              	.LVL260:
 175:25519/sha256.c ****     P( H, A, B, C, D, E, F, G, R(57), 0x78A5636F );
 2582              		.loc 1 175 0
 2583 1722 0B9B     		ldr	r3, [sp, #44]
 2584              	.LVL261:
 2585 1724 0B9D     		ldr	r5, [sp, #44]
 2586 1726 4FEAB343 		ror	r3, r3, #18
 2587 172a 83EAF513 		eor	r3, r3, r5, ror #7
 2588 172e 83EAD503 		eor	r3, r3, r5, lsr #3
 2589 1732 0A9D     		ldr	r5, [sp, #40]
 2590 1734 86EA0408 		eor	r8, r6, r4
 2591 1738 2B44     		add	r3, r3, r5
 2592 173a 9E44     		add	lr, lr, r3
 2593 173c 079B     		ldr	r3, [sp, #28]
 2594 173e 079D     		ldr	r5, [sp, #28]
 2595 1740 4FEAF343 		ror	r3, r3, #19
 2596 1744 83EA7543 		eor	r3, r3, r5, ror #17
 2597 1748 83EA9523 		eor	r3, r3, r5, lsr #10
 2598 174c BA4D     		ldr	r5, .L23+4
 2599 174e 9E44     		add	lr, lr, r3
 2600 1750 7544     		add	r5, r5, lr
 2601 1752 08EA0008 		and	r8, r8, r0
 2602 1756 A944     		add	r9, r9, r5
 2603              	.LVL262:
 2604 1758 88EA0608 		eor	r8, r8, r6
 2605 175c C844     		add	r8, r8, r9
 2606 175e 4FEAF029 		ror	r9, r0, #11
 2607 1762 89EAB019 		eor	r9, r9, r0, ror #6
 2608 1766 89EA7069 		eor	r9, r9, r0, ror #25
 2609 176a 08EB0903 		add	r3, r8, r9
 2610              	.LVL263:
 2611 176e 4AEA0705 		orr	r5, r10, r7
 2612 1772 4FEA7739 		ror	r9, r7, #13
 2613 1776 0AEA0708 		and	r8, r10, r7
 2614 177a 89EAB709 		eor	r9, r9, r7, ror #2
 2615 177e 1540     		ands	r5, r5, r2
 2616 1780 45EA0805 		orr	r5, r5, r8
 2617 1784 89EAB759 		eor	r9, r9, r7, ror #22
 2618 1788 A944     		add	r9, r9, r5
 2619 178a 9944     		add	r9, r9, r3
 2620 178c 1944     		add	r1, r1, r3
 2621              	.LVL264:
 176:25519/sha256.c ****     P( G, H, A, B, C, D, E, F, R(58), 0x84C87814 );
 2622              		.loc 1 176 0
 2623 178e 0C9B     		ldr	r3, [sp, #48]
 2624              	.LVL265:
 2625 1790 0C9D     		ldr	r5, [sp, #48]
 2626 1792 4FEAB343 		ror	r3, r3, #18
 2627 1796 83EAF513 		eor	r3, r3, r5, ror #7
 2628 179a 83EAD503 		eor	r3, r3, r5, lsr #3
 2629 179e 0B9D     		ldr	r5, [sp, #44]
 2630 17a0 07EA0908 		and	r8, r7, r9
 2631 17a4 2B44     		add	r3, r3, r5
 2632 17a6 9C44     		add	ip, ip, r3
 2633 17a8 089B     		ldr	r3, [sp, #32]
 2634 17aa 089D     		ldr	r5, [sp, #32]
 2635 17ac 4FEAF343 		ror	r3, r3, #19
 2636 17b0 83EA7543 		eor	r3, r3, r5, ror #17
 2637 17b4 83EA9523 		eor	r3, r3, r5, lsr #10
 2638 17b8 9C44     		add	ip, ip, r3
 2639 17ba A04B     		ldr	r3, .L23+8
 2640 17bc 84EA0005 		eor	r5, r4, r0
 2641 17c0 6344     		add	r3, r3, ip
 2642 17c2 0D40     		ands	r5, r5, r1
 2643 17c4 1E44     		add	r6, r6, r3
 2644              	.LVL266:
 2645 17c6 4FEAF123 		ror	r3, r1, #11
 2646 17ca 6540     		eors	r5, r5, r4
 2647 17cc 83EAB113 		eor	r3, r3, r1, ror #6
 2648 17d0 83EA7163 		eor	r3, r3, r1, ror #25
 2649 17d4 2E44     		add	r6, r6, r5
 2650 17d6 1E44     		add	r6, r6, r3
 2651              	.LVL267:
 2652 17d8 47EA0905 		orr	r5, r7, r9
 2653 17dc 4FEA7933 		ror	r3, r9, #13
 2654 17e0 83EAB903 		eor	r3, r3, r9, ror #2
 2655 17e4 05EA0A05 		and	r5, r5, r10
 2656 17e8 83EAB953 		eor	r3, r3, r9, ror #22
 2657 17ec 45EA0805 		orr	r5, r5, r8
 2658 17f0 1D44     		add	r5, r5, r3
 177:25519/sha256.c ****     P( F, G, H, A, B, C, D, E, R(59), 0x8CC70208 );
 2659              		.loc 1 177 0
 2660 17f2 0D9B     		ldr	r3, [sp, #52]
 176:25519/sha256.c ****     P( G, H, A, B, C, D, E, F, R(58), 0x84C87814 );
 2661              		.loc 1 176 0
 2662 17f4 3244     		add	r2, r2, r6
 2663              	.LVL268:
 2664 17f6 2E44     		add	r6, r6, r5
 2665              	.LVL269:
 2666              		.loc 1 177 0
 2667 17f8 0D9D     		ldr	r5, [sp, #52]
 2668 17fa 4FEAB343 		ror	r3, r3, #18
 2669 17fe 83EAF513 		eor	r3, r3, r5, ror #7
 2670 1802 83EAD503 		eor	r3, r3, r5, lsr #3
 2671 1806 0C9D     		ldr	r5, [sp, #48]
 2672 1808 09EA0608 		and	r8, r9, r6
 2673 180c 2B44     		add	r3, r3, r5
 2674 180e 049D     		ldr	r5, [sp, #16]
 2675 1810 2B44     		add	r3, r3, r5
 2676 1812 4FEAFE45 		ror	r5, lr, #19
 2677 1816 85EA7E45 		eor	r5, r5, lr, ror #17
 2678 181a 85EA9E2E 		eor	lr, r5, lr, lsr #10
 2679 181e 9E44     		add	lr, lr, r3
 2680 1820 874B     		ldr	r3, .L23+12
 2681 1822 80EA0105 		eor	r5, r0, r1
 2682 1826 7344     		add	r3, r3, lr
 2683 1828 1540     		ands	r5, r5, r2
 2684 182a 1C44     		add	r4, r4, r3
 2685              	.LVL270:
 2686 182c 4FEAF223 		ror	r3, r2, #11
 2687 1830 4540     		eors	r5, r5, r0
 2688 1832 83EAB213 		eor	r3, r3, r2, ror #6
 2689 1836 83EA7263 		eor	r3, r3, r2, ror #25
 2690 183a 2C44     		add	r4, r4, r5
 2691 183c 1C44     		add	r4, r4, r3
 2692              	.LVL271:
 2693 183e 49EA0605 		orr	r5, r9, r6
 2694 1842 4FEA7633 		ror	r3, r6, #13
 2695 1846 83EAB603 		eor	r3, r3, r6, ror #2
 2696 184a 3D40     		ands	r5, r5, r7
 2697 184c 83EAB653 		eor	r3, r3, r6, ror #22
 2698 1850 45EA0805 		orr	r5, r5, r8
 2699 1854 1D44     		add	r5, r5, r3
 178:25519/sha256.c ****     P( E, F, G, H, A, B, C, D, R(60), 0x90BEFFFA );
 2700              		.loc 1 178 0
 2701 1856 0E9B     		ldr	r3, [sp, #56]
 177:25519/sha256.c ****     P( F, G, H, A, B, C, D, E, R(59), 0x8CC70208 );
 2702              		.loc 1 177 0
 2703 1858 A244     		add	r10, r10, r4
 2704              	.LVL272:
 2705 185a 2C44     		add	r4, r4, r5
 2706              	.LVL273:
 2707              		.loc 1 178 0
 2708 185c 0E9D     		ldr	r5, [sp, #56]
 2709 185e 4FEAB343 		ror	r3, r3, #18
 2710 1862 83EAF513 		eor	r3, r3, r5, ror #7
 2711 1866 83EAD503 		eor	r3, r3, r5, lsr #3
 2712 186a 0D9D     		ldr	r5, [sp, #52]
 2713 186c 4FEAFA2B 		ror	fp, r10, #11
 2714 1870 2B44     		add	r3, r3, r5
 2715 1872 059D     		ldr	r5, [sp, #20]
 2716 1874 8BEABA1B 		eor	fp, fp, r10, ror #6
 2717 1878 2B44     		add	r3, r3, r5
 2718 187a 4FEAFC45 		ror	r5, ip, #19
 2719 187e 85EA7C45 		eor	r5, r5, ip, ror #17
 2720 1882 85EA9C2C 		eor	ip, r5, ip, lsr #10
 2721 1886 9C44     		add	ip, ip, r3
 2722 1888 6E4B     		ldr	r3, .L23+16
 2723 188a 81EA0205 		eor	r5, r1, r2
 2724 188e 6344     		add	r3, r3, ip
 2725 1890 05EA0A05 		and	r5, r5, r10
 2726 1894 4D40     		eors	r5, r5, r1
 2727 1896 1844     		add	r0, r0, r3
 2728              	.LVL274:
 2729 1898 8BEA7A6B 		eor	fp, fp, r10, ror #25
 2730 189c 2844     		add	r0, r0, r5
 2731 189e 5844     		add	r0, r0, fp
 2732              	.LVL275:
 2733 18a0 46EA0403 		orr	r3, r6, r4
 2734 18a4 4FEA743B 		ror	fp, r4, #13
 2735 18a8 06EA0405 		and	r5, r6, r4
 2736 18ac 8BEAB40B 		eor	fp, fp, r4, ror #2
 2737 18b0 03EA0903 		and	r3, r3, r9
 2738 18b4 8BEAB45B 		eor	fp, fp, r4, ror #22
 2739 18b8 2B43     		orrs	r3, r3, r5
 2740 18ba 5B44     		add	r3, r3, fp
 2741 18bc 0744     		add	r7, r7, r0
 2742              	.LVL276:
 2743 18be 1844     		add	r0, r0, r3
 2744              	.LVL277:
 179:25519/sha256.c ****     P( D, E, F, G, H, A, B, C, R(61), 0xA4506CEB );
 2745              		.loc 1 179 0
 2746 18c0 029B     		ldr	r3, [sp, #8]
 2747 18c2 029D     		ldr	r5, [sp, #8]
 2748 18c4 4FEAB343 		ror	r3, r3, #18
 2749 18c8 83EAF513 		eor	r3, r3, r5, ror #7
 2750 18cc 83EAD503 		eor	r3, r3, r5, lsr #3
 2751 18d0 0E9D     		ldr	r5, [sp, #56]
 2752 18d2 4FEAFE48 		ror	r8, lr, #19
 2753 18d6 2B44     		add	r3, r3, r5
 2754 18d8 069D     		ldr	r5, [sp, #24]
 2755 18da 88EA7E48 		eor	r8, r8, lr, ror #17
 2756 18de 5D19     		adds	r5, r3, r5
 2757 18e0 88EA9E2E 		eor	lr, r8, lr, lsr #10
 2758 18e4 584B     		ldr	r3, .L23+20
 2759 18e6 AE44     		add	lr, lr, r5
 2760 18e8 82EA0A05 		eor	r5, r2, r10
 2761 18ec 7344     		add	r3, r3, lr
 2762 18ee 3D40     		ands	r5, r5, r7
 2763 18f0 4FEAF728 		ror	r8, r7, #11
 2764 18f4 5540     		eors	r5, r5, r2
 2765 18f6 1944     		add	r1, r1, r3
 2766              	.LVL278:
 2767 18f8 88EAB718 		eor	r8, r8, r7, ror #6
 2768 18fc 88EA7768 		eor	r8, r8, r7, ror #25
 2769 1900 2944     		add	r1, r1, r5
 2770 1902 4144     		add	r1, r1, r8
 2771              	.LVL279:
 2772 1904 44EA0003 		orr	r3, r4, r0
 2773 1908 4FEA7038 		ror	r8, r0, #13
 2774 190c 04EA0005 		and	r5, r4, r0
 2775 1910 88EAB008 		eor	r8, r8, r0, ror #2
 2776 1914 3340     		ands	r3, r3, r6
 2777 1916 88EAB058 		eor	r8, r8, r0, ror #22
 2778 191a 2B43     		orrs	r3, r3, r5
 2779 191c 4344     		add	r3, r3, r8
 2780 191e 8944     		add	r9, r9, r1
 2781              	.LVL280:
 2782 1920 1944     		add	r1, r1, r3
 2783              	.LVL281:
 180:25519/sha256.c ****     P( C, D, E, F, G, H, A, B, R(62), 0xBEF9A3F7 );
 2784              		.loc 1 180 0
 2785 1922 039B     		ldr	r3, [sp, #12]
 2786 1924 029D     		ldr	r5, [sp, #8]
 2787 1926 4FEAB34B 		ror	fp, r3, #18
 2788 192a 8BEAF31B 		eor	fp, fp, r3, ror #7
 2789 192e 8BEAD30B 		eor	fp, fp, r3, lsr #3
 2790 1932 464B     		ldr	r3, .L23+24
 2791 1934 8AEA0708 		eor	r8, r10, r7
 2792 1938 2B44     		add	r3, r3, r5
 2793 193a 079D     		ldr	r5, [sp, #28]
 2794 193c 5B44     		add	r3, r3, fp
 2795 193e 2B44     		add	r3, r3, r5
 2796 1940 4FEAFC45 		ror	r5, ip, #19
 2797 1944 85EA7C45 		eor	r5, r5, ip, ror #17
 2798 1948 85EA9C2C 		eor	ip, r5, ip, lsr #10
 2799 194c 9C44     		add	ip, ip, r3
 2800 194e 08EA0908 		and	r8, r8, r9
 2801 1952 4FEAF923 		ror	r3, r9, #11
 2802 1956 88EA0A08 		eor	r8, r8, r10
 2803 195a 6244     		add	r2, r2, ip
 2804              	.LVL282:
 2805 195c 83EAB913 		eor	r3, r3, r9, ror #6
 2806 1960 83EA7963 		eor	r3, r3, r9, ror #25
 2807 1964 4244     		add	r2, r2, r8
 2808 1966 1A44     		add	r2, r2, r3
 2809              	.LVL283:
 2810 1968 40EA0105 		orr	r5, r0, r1
 2811 196c 4FEA7133 		ror	r3, r1, #13
 2812 1970 00EA010C 		and	ip, r0, r1
 2813 1974 83EAB103 		eor	r3, r3, r1, ror #2
 2814 1978 2540     		ands	r5, r5, r4
 2815 197a 83EAB153 		eor	r3, r3, r1, ror #22
 2816 197e 45EA0C05 		orr	r5, r5, ip
 2817 1982 1D44     		add	r5, r5, r3
 181:25519/sha256.c ****     P( B, C, D, E, F, G, H, A, R(63), 0xC67178F2 );
 2818              		.loc 1 181 0
 2819 1984 0F9B     		ldr	r3, [sp, #60]
 180:25519/sha256.c ****     P( C, D, E, F, G, H, A, B, R(62), 0xBEF9A3F7 );
 2820              		.loc 1 180 0
 2821 1986 1544     		add	r5, r5, r2
 2822              		.loc 1 181 0
 2823 1988 4FEAB348 		ror	r8, r3, #18
 2824 198c 88EAF318 		eor	r8, r8, r3, ror #7
 180:25519/sha256.c ****     P( C, D, E, F, G, H, A, B, R(62), 0xBEF9A3F7 );
 2825              		.loc 1 180 0
 2826 1990 1644     		add	r6, r6, r2
 2827              	.LVL284:
 2828              		.loc 1 181 0
 2829 1992 88EAD308 		eor	r8, r8, r3, lsr #3
 2830 1996 2E4A     		ldr	r2, .L23+28
 2831              	.LVL285:
 2832 1998 039B     		ldr	r3, [sp, #12]
 2833 199a 87EA090C 		eor	ip, r7, r9
 2834 199e 1A44     		add	r2, r2, r3
 2835 19a0 089B     		ldr	r3, [sp, #32]
 2836 19a2 9044     		add	r8, r8, r2
 2837 19a4 9844     		add	r8, r8, r3
 2838 19a6 4FEAFE43 		ror	r3, lr, #19
 2839 19aa 83EA7E43 		eor	r3, r3, lr, ror #17
 2840 19ae 83EA9E2E 		eor	lr, r3, lr, lsr #10
 2841 19b2 C644     		add	lr, lr, r8
 2842 19b4 0CEA060C 		and	ip, ip, r6
 2843 19b8 4FEAF623 		ror	r3, r6, #11
 2844 19bc 8CEA070C 		eor	ip, ip, r7
 2845 19c0 F244     		add	r10, r10, lr
 2846              	.LVL286:
 2847 19c2 83EAB613 		eor	r3, r3, r6, ror #6
 2848 19c6 83EA7663 		eor	r3, r3, r6, ror #25
 2849 19ca E244     		add	r10, r10, ip
 2850 19cc 9A44     		add	r10, r10, r3
 2851              	.LVL287:
 2852 19ce 41EA0502 		orr	r2, r1, r5
 2853 19d2 4FEA7533 		ror	r3, r5, #13
 2854 19d6 01EA050C 		and	ip, r1, r5
 2855 19da 83EAB503 		eor	r3, r3, r5, ror #2
 2856 19de 0240     		ands	r2, r2, r0
 2857 19e0 83EAB553 		eor	r3, r3, r5, ror #22
 2858 19e4 42EA0C02 		orr	r2, r2, ip
 2859 19e8 1A44     		add	r2, r2, r3
 182:25519/sha256.c **** 
 183:25519/sha256.c ****     ctx->state[0] += A;
 2860              		.loc 1 183 0
 2861 19ea 019B     		ldr	r3, [sp, #4]
 2862 19ec 1A44     		add	r2, r2, r3
 2863 19ee 009B     		ldr	r3, [sp]
 2864 19f0 5244     		add	r2, r2, r10
 2865 19f2 9A60     		str	r2, [r3, #8]
 2866              	.LVL288:
 184:25519/sha256.c ****     ctx->state[1] += B;
 2867              		.loc 1 184 0
 2868 19f4 149B     		ldr	r3, [sp, #80]
 185:25519/sha256.c ****     ctx->state[2] += C;
 186:25519/sha256.c ****     ctx->state[3] += D;
 187:25519/sha256.c ****     ctx->state[4] += E;
 188:25519/sha256.c ****     ctx->state[5] += F;
 189:25519/sha256.c ****     ctx->state[6] += G;
 2869              		.loc 1 189 0
 2870 19f6 009A     		ldr	r2, [sp]
 184:25519/sha256.c ****     ctx->state[1] += B;
 2871              		.loc 1 184 0
 2872 19f8 1D44     		add	r5, r5, r3
 2873              	.LVL289:
 2874 19fa 009B     		ldr	r3, [sp]
 2875 19fc DD60     		str	r5, [r3, #12]
 185:25519/sha256.c ****     ctx->state[2] += C;
 2876              		.loc 1 185 0
 2877 19fe 179B     		ldr	r3, [sp, #92]
 2878 1a00 1944     		add	r1, r1, r3
 2879              	.LVL290:
 2880 1a02 009B     		ldr	r3, [sp]
 2881 1a04 1961     		str	r1, [r3, #16]
 186:25519/sha256.c ****     ctx->state[4] += E;
 2882              		.loc 1 186 0
 2883 1a06 189B     		ldr	r3, [sp, #96]
 2884 1a08 1844     		add	r0, r0, r3
 2885              	.LVL291:
 2886 1a0a 009B     		ldr	r3, [sp]
 2887 1a0c 5861     		str	r0, [r3, #20]
 187:25519/sha256.c ****     ctx->state[5] += F;
 2888              		.loc 1 187 0
 2889 1a0e 129B     		ldr	r3, [sp, #72]
 2890 1a10 1C44     		add	r4, r4, r3
 2891              	.LVL292:
 2892 1a12 009B     		ldr	r3, [sp]
 2893 1a14 5444     		add	r4, r4, r10
 2894 1a16 9C61     		str	r4, [r3, #24]
 188:25519/sha256.c ****     ctx->state[6] += G;
 2895              		.loc 1 188 0
 2896 1a18 159B     		ldr	r3, [sp, #84]
 2897 1a1a 1E44     		add	r6, r6, r3
 2898              	.LVL293:
 2899 1a1c 009B     		ldr	r3, [sp]
 2900 1a1e DE61     		str	r6, [r3, #28]
 2901              		.loc 1 189 0
 2902 1a20 169B     		ldr	r3, [sp, #88]
 2903 1a22 4B44     		add	r3, r3, r9
 2904 1a24 1362     		str	r3, [r2, #32]
 190:25519/sha256.c ****     ctx->state[7] += H;
 2905              		.loc 1 190 0
 2906 1a26 199B     		ldr	r3, [sp, #100]
 2907 1a28 1F44     		add	r7, r7, r3
 2908              	.LVL294:
 2909 1a2a 5762     		str	r7, [r2, #36]
 191:25519/sha256.c **** }
 2910              		.loc 1 191 0
 2911 1a2c 1BB0     		add	sp, sp, #108
 2912              		.cfi_def_cfa_offset 36
 2913              	.LVL295:
 2914              		@ sp needed
 2915 1a2e BDE8F08F 		pop	{r4, r5, r6, r7, r8, r9, r10, fp, pc}
 2916              	.LVL296:
 2917              	.L24:
 2918 1a32 00BF     		.align	2
 2919              	.L23:
 2920 1a34 EE828F74 		.word	1955562222
 2921 1a38 6F63A578 		.word	2024104815
 2922 1a3c 1478C884 		.word	-2067236844
 2923 1a40 0802C78C 		.word	-1933114872
 2924 1a44 FAFFBE90 		.word	-1866530822
 2925 1a48 EB6C50A4 		.word	-1538233109
 2926 1a4c F7A3F9BE 		.word	-1090935817
 2927 1a50 F27871C6 		.word	-965641998
 2928              		.cfi_endproc
 2929              	.LFE1:
 2931              		.section	.text.sha256_update.part.0,"ax",%progbits
 2932              		.align	1
 2933              		.syntax unified
 2934              		.thumb
 2935              		.thumb_func
 2936              		.fpu softvfp
 2938              	sha256_update.part.0:
 2939              	.LFB4:
 192:25519/sha256.c **** 
 193:25519/sha256.c **** void sha256_update( sha256_context *ctx, uint8 *input, uint32 length )
 2940              		.loc 1 193 0
 2941              		.cfi_startproc
 2942              		@ args = 0, pretend = 0, frame = 0
 2943              		@ frame_needed = 0, uses_anonymous_args = 0
 2944              	.LVL297:
 2945 0000 2DE9F843 		push	{r3, r4, r5, r6, r7, r8, r9, lr}
 2946              		.cfi_def_cfa_offset 32
 2947              		.cfi_offset 3, -32
 2948              		.cfi_offset 4, -28
 2949              		.cfi_offset 5, -24
 2950              		.cfi_offset 6, -20
 2951              		.cfi_offset 7, -16
 2952              		.cfi_offset 8, -12
 2953              		.cfi_offset 9, -8
 2954              		.cfi_offset 14, -4
 194:25519/sha256.c **** {
 195:25519/sha256.c ****     uint32 left, fill;
 196:25519/sha256.c **** 
 197:25519/sha256.c ****     if( ! length ) return;
 198:25519/sha256.c **** 
 199:25519/sha256.c ****     left = ctx->total[0] & 0x3F;
 2955              		.loc 1 199 0
 2956 0004 0368     		ldr	r3, [r0]
 193:25519/sha256.c **** {
 2957              		.loc 1 193 0
 2958 0006 0446     		mov	r4, r0
 2959              		.loc 1 199 0
 2960 0008 03F03F07 		and	r7, r3, #63
 2961              	.LVL298:
 2962 000c 9B18     		adds	r3, r3, r2
 200:25519/sha256.c ****     fill = 64 - left;
 201:25519/sha256.c **** 
 202:25519/sha256.c ****     ctx->total[0] += length;
 2963              		.loc 1 202 0
 2964 000e 0360     		str	r3, [r0]
 203:25519/sha256.c ****     ctx->total[0] &= 0xFFFFFFFF;
 204:25519/sha256.c **** 
 205:25519/sha256.c ****     if( ctx->total[0] < length )
 206:25519/sha256.c ****         ctx->total[1]++;
 2965              		.loc 1 206 0
 2966 0010 28BF     		it	cs
 2967 0012 4368     		ldrcs	r3, [r0, #4]
 193:25519/sha256.c **** {
 2968              		.loc 1 193 0
 2969 0014 0E46     		mov	r6, r1
 2970              		.loc 1 206 0
 2971 0016 28BF     		it	cs
 2972 0018 0133     		addcs	r3, r3, #1
 193:25519/sha256.c **** {
 2973              		.loc 1 193 0
 2974 001a 1546     		mov	r5, r2
 2975              		.loc 1 206 0
 2976 001c 28BF     		it	cs
 2977 001e 4360     		strcs	r3, [r0, #4]
 207:25519/sha256.c **** 
 208:25519/sha256.c ****     if( left && length >= fill )
 2978              		.loc 1 208 0
 2979 0020 97B1     		cbz	r7, .L29
 200:25519/sha256.c **** 
 2980              		.loc 1 200 0
 2981 0022 C7F14008 		rsb	r8, r7, #64
 2982              	.LVL299:
 2983              		.loc 1 208 0
 2984 0026 9045     		cmp	r8, r2
 2985 0028 0ED8     		bhi	.L29
 209:25519/sha256.c ****     {
 210:25519/sha256.c ****         memcpy( (void *) (ctx->buffer + left),
 2986              		.loc 1 210 0
 2987 002a 00F12809 		add	r9, r0, #40
 2988 002e 4246     		mov	r2, r8
 2989              	.LVL300:
 2990 0030 09EB0700 		add	r0, r9, r7
 2991              	.LVL301:
 2992 0034 FFF7FEFF 		bl	memcpy
 2993              	.LVL302:
 211:25519/sha256.c ****                 (void *) input, fill );
 212:25519/sha256.c ****         sha256_process( ctx, ctx->buffer );
 2994              		.loc 1 212 0
 2995 0038 4946     		mov	r1, r9
 2996 003a 2046     		mov	r0, r4
 2997 003c FFF7FEFF 		bl	sha256_process
 2998              	.LVL303:
 213:25519/sha256.c ****         length -= fill;
 214:25519/sha256.c ****         input  += fill;
 215:25519/sha256.c ****         left = 0;
 2999              		.loc 1 215 0
 3000 0040 0027     		movs	r7, #0
 3001              	.LVL304:
 213:25519/sha256.c ****         length -= fill;
 3002              		.loc 1 213 0
 3003 0042 A5EB0805 		sub	r5, r5, r8
 3004              	.LVL305:
 214:25519/sha256.c ****         left = 0;
 3005              		.loc 1 214 0
 3006 0046 4644     		add	r6, r6, r8
 3007              	.LVL306:
 3008              	.L29:
 3009              		.loc 1 215 0
 3010 0048 A846     		mov	r8, r5
 3011 004a 06EB0509 		add	r9, r6, r5
 3012 004e 04E0     		b	.L30
 3013              	.LVL307:
 3014              	.L31:
 216:25519/sha256.c ****     }
 217:25519/sha256.c **** 
 218:25519/sha256.c ****     while( length >= 64 )
 219:25519/sha256.c ****     {
 220:25519/sha256.c ****         sha256_process( ctx, input );
 3015              		.loc 1 220 0
 3016 0050 2046     		mov	r0, r4
 3017 0052 FFF7FEFF 		bl	sha256_process
 3018              	.LVL308:
 221:25519/sha256.c ****         length -= 64;
 3019              		.loc 1 221 0
 3020 0056 A8F14008 		sub	r8, r8, #64
 3021              	.LVL309:
 3022              	.L30:
 218:25519/sha256.c ****     {
 3023              		.loc 1 218 0
 3024 005a B8F13F0F 		cmp	r8, #63
 3025 005e A9EB0801 		sub	r1, r9, r8
 3026              	.LVL310:
 3027 0062 F5D8     		bhi	.L31
 3028 0064 6FF03F03 		mvn	r3, #63
 3029 0068 AA09     		lsrs	r2, r5, #6
 3030 006a 06EB8211 		add	r1, r6, r2, lsl #6
 3031              	.LVL311:
 3032 006e 03FB0252 		mla	r2, r3, r2, r5
 222:25519/sha256.c ****         input  += 64;
 223:25519/sha256.c ****     }
 224:25519/sha256.c **** 
 225:25519/sha256.c ****     if( length )
 3033              		.loc 1 225 0
 3034 0072 32B1     		cbz	r2, .L25
 226:25519/sha256.c ****     {
 227:25519/sha256.c ****         memcpy( (void *) (ctx->buffer + left),
 3035              		.loc 1 227 0
 3036 0074 04F12800 		add	r0, r4, #40
 3037 0078 3844     		add	r0, r0, r7
 228:25519/sha256.c ****                 (void *) input, length );
 229:25519/sha256.c ****     }
 230:25519/sha256.c **** }
 3038              		.loc 1 230 0
 3039 007a BDE8F843 		pop	{r3, r4, r5, r6, r7, r8, r9, lr}
 3040              		.cfi_remember_state
 3041              		.cfi_restore 14
 3042              		.cfi_restore 9
 3043              		.cfi_restore 8
 3044              		.cfi_restore 7
 3045              		.cfi_restore 6
 3046              		.cfi_restore 5
 3047              		.cfi_restore 4
 3048              		.cfi_restore 3
 3049              		.cfi_def_cfa_offset 0
 3050              	.LVL312:
 227:25519/sha256.c ****                 (void *) input, length );
 3051              		.loc 1 227 0
 3052 007e FFF7FEBF 		b	memcpy
 3053              	.LVL313:
 3054              	.L25:
 3055              		.cfi_restore_state
 3056              		.loc 1 230 0
 3057 0082 BDE8F883 		pop	{r3, r4, r5, r6, r7, r8, r9, pc}
 3058              		.cfi_endproc
 3059              	.LFE4:
 3061              		.section	.text.sha256_update,"ax",%progbits
 3062              		.align	1
 3063              		.global	sha256_update
 3064              		.syntax unified
 3065              		.thumb
 3066              		.thumb_func
 3067              		.fpu softvfp
 3069              	sha256_update:
 3070              	.LFB2:
 194:25519/sha256.c ****     uint32 left, fill;
 3071              		.loc 1 194 0
 3072              		.cfi_startproc
 3073              		@ args = 0, pretend = 0, frame = 0
 3074              		@ frame_needed = 0, uses_anonymous_args = 0
 3075              		@ link register save eliminated.
 3076              	.LVL314:
 197:25519/sha256.c **** 
 3077              		.loc 1 197 0
 3078 0000 0AB1     		cbz	r2, .L39
 3079 0002 FFF7FEBF 		b	sha256_update.part.0
 3080              	.LVL315:
 3081              	.L39:
 3082              		.loc 1 230 0
 3083 0006 7047     		bx	lr
 3084              		.cfi_endproc
 3085              	.LFE2:
 3087              		.section	.text.sha256_finish,"ax",%progbits
 3088              		.align	1
 3089              		.global	sha256_finish
 3090              		.syntax unified
 3091              		.thumb
 3092              		.thumb_func
 3093              		.fpu softvfp
 3095              	sha256_finish:
 3096              	.LFB3:
 231:25519/sha256.c **** 
 232:25519/sha256.c **** static uint8 sha256_padding[64] =
 233:25519/sha256.c **** {
 234:25519/sha256.c ****  0x80, 0, 0, 0, 0, 0, 0, 0, 0, 0, 0, 0, 0, 0, 0, 0,
 235:25519/sha256.c ****     0, 0, 0, 0, 0, 0, 0, 0, 0, 0, 0, 0, 0, 0, 0, 0,
 236:25519/sha256.c ****     0, 0, 0, 0, 0, 0, 0, 0, 0, 0, 0, 0, 0, 0, 0, 0,
 237:25519/sha256.c ****     0, 0, 0, 0, 0, 0, 0, 0, 0, 0, 0, 0, 0, 0, 0, 0
 238:25519/sha256.c **** };
 239:25519/sha256.c **** 
 240:25519/sha256.c **** void sha256_finish( sha256_context *ctx, uint8 digest[32] )
 241:25519/sha256.c **** {
 3097              		.loc 1 241 0
 3098              		.cfi_startproc
 3099              		@ args = 0, pretend = 0, frame = 8
 3100              		@ frame_needed = 0, uses_anonymous_args = 0
 3101              	.LVL316:
 3102 0000 37B5     		push	{r0, r1, r2, r4, r5, lr}
 3103              		.cfi_def_cfa_offset 24
 3104              		.cfi_offset 4, -12
 3105              		.cfi_offset 5, -8
 3106              		.cfi_offset 14, -4
 3107              		.loc 1 241 0
 3108 0002 0446     		mov	r4, r0
 3109 0004 0D46     		mov	r5, r1
 242:25519/sha256.c ****     uint32 last, padn;
 243:25519/sha256.c ****     uint32 high, low;
 244:25519/sha256.c ****     uint8 msglen[8];
 245:25519/sha256.c **** 
 246:25519/sha256.c ****     high = ( ctx->total[0] >> 29 )
 247:25519/sha256.c ****          | ( ctx->total[1] <<  3 );
 3110              		.loc 1 247 0
 3111 0006 D0E90021 		ldrd	r2, r1, [r0]
 3112              	.LVL317:
 246:25519/sha256.c ****          | ( ctx->total[1] <<  3 );
 3113              		.loc 1 246 0
 3114 000a 530F     		lsrs	r3, r2, #29
 3115 000c 43EAC103 		orr	r3, r3, r1, lsl #3
 3116              	.LVL318:
 248:25519/sha256.c ****     low  = ( ctx->total[0] <<  3 );
 249:25519/sha256.c **** 
 250:25519/sha256.c ****     PUT_UINT32( high, msglen, 0 );
 3117              		.loc 1 250 0
 3118 0010 180E     		lsrs	r0, r3, #24
 3119              	.LVL319:
 248:25519/sha256.c ****     low  = ( ctx->total[0] <<  3 );
 3120              		.loc 1 248 0
 3121 0012 D100     		lsls	r1, r2, #3
 3122              	.LVL320:
 3123              		.loc 1 250 0
 3124 0014 8DF80000 		strb	r0, [sp]
 3125 0018 180C     		lsrs	r0, r3, #16
 251:25519/sha256.c ****     PUT_UINT32( low,  msglen, 4 );
 252:25519/sha256.c **** 
 253:25519/sha256.c ****     last = ctx->total[0] & 0x3F;
 3126              		.loc 1 253 0
 3127 001a 02F03F02 		and	r2, r2, #63
 3128              	.LVL321:
 250:25519/sha256.c ****     PUT_UINT32( low,  msglen, 4 );
 3129              		.loc 1 250 0
 3130 001e 8DF80100 		strb	r0, [sp, #1]
 3131 0022 8DF80330 		strb	r3, [sp, #3]
 3132 0026 180A     		lsrs	r0, r3, #8
 251:25519/sha256.c ****     PUT_UINT32( low,  msglen, 4 );
 3133              		.loc 1 251 0
 3134 0028 0B0E     		lsrs	r3, r1, #24
 3135              	.LVL322:
 254:25519/sha256.c ****     padn = ( last < 56 ) ? ( 56 - last ) : ( 120 - last );
 3136              		.loc 1 254 0
 3137 002a 372A     		cmp	r2, #55
 251:25519/sha256.c ****     PUT_UINT32( low,  msglen, 4 );
 3138              		.loc 1 251 0
 3139 002c 8DF80430 		strb	r3, [sp, #4]
 3140 0030 4FEA1143 		lsr	r3, r1, #16
 3141              		.loc 1 254 0
 3142 0034 94BF     		ite	ls
 3143 0036 C2F13802 		rsbls	r2, r2, #56
 3144              	.LVL323:
 3145 003a C2F17802 		rsbhi	r2, r2, #120
 3146              	.LVL324:
 250:25519/sha256.c ****     PUT_UINT32( low,  msglen, 4 );
 3147              		.loc 1 250 0
 3148 003e 8DF80200 		strb	r0, [sp, #2]
 251:25519/sha256.c ****     PUT_UINT32( low,  msglen, 4 );
 3149              		.loc 1 251 0
 3150 0042 8DF80530 		strb	r3, [sp, #5]
 3151 0046 8DF80710 		strb	r1, [sp, #7]
 3152 004a 0B0A     		lsrs	r3, r1, #8
 255:25519/sha256.c **** 
 256:25519/sha256.c ****     sha256_update( ctx, sha256_padding, padn );
 3153              		.loc 1 256 0
 3154 004c 2046     		mov	r0, r4
 3155 004e 2B49     		ldr	r1, .L44
 3156              	.LVL325:
 251:25519/sha256.c **** 
 3157              		.loc 1 251 0
 3158 0050 8DF80630 		strb	r3, [sp, #6]
 3159              		.loc 1 256 0
 3160 0054 FFF7FEFF 		bl	sha256_update
 3161              	.LVL326:
 3162              	.LBB4:
 3163              	.LBB5:
 3164 0058 0822     		movs	r2, #8
 3165 005a 6946     		mov	r1, sp
 3166 005c 2046     		mov	r0, r4
 3167 005e FFF7FEFF 		bl	sha256_update.part.0
 3168              	.LVL327:
 3169              	.LBE5:
 3170              	.LBE4:
 257:25519/sha256.c ****     sha256_update( ctx, msglen, 8 );
 258:25519/sha256.c **** 
 259:25519/sha256.c ****     PUT_UINT32( ctx->state[0], digest,  0 );
 3171              		.loc 1 259 0
 3172 0062 E37A     		ldrb	r3, [r4, #11]	@ zero_extendqisi2
 3173 0064 2B70     		strb	r3, [r5]
 3174 0066 6389     		ldrh	r3, [r4, #10]
 3175 0068 6B70     		strb	r3, [r5, #1]
 3176 006a A368     		ldr	r3, [r4, #8]
 3177 006c 1B0A     		lsrs	r3, r3, #8
 3178 006e AB70     		strb	r3, [r5, #2]
 3179 0070 A368     		ldr	r3, [r4, #8]
 3180 0072 EB70     		strb	r3, [r5, #3]
 260:25519/sha256.c ****     PUT_UINT32( ctx->state[1], digest,  4 );
 3181              		.loc 1 260 0
 3182 0074 E37B     		ldrb	r3, [r4, #15]	@ zero_extendqisi2
 3183 0076 2B71     		strb	r3, [r5, #4]
 3184 0078 E389     		ldrh	r3, [r4, #14]
 3185 007a 6B71     		strb	r3, [r5, #5]
 3186 007c E368     		ldr	r3, [r4, #12]
 3187 007e 1B0A     		lsrs	r3, r3, #8
 3188 0080 AB71     		strb	r3, [r5, #6]
 3189 0082 E368     		ldr	r3, [r4, #12]
 3190 0084 EB71     		strb	r3, [r5, #7]
 261:25519/sha256.c ****     PUT_UINT32( ctx->state[2], digest,  8 );
 3191              		.loc 1 261 0
 3192 0086 E37C     		ldrb	r3, [r4, #19]	@ zero_extendqisi2
 3193 0088 2B72     		strb	r3, [r5, #8]
 3194 008a 638A     		ldrh	r3, [r4, #18]
 3195 008c 6B72     		strb	r3, [r5, #9]
 3196 008e 2369     		ldr	r3, [r4, #16]
 3197 0090 1B0A     		lsrs	r3, r3, #8
 3198 0092 AB72     		strb	r3, [r5, #10]
 3199 0094 2369     		ldr	r3, [r4, #16]
 3200 0096 EB72     		strb	r3, [r5, #11]
 262:25519/sha256.c ****     PUT_UINT32( ctx->state[3], digest, 12 );
 3201              		.loc 1 262 0
 3202 0098 E37D     		ldrb	r3, [r4, #23]	@ zero_extendqisi2
 3203 009a 2B73     		strb	r3, [r5, #12]
 3204 009c E38A     		ldrh	r3, [r4, #22]
 3205 009e 6B73     		strb	r3, [r5, #13]
 3206 00a0 6369     		ldr	r3, [r4, #20]
 3207 00a2 1B0A     		lsrs	r3, r3, #8
 3208 00a4 AB73     		strb	r3, [r5, #14]
 3209 00a6 6369     		ldr	r3, [r4, #20]
 3210 00a8 EB73     		strb	r3, [r5, #15]
 263:25519/sha256.c ****     PUT_UINT32( ctx->state[4], digest, 16 );
 3211              		.loc 1 263 0
 3212 00aa E37E     		ldrb	r3, [r4, #27]	@ zero_extendqisi2
 3213 00ac 2B74     		strb	r3, [r5, #16]
 3214 00ae 638B     		ldrh	r3, [r4, #26]
 3215 00b0 6B74     		strb	r3, [r5, #17]
 3216 00b2 A369     		ldr	r3, [r4, #24]
 3217 00b4 1B0A     		lsrs	r3, r3, #8
 3218 00b6 AB74     		strb	r3, [r5, #18]
 3219 00b8 A369     		ldr	r3, [r4, #24]
 3220 00ba EB74     		strb	r3, [r5, #19]
 264:25519/sha256.c ****     PUT_UINT32( ctx->state[5], digest, 20 );
 3221              		.loc 1 264 0
 3222 00bc E37F     		ldrb	r3, [r4, #31]	@ zero_extendqisi2
 3223 00be 2B75     		strb	r3, [r5, #20]
 3224 00c0 E38B     		ldrh	r3, [r4, #30]
 3225 00c2 6B75     		strb	r3, [r5, #21]
 3226 00c4 E369     		ldr	r3, [r4, #28]
 3227 00c6 1B0A     		lsrs	r3, r3, #8
 3228 00c8 AB75     		strb	r3, [r5, #22]
 3229 00ca E369     		ldr	r3, [r4, #28]
 3230 00cc EB75     		strb	r3, [r5, #23]
 265:25519/sha256.c ****     PUT_UINT32( ctx->state[6], digest, 24 );
 3231              		.loc 1 265 0
 3232 00ce 94F82330 		ldrb	r3, [r4, #35]	@ zero_extendqisi2
 3233 00d2 2B76     		strb	r3, [r5, #24]
 3234 00d4 638C     		ldrh	r3, [r4, #34]
 3235 00d6 6B76     		strb	r3, [r5, #25]
 3236 00d8 236A     		ldr	r3, [r4, #32]
 3237 00da 1B0A     		lsrs	r3, r3, #8
 3238 00dc AB76     		strb	r3, [r5, #26]
 3239 00de 236A     		ldr	r3, [r4, #32]
 3240 00e0 EB76     		strb	r3, [r5, #27]
 266:25519/sha256.c ****     PUT_UINT32( ctx->state[7], digest, 28 );
 3241              		.loc 1 266 0
 3242 00e2 94F82730 		ldrb	r3, [r4, #39]	@ zero_extendqisi2
 3243 00e6 2B77     		strb	r3, [r5, #28]
 3244 00e8 E38C     		ldrh	r3, [r4, #38]
 3245 00ea 6B77     		strb	r3, [r5, #29]
 3246 00ec 636A     		ldr	r3, [r4, #36]
 3247 00ee 1B0A     		lsrs	r3, r3, #8
 3248 00f0 AB77     		strb	r3, [r5, #30]
 3249 00f2 636A     		ldr	r3, [r4, #36]
 3250 00f4 EB77     		strb	r3, [r5, #31]
 267:25519/sha256.c **** }...
 3251              		.loc 1 267 0
 3252 00f6 03B0     		add	sp, sp, #12
 3253              		.cfi_def_cfa_offset 12
 3254              		@ sp needed
 3255 00f8 30BD     		pop	{r4, r5, pc}
 3256              	.LVL328:
 3257              	.L45:
 3258 00fa 00BF     		.align	2
 3259              	.L44:
 3260 00fc 00000000 		.word	.LANCHOR0
 3261              		.cfi_endproc
 3262              	.LFE3:
 3264              		.global	k
 3265              		.section	.data.k,"aw",%progbits
 3266              		.align	2
 3269              	k:
 3270 0000 982F8A42 		.word	1116352408
 3271 0004 91443771 		.word	1899447441
 3272 0008 CFFBC0B5 		.word	-1245643825
 3273 000c A5DBB5E9 		.word	-373957723
 3274 0010 5BC25639 		.word	961987163
 3275 0014 F111F159 		.word	1508970993
 3276 0018 A4823F92 		.word	-1841331548
 3277 001c D55E1CAB 		.word	-1424204075
 3278 0020 98AA07D8 		.word	-670586216
 3279 0024 015B8312 		.word	310598401
 3280 0028 BE853124 		.word	607225278
 3281 002c C37D0C55 		.word	1426881987
 3282 0030 745DBE72 		.word	1925078388
 3283 0034 FEB1DE80 		.word	-2132889090
 3284 0038 A706DC9B 		.word	-1680079193
 3285 003c 74F19BC1 		.word	-1046744716
 3286 0040 C1699BE4 		.word	-459576895
 3287 0044 8647BEEF 		.word	-272742522
 3288 0048 C69DC10F 		.word	264347078
 3289 004c CCA10C24 		.word	604807628
 3290 0050 6F2CE92D 		.word	770255983
 3291 0054 AA84744A 		.word	1249150122
 3292 0058 DCA9B05C 		.word	1555081692
 3293 005c DA88F976 		.word	1996064986
 3294 0060 52513E98 		.word	-1740746414
 3295 0064 6DC631A8 		.word	-1473132947
 3296 0068 C82703B0 		.word	-1341970488
 3297 006c C77F59BF 		.word	-1084653625
 3298 0070 F30BE0C6 		.word	-958395405
 3299 0074 4791A7D5 		.word	-710438585
 3300 0078 5163CA06 		.word	113926993
 3301 007c 67292914 		.word	338241895
 3302 0080 850AB727 		.word	666307205
 3303 0084 38211B2E 		.word	773529912
 3304 0088 FC6D2C4D 		.word	1294757372
 3305 008c 130D3853 		.word	1396182291
 3306 0090 54730A65 		.word	1695183700
 3307 0094 BB0A6A76 		.word	1986661051
 3308 0098 2EC9C281 		.word	-2117940946
 3309 009c 852C7292 		.word	-1838011259
 3310 00a0 A1E8BFA2 		.word	-1564481375
 3311 00a4 4B661AA8 		.word	-1474664885
 3312 00a8 708B4BC2 		.word	-1035236496
 3313 00ac A3516CC7 		.word	-949202525
 3314 00b0 19E892D1 		.word	-778901479
 3315 00b4 240699D6 		.word	-694614492
 3316 00b8 85350EF4 		.word	-200395387
 3317 00bc 70A06A10 		.word	275423344
 3318 00c0 16C1A419 		.word	430227734
 3319 00c4 086C371E 		.word	506948616
 3320 00c8 4C774827 		.word	659060556
 3321 00cc B5BCB034 		.word	883997877
 3322 00d0 B30C1C39 		.word	958139571
 3323 00d4 4AAAD84E 		.word	1322822218
 3324 00d8 4FCA9C5B 		.word	1537002063
 3325 00dc F36F2E68 		.word	1747873779
 3326 00e0 EE828F74 		.word	1955562222
 3327 00e4 6F63A578 		.word	2024104815
 3328 00e8 1478C884 		.word	-2067236844
 3329 00ec 0802C78C 		.word	-1933114872
 3330 00f0 FAFFBE90 		.word	-1866530822
 3331 00f4 EB6C50A4 		.word	-1538233109
 3332 00f8 F7A3F9BE 		.word	-1090935817
 3333 00fc F27871C6 		.word	-965641998
 3334              		.section	.data.sha256_padding,"aw",%progbits
 3335              		.set	.LANCHOR0,. + 0
 3338              	sha256_padding:
 3339 0000 80       		.byte	-128
 3340 0001 00       		.byte	0
 3341 0002 00       		.byte	0
 3342 0003 00       		.byte	0
 3343 0004 00       		.byte	0
 3344 0005 00       		.byte	0
 3345 0006 00       		.byte	0
 3346 0007 00       		.byte	0
 3347 0008 00       		.byte	0
 3348 0009 00       		.byte	0
 3349 000a 00       		.byte	0
 3350 000b 00       		.byte	0
 3351 000c 00       		.byte	0
 3352 000d 00       		.byte	0
 3353 000e 00       		.byte	0
 3354 000f 00       		.byte	0
 3355 0010 00       		.byte	0
 3356 0011 00       		.byte	0
 3357 0012 00       		.byte	0
 3358 0013 00       		.byte	0
 3359 0014 00       		.byte	0
 3360 0015 00       		.byte	0
 3361 0016 00       		.byte	0
 3362 0017 00       		.byte	0
 3363 0018 00       		.byte	0
 3364 0019 00       		.byte	0
 3365 001a 00       		.byte	0
 3366 001b 00       		.byte	0
 3367 001c 00       		.byte	0
 3368 001d 00       		.byte	0
 3369 001e 00       		.byte	0
 3370 001f 00       		.byte	0
 3371 0020 00       		.byte	0
 3372 0021 00       		.byte	0
 3373 0022 00       		.byte	0
 3374 0023 00       		.byte	0
 3375 0024 00       		.byte	0
 3376 0025 00       		.byte	0
 3377 0026 00       		.byte	0
 3378 0027 00       		.byte	0
 3379 0028 00       		.byte	0
 3380 0029 00       		.byte	0
 3381 002a 00       		.byte	0
 3382 002b 00       		.byte	0
 3383 002c 00       		.byte	0
 3384 002d 00       		.byte	0
 3385 002e 00       		.byte	0
 3386 002f 00       		.byte	0
 3387 0030 00       		.byte	0
 3388 0031 00       		.byte	0
 3389 0032 00       		.byte	0
 3390 0033 00       		.byte	0
 3391 0034 00       		.byte	0
 3392 0035 00       		.byte	0
 3393 0036 00       		.byte	0
 3394 0037 00       		.byte	0
 3395 0038 00       		.byte	0
 3396 0039 00       		.byte	0
 3397 003a 00       		.byte	0
 3398 003b 00       		.byte	0
 3399 003c 00       		.byte	0
 3400 003d 00       		.byte	0
 3401 003e 00       		.byte	0
 3402 003f 00       		.byte	0
 3403              		.text
 3404              	.Letext0:
 3405              		.file 2 "/usr/arm-none-eabi/include/sys/lock.h"
 3406              		.file 3 "/usr/arm-none-eabi/include/sys/_types.h"
 3407              		.file 4 "/usr/lib/gcc/arm-none-eabi/7.3.1/include/stddef.h"
 3408              		.file 5 "/usr/arm-none-eabi/include/sys/reent.h"
 3409              		.file 6 "25519/sha256.h"
 3410              		.file 7 "<built-in>"
DEFINED SYMBOLS
                            *ABS*:0000000000000000 sha256.c
     /tmp/ccAiy0HX.s:16     .text.sha256_starts:0000000000000000 $t
     /tmp/ccAiy0HX.s:23     .text.sha256_starts:0000000000000000 sha256_starts
     /tmp/ccAiy0HX.s:66     .text.sha256_starts:0000000000000034 $d
     /tmp/ccAiy0HX.s:77     .text.sha256_process:0000000000000000 $t
     /tmp/ccAiy0HX.s:84     .text.sha256_process:0000000000000000 sha256_process
     /tmp/ccAiy0HX.s:573    .text.sha256_process:00000000000003d0 $d
     /tmp/ccAiy0HX.s:586    .text.sha256_process:0000000000000400 $t
     /tmp/ccAiy0HX.s:994    .text.sha256_process:00000000000007b4 $d
     /tmp/ccAiy0HX.s:1005   .text.sha256_process:00000000000007dc $t
     /tmp/ccAiy0HX.s:1380   .text.sha256_process:0000000000000b54 $d
     /tmp/ccAiy0HX.s:1389   .text.sha256_process:0000000000000b74 $t
     /tmp/ccAiy0HX.s:1745   .text.sha256_process:0000000000000ef0 $d
     /tmp/ccAiy0HX.s:1754   .text.sha256_process:0000000000000f10 $t
     /tmp/ccAiy0HX.s:2124   .text.sha256_process:000000000000128c $d
     /tmp/ccAiy0HX.s:2135   .text.sha256_process:00000000000012b0 $t
     /tmp/ccAiy0HX.s:2526   .text.sha256_process:000000000000168c $d
     /tmp/ccAiy0HX.s:2537   .text.sha256_process:00000000000016b0 $t
     /tmp/ccAiy0HX.s:2920   .text.sha256_process:0000000000001a34 $d
     /tmp/ccAiy0HX.s:2932   .text.sha256_update.part.0:0000000000000000 $t
     /tmp/ccAiy0HX.s:2938   .text.sha256_update.part.0:0000000000000000 sha256_update.part.0
     /tmp/ccAiy0HX.s:3062   .text.sha256_update:0000000000000000 $t
     /tmp/ccAiy0HX.s:3069   .text.sha256_update:0000000000000000 sha256_update
     /tmp/ccAiy0HX.s:3088   .text.sha256_finish:0000000000000000 $t
     /tmp/ccAiy0HX.s:3095   .text.sha256_finish:0000000000000000 sha256_finish
     /tmp/ccAiy0HX.s:3260   .text.sha256_finish:00000000000000fc $d
     /tmp/ccAiy0HX.s:3269   .data.k:0000000000000000 k
     /tmp/ccAiy0HX.s:3266   .data.k:0000000000000000 $d
     /tmp/ccAiy0HX.s:3338   .data.sha256_padding:0000000000000000 sha256_padding

UNDEFINED SYMBOLS
memcpy
