   1              		.syntax unified
   2              		.cpu cortex-m3
   3              		.fpu softvfp
   4              		.eabi_attribute 20, 1
   5              		.eabi_attribute 21, 1
   6              		.eabi_attribute 23, 3
   7              		.eabi_attribute 24, 1
   8              		.eabi_attribute 25, 1
   9              		.eabi_attribute 26, 1
  10              		.eabi_attribute 30, 4
  11              		.eabi_attribute 34, 1
  12              		.eabi_attribute 18, 4
  13              		.thumb
  14              		.file	"sxmlc.c"
  15              		.text
  16              	.Ltext0:
  17              		.cfi_sections	.debug_frame
  18              		.section	.text._count_new_char_line,"ax",%progbits
  19              		.align	1
  20              		.thumb
  21              		.thumb_func
  23              	_count_new_char_line:
  24              	.LFB34:
  25              		.file 1 "sxmlc/sxmlc.c"
   1:sxmlc/sxmlc.c **** /*
   2:sxmlc/sxmlc.c **** 	Copyright (c) 2010, Matthieu Labas
   3:sxmlc/sxmlc.c **** 	All rights reserved.
   4:sxmlc/sxmlc.c **** 
   5:sxmlc/sxmlc.c **** 	Redistribution and use in source and binary forms, with or without modification,
   6:sxmlc/sxmlc.c **** 	are permitted provided that the following conditions are met:
   7:sxmlc/sxmlc.c **** 
   8:sxmlc/sxmlc.c **** 	1. Redistributions of source code must retain the above copyright notice,
   9:sxmlc/sxmlc.c **** 	   this list of conditions and the following disclaimer.
  10:sxmlc/sxmlc.c **** 
  11:sxmlc/sxmlc.c **** 	2. Redistributions in binary form must reproduce the above copyright notice,
  12:sxmlc/sxmlc.c **** 	   this list of conditions and the following disclaimer in the documentation
  13:sxmlc/sxmlc.c **** 	   and/or other materials provided with the distribution.
  14:sxmlc/sxmlc.c **** 
  15:sxmlc/sxmlc.c **** 	THIS SOFTWARE IS PROVIDED BY THE COPYRIGHT HOLDERS AND CONTRIBUTORS "AS IS" AND
  16:sxmlc/sxmlc.c **** 	ANY EXPRESS OR IMPLIED WARRANTIES, INCLUDING, BUT NOT LIMITED TO, THE IMPLIED
  17:sxmlc/sxmlc.c **** 	WARRANTIES OF MERCHANTABILITY AND FITNESS FOR A PARTICULAR PURPOSE ARE DISCLAIMED.
  18:sxmlc/sxmlc.c **** 	IN NO EVENT SHALL THE COPYRIGHT HOLDER OR CONTRIBUTORS BE LIABLE FOR ANY DIRECT,
  19:sxmlc/sxmlc.c **** 	INDIRECT, INCIDENTAL, SPECIAL, EXEMPLARY, OR CONSEQUENTIAL DAMAGES (INCLUDING, BUT
  20:sxmlc/sxmlc.c **** 	NOT LIMITED TO, PROCUREMENT OF SUBSTITUTE GOODS OR SERVICES; LOSS OF USE, DATA, OR
  21:sxmlc/sxmlc.c **** 	PROFITS; OR BUSINESS INTERRUPTION) HOWEVER CAUSED AND ON ANY THEORY OF LIABILITY,
  22:sxmlc/sxmlc.c **** 	WHETHER IN CONTRACT, STRICT LIABILITY, OR TORT (INCLUDING NEGLIGENCE OR OTHERWISE)
  23:sxmlc/sxmlc.c **** 	ARISING IN ANY WAY OUT OF THE USE OF THIS SOFTWARE, EVEN IF ADVISED OF THE POSSIBILITY
  24:sxmlc/sxmlc.c **** 	OF SUCH DAMAGE.
  25:sxmlc/sxmlc.c **** 
  26:sxmlc/sxmlc.c **** 	The views and conclusions contained in the software and documentation are those of the
  27:sxmlc/sxmlc.c **** 	authors and should not be interpreted as representing official policies, either expressed
  28:sxmlc/sxmlc.c **** 	or implied, of the FreeBSD Project.
  29:sxmlc/sxmlc.c **** */
  30:sxmlc/sxmlc.c **** #if defined(WIN32) || defined(WIN64)
  31:sxmlc/sxmlc.c **** #pragma warning(disable : 4996)
  32:sxmlc/sxmlc.c **** #else
  33:sxmlc/sxmlc.c **** #ifndef strdup
  34:sxmlc/sxmlc.c **** #define _GNU_SOURCE
  35:sxmlc/sxmlc.c **** #endif
  36:sxmlc/sxmlc.c **** #endif
  37:sxmlc/sxmlc.c **** 
  38:sxmlc/sxmlc.c **** #include <stdio.h>
  39:sxmlc/sxmlc.c **** #include <stdlib.h>
  40:sxmlc/sxmlc.c **** #include <string.h>
  41:sxmlc/sxmlc.c **** #include <ctype.h>
  42:sxmlc/sxmlc.c **** #include "sxmlc.h"
  43:sxmlc/sxmlc.c **** 
  44:sxmlc/sxmlc.c **** /*
  45:sxmlc/sxmlc.c ****  Struct defining "special" tags such as "<? ?>" or "<![CDATA[ ]]/>".
  46:sxmlc/sxmlc.c ****  These tags are considered having a start and an end with some data in between that will
  47:sxmlc/sxmlc.c ****  be stored in the 'tag' member of an XMLNode.
  48:sxmlc/sxmlc.c ****  The 'tag_type' member is a constant that is associated to such tag.
  49:sxmlc/sxmlc.c ****  All 'len_*' members are basically the "sx_strlen()" of 'start' and 'end' members.
  50:sxmlc/sxmlc.c ****  */
  51:sxmlc/sxmlc.c **** typedef struct _Tag {
  52:sxmlc/sxmlc.c **** 	TagType tag_type;
  53:sxmlc/sxmlc.c **** 	SXML_CHAR* start;
  54:sxmlc/sxmlc.c **** 	int len_start;
  55:sxmlc/sxmlc.c **** 	SXML_CHAR* end;
  56:sxmlc/sxmlc.c **** 	int len_end;
  57:sxmlc/sxmlc.c **** } _TAG;
  58:sxmlc/sxmlc.c **** 
  59:sxmlc/sxmlc.c **** typedef struct _SpecialTag {
  60:sxmlc/sxmlc.c **** 	_TAG *tags;
  61:sxmlc/sxmlc.c **** 	int n_tags;
  62:sxmlc/sxmlc.c **** } SPECIAL_TAG;
  63:sxmlc/sxmlc.c **** 
  64:sxmlc/sxmlc.c **** /*
  65:sxmlc/sxmlc.c ****  List of "special" tags handled by sxmlc.
  66:sxmlc/sxmlc.c ****  NB the "<!DOCTYPE" tag has a special handling because its 'end' changes according
  67:sxmlc/sxmlc.c ****  to its content ('>' or ']>').
  68:sxmlc/sxmlc.c ****  */
  69:sxmlc/sxmlc.c **** static _TAG _spec[] = {
  70:sxmlc/sxmlc.c **** 		{ TAG_INSTR, C2SX("<?"), 2, C2SX("?>"), 2 },
  71:sxmlc/sxmlc.c **** 		{ TAG_COMMENT, C2SX("<!--"), 4, C2SX("-->"), 3 },
  72:sxmlc/sxmlc.c **** 		{ TAG_CDATA, C2SX("<![CDATA["), 9, C2SX("]]>"), 3 }
  73:sxmlc/sxmlc.c **** };
  74:sxmlc/sxmlc.c **** static int NB_SPECIAL_TAGS = (int)(sizeof(_spec) / sizeof(_TAG)); /* Auto computation of number of 
  75:sxmlc/sxmlc.c **** 
  76:sxmlc/sxmlc.c **** /*
  77:sxmlc/sxmlc.c ****  User-registered tags.
  78:sxmlc/sxmlc.c ****  */
  79:sxmlc/sxmlc.c **** static SPECIAL_TAG _user_tags = { NULL, 0 };
  80:sxmlc/sxmlc.c **** 
  81:sxmlc/sxmlc.c **** int XML_register_user_tag(TagType tag_type, SXML_CHAR* start, SXML_CHAR* end)
  82:sxmlc/sxmlc.c **** {
  83:sxmlc/sxmlc.c **** 	_TAG* p;
  84:sxmlc/sxmlc.c **** 	int i, n, le;
  85:sxmlc/sxmlc.c **** 
  86:sxmlc/sxmlc.c **** 	if (tag_type < TAG_USER)
  87:sxmlc/sxmlc.c **** 		return -1;
  88:sxmlc/sxmlc.c **** 
  89:sxmlc/sxmlc.c **** 	if (start == NULL || end == NULL || *start != C2SX('<'))
  90:sxmlc/sxmlc.c **** 		return -1;
  91:sxmlc/sxmlc.c **** 
  92:sxmlc/sxmlc.c **** 	le = sx_strlen(end);
  93:sxmlc/sxmlc.c **** 	if (end[le-1] != C2SX('>'))
  94:sxmlc/sxmlc.c **** 		return -1;
  95:sxmlc/sxmlc.c **** 
  96:sxmlc/sxmlc.c **** 	i = _user_tags.n_tags;
  97:sxmlc/sxmlc.c **** 	n = i + 1;
  98:sxmlc/sxmlc.c **** 	p = (_TAG*)__realloc(_user_tags.tags, n * sizeof(_TAG));
  99:sxmlc/sxmlc.c **** 	if (p == NULL)
 100:sxmlc/sxmlc.c **** 		return -1;
 101:sxmlc/sxmlc.c **** 
 102:sxmlc/sxmlc.c **** 	p[i].tag_type = tag_type;
 103:sxmlc/sxmlc.c **** 	p[i].start = start;
 104:sxmlc/sxmlc.c **** 	p[i].end = end;
 105:sxmlc/sxmlc.c **** 	p[i].len_start = sx_strlen(start);
 106:sxmlc/sxmlc.c **** 	p[i].len_end = le;
 107:sxmlc/sxmlc.c **** 	_user_tags.tags = p;
 108:sxmlc/sxmlc.c **** 	_user_tags.n_tags = n;
 109:sxmlc/sxmlc.c **** 
 110:sxmlc/sxmlc.c **** 	return i;
 111:sxmlc/sxmlc.c **** }
 112:sxmlc/sxmlc.c **** 
 113:sxmlc/sxmlc.c **** int XML_unregister_user_tag(int i_tag)
 114:sxmlc/sxmlc.c **** {
 115:sxmlc/sxmlc.c **** 	_TAG* pt;
 116:sxmlc/sxmlc.c **** 
 117:sxmlc/sxmlc.c **** 	if (i_tag < 0 || i_tag >= _user_tags.n_tags)
 118:sxmlc/sxmlc.c ****  		return -1;
 119:sxmlc/sxmlc.c **** 
 120:sxmlc/sxmlc.c **** 	if (_user_tags.n_tags == 1)
 121:sxmlc/sxmlc.c **** 		pt = NULL;
 122:sxmlc/sxmlc.c **** 	else {
 123:sxmlc/sxmlc.c **** 		pt = (_TAG*)__malloc((_user_tags.n_tags - 1) * sizeof(_TAG));
 124:sxmlc/sxmlc.c **** 		if (pt == NULL)
 125:sxmlc/sxmlc.c **** 			return -1;
 126:sxmlc/sxmlc.c **** 	}
 127:sxmlc/sxmlc.c ****  
 128:sxmlc/sxmlc.c **** 	if (pt != NULL) {
 129:sxmlc/sxmlc.c **** 		memcpy(pt, _user_tags.tags, i_tag * sizeof(_TAG));
 130:sxmlc/sxmlc.c **** 		memcpy(&pt[i_tag], &_user_tags.tags[i_tag + 1], (_user_tags.n_tags - i_tag - 1) * sizeof(_TAG));
 131:sxmlc/sxmlc.c **** 	}
 132:sxmlc/sxmlc.c **** 	if (_user_tags.tags != NULL)
 133:sxmlc/sxmlc.c **** 		__free(_user_tags.tags);
 134:sxmlc/sxmlc.c **** 	_user_tags.tags = pt;
 135:sxmlc/sxmlc.c **** 	_user_tags.n_tags--;
 136:sxmlc/sxmlc.c **** 
 137:sxmlc/sxmlc.c **** 	return _user_tags.n_tags;
 138:sxmlc/sxmlc.c **** }
 139:sxmlc/sxmlc.c **** 
 140:sxmlc/sxmlc.c **** int XML_get_nb_registered_user_tags(void)
 141:sxmlc/sxmlc.c **** {
 142:sxmlc/sxmlc.c **** 	return _user_tags.n_tags;
 143:sxmlc/sxmlc.c **** }
 144:sxmlc/sxmlc.c **** 
 145:sxmlc/sxmlc.c **** int XML_get_registered_user_tag(TagType tag_type)
 146:sxmlc/sxmlc.c **** {
 147:sxmlc/sxmlc.c **** 	int i;
 148:sxmlc/sxmlc.c **** 
 149:sxmlc/sxmlc.c **** 	for (i = 0; i < _user_tags.n_tags; i++)
 150:sxmlc/sxmlc.c **** 		if (_user_tags.tags[i].tag_type == tag_type)
 151:sxmlc/sxmlc.c **** 			return i;
 152:sxmlc/sxmlc.c **** 
 153:sxmlc/sxmlc.c **** 	return -1;
 154:sxmlc/sxmlc.c **** }
 155:sxmlc/sxmlc.c **** 
 156:sxmlc/sxmlc.c **** /* --- XMLNode methods --- */
 157:sxmlc/sxmlc.c **** 
 158:sxmlc/sxmlc.c **** /*
 159:sxmlc/sxmlc.c ****  Add 'node' to given '*children_array' of '*len_array' elements.
 160:sxmlc/sxmlc.c ****  '*len_array' is overwritten with the number of elements in '*children_array' after its reallocatio
 161:sxmlc/sxmlc.c ****  Return the index of the newly added 'node' in '*children_array', or '-1' for memory error.
 162:sxmlc/sxmlc.c ****  */
 163:sxmlc/sxmlc.c **** static int _add_node(XMLNode*** children_array, int* len_array, XMLNode* node)
 164:sxmlc/sxmlc.c **** {
 165:sxmlc/sxmlc.c **** 	XMLNode** pt = (XMLNode**)__realloc(*children_array, (*len_array+1) * sizeof(XMLNode*));
 166:sxmlc/sxmlc.c **** 	
 167:sxmlc/sxmlc.c **** 	if (pt == NULL)
 168:sxmlc/sxmlc.c **** 		return -1;
 169:sxmlc/sxmlc.c **** 	
 170:sxmlc/sxmlc.c **** 	pt[*len_array] = node;
 171:sxmlc/sxmlc.c **** 	*children_array = pt;
 172:sxmlc/sxmlc.c **** 	
 173:sxmlc/sxmlc.c **** 	return (*len_array)++;
 174:sxmlc/sxmlc.c **** }
 175:sxmlc/sxmlc.c **** 
 176:sxmlc/sxmlc.c **** int XMLNode_init(XMLNode* node)
 177:sxmlc/sxmlc.c **** {
 178:sxmlc/sxmlc.c **** 	if (node == NULL)
 179:sxmlc/sxmlc.c **** 		return false;
 180:sxmlc/sxmlc.c **** 	
 181:sxmlc/sxmlc.c **** 	if (node->init_value == XML_INIT_DONE)
 182:sxmlc/sxmlc.c **** 		return true; /*(void)XMLNode_free(node);*/
 183:sxmlc/sxmlc.c **** 
 184:sxmlc/sxmlc.c **** 	node->tag = NULL;
 185:sxmlc/sxmlc.c **** 	node->text = NULL;
 186:sxmlc/sxmlc.c **** 	
 187:sxmlc/sxmlc.c **** 	node->attributes = NULL;
 188:sxmlc/sxmlc.c **** 	node->n_attributes = 0;
 189:sxmlc/sxmlc.c **** 	
 190:sxmlc/sxmlc.c **** 	node->father = NULL;
 191:sxmlc/sxmlc.c **** 	node->children = NULL;
 192:sxmlc/sxmlc.c **** 	node->n_children = 0;
 193:sxmlc/sxmlc.c **** 	
 194:sxmlc/sxmlc.c **** 	node->tag_type = TAG_NONE;
 195:sxmlc/sxmlc.c **** 	node->active = true;
 196:sxmlc/sxmlc.c **** 
 197:sxmlc/sxmlc.c **** 	node->init_value = XML_INIT_DONE;
 198:sxmlc/sxmlc.c **** 
 199:sxmlc/sxmlc.c **** 	return true;
 200:sxmlc/sxmlc.c **** }
 201:sxmlc/sxmlc.c **** 
 202:sxmlc/sxmlc.c **** XMLNode* XMLNode_allocN(int n)
 203:sxmlc/sxmlc.c **** {
 204:sxmlc/sxmlc.c **** 	int i;
 205:sxmlc/sxmlc.c **** 	XMLNode* p;
 206:sxmlc/sxmlc.c **** 	
 207:sxmlc/sxmlc.c **** 	if (n <= 0)
 208:sxmlc/sxmlc.c **** 		return NULL;
 209:sxmlc/sxmlc.c **** 	
 210:sxmlc/sxmlc.c **** 	p = (XMLNode*)__calloc(n, sizeof(XMLNode));
 211:sxmlc/sxmlc.c **** 	if (p == NULL)
 212:sxmlc/sxmlc.c **** 		return NULL;
 213:sxmlc/sxmlc.c **** 
 214:sxmlc/sxmlc.c **** 	for (i = 0; i < n; i++)
 215:sxmlc/sxmlc.c **** 		(void)XMLNode_init(&p[i]);
 216:sxmlc/sxmlc.c **** 	
 217:sxmlc/sxmlc.c **** 	return p;
 218:sxmlc/sxmlc.c **** }
 219:sxmlc/sxmlc.c **** 
 220:sxmlc/sxmlc.c **** XMLNode* XMLNode_dup(const XMLNode* node, int copy_children)
 221:sxmlc/sxmlc.c **** {
 222:sxmlc/sxmlc.c **** 	XMLNode* n;
 223:sxmlc/sxmlc.c **** 
 224:sxmlc/sxmlc.c **** 	if (node == NULL)
 225:sxmlc/sxmlc.c **** 		return NULL;
 226:sxmlc/sxmlc.c **** 
 227:sxmlc/sxmlc.c **** 	n = (XMLNode*)__calloc(1, sizeof(XMLNode));
 228:sxmlc/sxmlc.c **** 	if (n == NULL)
 229:sxmlc/sxmlc.c **** 		return NULL;
 230:sxmlc/sxmlc.c **** 
 231:sxmlc/sxmlc.c **** 	XMLNode_init(n);
 232:sxmlc/sxmlc.c **** 	if (!XMLNode_copy(n, node, copy_children)) {
 233:sxmlc/sxmlc.c **** 		XMLNode_free(n);
 234:sxmlc/sxmlc.c **** 
 235:sxmlc/sxmlc.c **** 		return NULL;
 236:sxmlc/sxmlc.c **** 	}
 237:sxmlc/sxmlc.c **** 
 238:sxmlc/sxmlc.c **** 	return n;
 239:sxmlc/sxmlc.c **** }
 240:sxmlc/sxmlc.c **** 
 241:sxmlc/sxmlc.c **** int XMLNode_free(XMLNode* node)
 242:sxmlc/sxmlc.c **** {
 243:sxmlc/sxmlc.c **** 	if (node == NULL || node->init_value != XML_INIT_DONE)
 244:sxmlc/sxmlc.c **** 		return false;
 245:sxmlc/sxmlc.c **** 	
 246:sxmlc/sxmlc.c **** 	if (node->tag != NULL) {
 247:sxmlc/sxmlc.c **** 		__free(node->tag);
 248:sxmlc/sxmlc.c **** 		node->tag = NULL;
 249:sxmlc/sxmlc.c **** 	}
 250:sxmlc/sxmlc.c **** 
 251:sxmlc/sxmlc.c **** 	XMLNode_remove_text(node);
 252:sxmlc/sxmlc.c **** 	XMLNode_remove_all_attributes(node);
 253:sxmlc/sxmlc.c **** 	XMLNode_remove_children(node);
 254:sxmlc/sxmlc.c **** 	
 255:sxmlc/sxmlc.c **** 	node->tag_type = TAG_NONE;
 256:sxmlc/sxmlc.c **** 
 257:sxmlc/sxmlc.c **** 	return true;
 258:sxmlc/sxmlc.c **** }
 259:sxmlc/sxmlc.c **** 
 260:sxmlc/sxmlc.c **** int XMLNode_copy(XMLNode* dst, const XMLNode* src, int copy_children)
 261:sxmlc/sxmlc.c **** {
 262:sxmlc/sxmlc.c **** 	int i;
 263:sxmlc/sxmlc.c **** 	
 264:sxmlc/sxmlc.c **** 	if (dst == NULL || (src != NULL && src->init_value != XML_INIT_DONE))
 265:sxmlc/sxmlc.c **** 		return false;
 266:sxmlc/sxmlc.c **** 	
 267:sxmlc/sxmlc.c **** 	(void)XMLNode_free(dst); /* 'dst' is freed first */
 268:sxmlc/sxmlc.c **** 	
 269:sxmlc/sxmlc.c **** 	/* NULL 'src' resets 'dst' */
 270:sxmlc/sxmlc.c **** 	if (src == NULL)
 271:sxmlc/sxmlc.c **** 		return true;
 272:sxmlc/sxmlc.c **** 	
 273:sxmlc/sxmlc.c **** 	/* Tag */
 274:sxmlc/sxmlc.c **** 	if (src->tag != NULL) {
 275:sxmlc/sxmlc.c **** 		dst->tag = sx_strdup(src->tag);
 276:sxmlc/sxmlc.c **** 		if (dst->tag == NULL) goto copy_err;
 277:sxmlc/sxmlc.c **** 	}
 278:sxmlc/sxmlc.c **** 
 279:sxmlc/sxmlc.c **** 	/* Text */
 280:sxmlc/sxmlc.c **** 	if (dst->text != NULL) {
 281:sxmlc/sxmlc.c **** 		dst->text = sx_strdup(src->text);
 282:sxmlc/sxmlc.c **** 		if (dst->text == NULL) goto copy_err;
 283:sxmlc/sxmlc.c **** 	}
 284:sxmlc/sxmlc.c **** 
 285:sxmlc/sxmlc.c **** 	/* Attributes */
 286:sxmlc/sxmlc.c **** 	if (src->n_attributes > 0) {
 287:sxmlc/sxmlc.c **** 		dst->attributes = (XMLAttribute*)__calloc(src->n_attributes, sizeof(XMLAttribute));
 288:sxmlc/sxmlc.c **** 		if (dst->attributes== NULL) goto copy_err;
 289:sxmlc/sxmlc.c **** 		dst->n_attributes = src->n_attributes;
 290:sxmlc/sxmlc.c **** 		for (i = 0; i < src->n_attributes; i++) {
 291:sxmlc/sxmlc.c **** 			dst->attributes[i].name = sx_strdup(src->attributes[i].name);
 292:sxmlc/sxmlc.c **** 			dst->attributes[i].value = sx_strdup(src->attributes[i].value);
 293:sxmlc/sxmlc.c **** 			if (dst->attributes[i].name == NULL || dst->attributes[i].value == NULL) goto copy_err;
 294:sxmlc/sxmlc.c **** 			dst->attributes[i].active = src->attributes[i].active;
 295:sxmlc/sxmlc.c **** 		}
 296:sxmlc/sxmlc.c **** 	}
 297:sxmlc/sxmlc.c **** 
 298:sxmlc/sxmlc.c **** 	dst->tag_type = src->tag_type;
 299:sxmlc/sxmlc.c **** 	dst->father = src->father;
 300:sxmlc/sxmlc.c **** 	dst->user = src->user;
 301:sxmlc/sxmlc.c **** 	dst->active = src->active;
 302:sxmlc/sxmlc.c **** 	
 303:sxmlc/sxmlc.c **** 	/* Copy children if required (and there are any) */
 304:sxmlc/sxmlc.c **** 	if (copy_children && src->n_children > 0) {
 305:sxmlc/sxmlc.c **** 		dst->children = (XMLNode**)__calloc(src->n_children, sizeof(XMLNode*));
 306:sxmlc/sxmlc.c **** 		if (dst->children == NULL) goto copy_err;
 307:sxmlc/sxmlc.c **** 		dst->n_children = src->n_children;
 308:sxmlc/sxmlc.c **** 		for (i = 0; i < src->n_children; i++) {
 309:sxmlc/sxmlc.c **** 			if (!XMLNode_copy(dst->children[i], src->children[i], true)) goto copy_err;
 310:sxmlc/sxmlc.c **** 		}
 311:sxmlc/sxmlc.c **** 	}
 312:sxmlc/sxmlc.c **** 	
 313:sxmlc/sxmlc.c **** 	return true;
 314:sxmlc/sxmlc.c **** 	
 315:sxmlc/sxmlc.c **** copy_err:
 316:sxmlc/sxmlc.c **** 	(void)XMLNode_free(dst);
 317:sxmlc/sxmlc.c **** 	
 318:sxmlc/sxmlc.c **** 	return false;
 319:sxmlc/sxmlc.c **** }
 320:sxmlc/sxmlc.c **** 
 321:sxmlc/sxmlc.c **** int XMLNode_set_active(XMLNode* node, int active)
 322:sxmlc/sxmlc.c **** {
 323:sxmlc/sxmlc.c **** 	if (node == NULL || node->init_value != XML_INIT_DONE)
 324:sxmlc/sxmlc.c **** 		return false;
 325:sxmlc/sxmlc.c **** 
 326:sxmlc/sxmlc.c **** 	node->active = active;
 327:sxmlc/sxmlc.c **** 
 328:sxmlc/sxmlc.c **** 	return true;
 329:sxmlc/sxmlc.c **** }
 330:sxmlc/sxmlc.c **** 
 331:sxmlc/sxmlc.c **** int XMLNode_set_tag(XMLNode* node, const SXML_CHAR* tag)
 332:sxmlc/sxmlc.c **** {
 333:sxmlc/sxmlc.c **** 	SXML_CHAR* newtag;
 334:sxmlc/sxmlc.c **** 	if (node == NULL || tag == NULL || node->init_value != XML_INIT_DONE)
 335:sxmlc/sxmlc.c **** 		return false;
 336:sxmlc/sxmlc.c **** 	
 337:sxmlc/sxmlc.c **** 	newtag = sx_strdup(tag);
 338:sxmlc/sxmlc.c **** 	if (newtag == NULL)
 339:sxmlc/sxmlc.c **** 		return false;
 340:sxmlc/sxmlc.c **** 	if (node->tag != NULL) __free(node->tag);
 341:sxmlc/sxmlc.c **** 	node->tag = newtag;
 342:sxmlc/sxmlc.c **** 
 343:sxmlc/sxmlc.c **** 	return true;
 344:sxmlc/sxmlc.c **** }
 345:sxmlc/sxmlc.c **** 
 346:sxmlc/sxmlc.c **** int XMLNode_set_type(XMLNode* node, const TagType tag_type)
 347:sxmlc/sxmlc.c **** {
 348:sxmlc/sxmlc.c **** 	if (node == NULL || node->init_value != XML_INIT_DONE)
 349:sxmlc/sxmlc.c **** 		return false;
 350:sxmlc/sxmlc.c **** 
 351:sxmlc/sxmlc.c **** 	switch (tag_type) {
 352:sxmlc/sxmlc.c **** 		case TAG_ERROR:
 353:sxmlc/sxmlc.c **** 		case TAG_END:
 354:sxmlc/sxmlc.c **** 		case TAG_PARTIAL:
 355:sxmlc/sxmlc.c **** 		case TAG_NONE:
 356:sxmlc/sxmlc.c **** 			return false;
 357:sxmlc/sxmlc.c **** 
 358:sxmlc/sxmlc.c **** 		default:
 359:sxmlc/sxmlc.c **** 			node->tag_type = tag_type;
 360:sxmlc/sxmlc.c **** 			return true;
 361:sxmlc/sxmlc.c **** 	}
 362:sxmlc/sxmlc.c **** }
 363:sxmlc/sxmlc.c **** 
 364:sxmlc/sxmlc.c **** int XMLNode_set_attribute(XMLNode* node, const SXML_CHAR* attr_name, const SXML_CHAR* attr_value)
 365:sxmlc/sxmlc.c **** {
 366:sxmlc/sxmlc.c **** 	XMLAttribute* pt;
 367:sxmlc/sxmlc.c **** 	int i;
 368:sxmlc/sxmlc.c **** 	
 369:sxmlc/sxmlc.c **** 	if (node == NULL || attr_name == NULL || attr_name[0] == NULC || node->init_value != XML_INIT_DONE
 370:sxmlc/sxmlc.c **** 		return -1;
 371:sxmlc/sxmlc.c **** 	
 372:sxmlc/sxmlc.c **** 	i = XMLNode_search_attribute(node, attr_name, 0);
 373:sxmlc/sxmlc.c **** 	if (i >= 0) { /* Attribute found: update it */
 374:sxmlc/sxmlc.c **** 		SXML_CHAR* value = NULL;
 375:sxmlc/sxmlc.c **** 		if (attr_value != NULL && (value = sx_strdup(attr_value)) == NULL)
 376:sxmlc/sxmlc.c **** 			return -1;
 377:sxmlc/sxmlc.c **** 		pt = node->attributes;
 378:sxmlc/sxmlc.c **** 		if (pt[i].value != NULL)
 379:sxmlc/sxmlc.c **** 			__free(pt[i].value);
 380:sxmlc/sxmlc.c **** 		pt[i].value = value;
 381:sxmlc/sxmlc.c **** 	} else { /* Attribute not found: add it */
 382:sxmlc/sxmlc.c **** 		SXML_CHAR* name = sx_strdup(attr_name);
 383:sxmlc/sxmlc.c **** 		SXML_CHAR* value = (attr_value == NULL ? NULL : sx_strdup(attr_value));
 384:sxmlc/sxmlc.c **** 		if (name == NULL || (value == NULL && attr_value != NULL)) {
 385:sxmlc/sxmlc.c **** 			if (value != NULL)
 386:sxmlc/sxmlc.c **** 				__free(value);
 387:sxmlc/sxmlc.c **** 			if (name != NULL)
 388:sxmlc/sxmlc.c **** 				__free(name);
 389:sxmlc/sxmlc.c ****  			return -1;
 390:sxmlc/sxmlc.c **** 		}
 391:sxmlc/sxmlc.c **** 		i = node->n_attributes;
 392:sxmlc/sxmlc.c **** 		pt = (XMLAttribute*)__realloc(node->attributes, (i+1) * sizeof(XMLAttribute));
 393:sxmlc/sxmlc.c **** 		if (pt == NULL) {
 394:sxmlc/sxmlc.c **** 			if (value != NULL)
 395:sxmlc/sxmlc.c **** 				__free(value);
 396:sxmlc/sxmlc.c **** 			__free(name);
 397:sxmlc/sxmlc.c **** 			return -1;
 398:sxmlc/sxmlc.c **** 		}
 399:sxmlc/sxmlc.c **** 
 400:sxmlc/sxmlc.c **** 		pt[i].name = name;
 401:sxmlc/sxmlc.c **** 		pt[i].value = value;
 402:sxmlc/sxmlc.c **** 		pt[i].active = true;
 403:sxmlc/sxmlc.c **** 		node->attributes = pt;
 404:sxmlc/sxmlc.c **** 		node->n_attributes = i + 1;
 405:sxmlc/sxmlc.c **** 	}
 406:sxmlc/sxmlc.c **** 
 407:sxmlc/sxmlc.c **** 	return node->n_attributes;
 408:sxmlc/sxmlc.c **** }
 409:sxmlc/sxmlc.c **** 
 410:sxmlc/sxmlc.c **** int XMLNode_get_attribute_with_default(XMLNode* node, const SXML_CHAR* attr_name, const SXML_CHAR**
 411:sxmlc/sxmlc.c **** {
 412:sxmlc/sxmlc.c **** 	XMLAttribute* pt;
 413:sxmlc/sxmlc.c **** 	int i;
 414:sxmlc/sxmlc.c **** 	
 415:sxmlc/sxmlc.c **** 	if (node == NULL || attr_name == NULL || attr_name[0] == NULC || attr_value == NULL || node->init_
 416:sxmlc/sxmlc.c **** 		return false;
 417:sxmlc/sxmlc.c **** 	
 418:sxmlc/sxmlc.c **** 	i = XMLNode_search_attribute(node, attr_name, 0);
 419:sxmlc/sxmlc.c **** 	if (i >= 0) {
 420:sxmlc/sxmlc.c **** 		pt = node->attributes;
 421:sxmlc/sxmlc.c **** 		if (pt[i].value != NULL) {
 422:sxmlc/sxmlc.c **** 			*attr_value = sx_strdup(pt[i].value);
 423:sxmlc/sxmlc.c **** 			if (*attr_value == NULL)
 424:sxmlc/sxmlc.c **** 				return false;
 425:sxmlc/sxmlc.c **** 		} else
 426:sxmlc/sxmlc.c **** 			*attr_value = NULL; /* NULL but returns 'true' as 'NULL' is the actual attribute value */
 427:sxmlc/sxmlc.c **** 	} else if (default_attr_value != NULL) {
 428:sxmlc/sxmlc.c **** 		*attr_value = sx_strdup(default_attr_value);
 429:sxmlc/sxmlc.c **** 		if (*attr_value == NULL)
 430:sxmlc/sxmlc.c **** 			return false;
 431:sxmlc/sxmlc.c **** 	} else
 432:sxmlc/sxmlc.c **** 		*attr_value = NULL;
 433:sxmlc/sxmlc.c **** 
 434:sxmlc/sxmlc.c **** 	return true;
 435:sxmlc/sxmlc.c **** }
 436:sxmlc/sxmlc.c **** 
 437:sxmlc/sxmlc.c **** int XMLNode_get_attribute_count(const XMLNode* node)
 438:sxmlc/sxmlc.c **** {
 439:sxmlc/sxmlc.c **** 	int i, n;
 440:sxmlc/sxmlc.c **** 
 441:sxmlc/sxmlc.c **** 	if (node == NULL || node->init_value != XML_INIT_DONE)
 442:sxmlc/sxmlc.c **** 		return -1;
 443:sxmlc/sxmlc.c **** 
 444:sxmlc/sxmlc.c **** 	for (i = n = 0; i < node->n_attributes; i++)
 445:sxmlc/sxmlc.c **** 		if (node->attributes[i].active) n++;
 446:sxmlc/sxmlc.c **** 
 447:sxmlc/sxmlc.c **** 	return n;
 448:sxmlc/sxmlc.c **** }
 449:sxmlc/sxmlc.c **** 
 450:sxmlc/sxmlc.c **** int XMLNode_search_attribute(const XMLNode* node, const SXML_CHAR* attr_name, int i_search)
 451:sxmlc/sxmlc.c **** {
 452:sxmlc/sxmlc.c **** 	int i;
 453:sxmlc/sxmlc.c **** 	
 454:sxmlc/sxmlc.c **** 	if (node == NULL || attr_name == NULL || attr_name[0] == NULC || i_search < 0 || i_search >= node-
 455:sxmlc/sxmlc.c **** 		return -1;
 456:sxmlc/sxmlc.c **** 	
 457:sxmlc/sxmlc.c **** 	for (i = i_search; i < node->n_attributes; i++)
 458:sxmlc/sxmlc.c **** 		if (node->attributes[i].active && !sx_strcmp(node->attributes[i].name, attr_name))
 459:sxmlc/sxmlc.c **** 			return i;
 460:sxmlc/sxmlc.c **** 	
 461:sxmlc/sxmlc.c **** 	return -1;
 462:sxmlc/sxmlc.c **** }
 463:sxmlc/sxmlc.c **** 
 464:sxmlc/sxmlc.c **** int XMLNode_remove_attribute(XMLNode* node, int i_attr)
 465:sxmlc/sxmlc.c **** {
 466:sxmlc/sxmlc.c **** 	XMLAttribute* pt;
 467:sxmlc/sxmlc.c **** 	if (node == NULL || node->init_value != XML_INIT_DONE || i_attr < 0 || i_attr >= node->n_attribute
 468:sxmlc/sxmlc.c **** 		return -1;
 469:sxmlc/sxmlc.c **** 	
 470:sxmlc/sxmlc.c **** 	/* Before modifying first see if we run out of memory */
 471:sxmlc/sxmlc.c **** 	if (node->n_attributes == 1)
 472:sxmlc/sxmlc.c **** 		pt = NULL;
 473:sxmlc/sxmlc.c **** 	else {
 474:sxmlc/sxmlc.c **** 		pt = (XMLAttribute*)__malloc((node->n_attributes - 1) * sizeof(XMLAttribute));
 475:sxmlc/sxmlc.c **** 		if (pt == NULL)
 476:sxmlc/sxmlc.c **** 			return -1;
 477:sxmlc/sxmlc.c **** 	}
 478:sxmlc/sxmlc.c **** 
 479:sxmlc/sxmlc.c **** 	/* Can't fail anymore, free item */
 480:sxmlc/sxmlc.c **** 	if (node->attributes[i_attr].name != NULL) __free(node->attributes[i_attr].name);
 481:sxmlc/sxmlc.c **** 	if (node->attributes[i_attr].value != NULL) __free(node->attributes[i_attr].value);
 482:sxmlc/sxmlc.c **** 	
 483:sxmlc/sxmlc.c **** 	if (pt != NULL) {
 484:sxmlc/sxmlc.c **** 		memcpy(pt, node->attributes, i_attr * sizeof(XMLAttribute));
 485:sxmlc/sxmlc.c **** 		memcpy(&pt[i_attr], &node->attributes[i_attr + 1], (node->n_attributes - i_attr - 1) * sizeof(XML
 486:sxmlc/sxmlc.c **** 	}
 487:sxmlc/sxmlc.c **** 	if (node->attributes != NULL)
 488:sxmlc/sxmlc.c **** 		__free(node->attributes);
 489:sxmlc/sxmlc.c **** 	node->attributes = pt;
 490:sxmlc/sxmlc.c **** 	node->n_attributes--;
 491:sxmlc/sxmlc.c **** 	
 492:sxmlc/sxmlc.c **** 	return node->n_attributes;
 493:sxmlc/sxmlc.c **** }
 494:sxmlc/sxmlc.c **** 
 495:sxmlc/sxmlc.c **** int XMLNode_remove_all_attributes(XMLNode* node)
 496:sxmlc/sxmlc.c **** {
 497:sxmlc/sxmlc.c **** 	int i;
 498:sxmlc/sxmlc.c **** 
 499:sxmlc/sxmlc.c **** 	if (node == NULL || node->init_value != XML_INIT_DONE)
 500:sxmlc/sxmlc.c **** 		return false;
 501:sxmlc/sxmlc.c **** 
 502:sxmlc/sxmlc.c **** 	if (node->attributes != NULL) {
 503:sxmlc/sxmlc.c **** 		for (i = 0; i < node->n_attributes; i++) {
 504:sxmlc/sxmlc.c **** 			if (node->attributes[i].name != NULL)
 505:sxmlc/sxmlc.c **** 				__free(node->attributes[i].name);
 506:sxmlc/sxmlc.c **** 			if (node->attributes[i].value != NULL)
 507:sxmlc/sxmlc.c **** 				__free(node->attributes[i].value);
 508:sxmlc/sxmlc.c **** 		}
 509:sxmlc/sxmlc.c **** 		__free(node->attributes);
 510:sxmlc/sxmlc.c **** 		node->attributes = NULL;
 511:sxmlc/sxmlc.c **** 	}
 512:sxmlc/sxmlc.c **** 	node->n_attributes = 0;
 513:sxmlc/sxmlc.c **** 
 514:sxmlc/sxmlc.c **** 	return true;
 515:sxmlc/sxmlc.c **** }
 516:sxmlc/sxmlc.c **** 
 517:sxmlc/sxmlc.c **** int XMLNode_set_text(XMLNode* node, const SXML_CHAR* text)
 518:sxmlc/sxmlc.c **** {
 519:sxmlc/sxmlc.c **** 	SXML_CHAR* p;
 520:sxmlc/sxmlc.c **** 	if (node == NULL || node->init_value != XML_INIT_DONE)
 521:sxmlc/sxmlc.c **** 		return false;
 522:sxmlc/sxmlc.c **** 
 523:sxmlc/sxmlc.c **** 	if (text == NULL) { /* We want to remove it => free node text */
 524:sxmlc/sxmlc.c **** 		if (node->text != NULL) {
 525:sxmlc/sxmlc.c **** 			__free(node->text);
 526:sxmlc/sxmlc.c **** 			node->text = NULL;
 527:sxmlc/sxmlc.c **** 		}
 528:sxmlc/sxmlc.c **** 
 529:sxmlc/sxmlc.c **** 		return true;
 530:sxmlc/sxmlc.c **** 	}
 531:sxmlc/sxmlc.c **** 
 532:sxmlc/sxmlc.c **** 	p = (SXML_CHAR*)__realloc(node->text, (sx_strlen(text) + 1)*sizeof(SXML_CHAR)); /* +1 for '\0' */
 533:sxmlc/sxmlc.c **** 	if (p == NULL)
 534:sxmlc/sxmlc.c **** 		return false;
 535:sxmlc/sxmlc.c **** 	node->text = p;
 536:sxmlc/sxmlc.c **** 
 537:sxmlc/sxmlc.c **** 	sx_strcpy(node->text, text);
 538:sxmlc/sxmlc.c **** 
 539:sxmlc/sxmlc.c **** 	return true;
 540:sxmlc/sxmlc.c **** }
 541:sxmlc/sxmlc.c **** 
 542:sxmlc/sxmlc.c **** int XMLNode_add_child(XMLNode* node, XMLNode* child)
 543:sxmlc/sxmlc.c **** {
 544:sxmlc/sxmlc.c **** 	if (node == NULL || child == NULL || node->init_value != XML_INIT_DONE || child->init_value != XML
 545:sxmlc/sxmlc.c **** 		return false;
 546:sxmlc/sxmlc.c **** 	
 547:sxmlc/sxmlc.c **** 	if (_add_node(&node->children, &node->n_children, child) >= 0) {
 548:sxmlc/sxmlc.c **** 		node->tag_type = TAG_FATHER;
 549:sxmlc/sxmlc.c **** 		child->father = node;
 550:sxmlc/sxmlc.c **** 		return true;
 551:sxmlc/sxmlc.c **** 	} else
 552:sxmlc/sxmlc.c **** 		return false;
 553:sxmlc/sxmlc.c **** }
 554:sxmlc/sxmlc.c **** 
 555:sxmlc/sxmlc.c **** int XMLNode_get_children_count(const XMLNode* node)
 556:sxmlc/sxmlc.c **** {
 557:sxmlc/sxmlc.c **** 	int i, n;
 558:sxmlc/sxmlc.c **** 
 559:sxmlc/sxmlc.c **** 	if (node == NULL || node->init_value != XML_INIT_DONE)
 560:sxmlc/sxmlc.c **** 		return -1;
 561:sxmlc/sxmlc.c **** 
 562:sxmlc/sxmlc.c **** 	for (i = n = 0; i < node->n_children; i++)
 563:sxmlc/sxmlc.c **** 		if (node->children[i]->active) n++;
 564:sxmlc/sxmlc.c **** 	
 565:sxmlc/sxmlc.c **** 	return n;
 566:sxmlc/sxmlc.c **** }
 567:sxmlc/sxmlc.c **** 
 568:sxmlc/sxmlc.c **** XMLNode* XMLNode_get_child(const XMLNode* node, int i_child)
 569:sxmlc/sxmlc.c **** {
 570:sxmlc/sxmlc.c **** 	int i;
 571:sxmlc/sxmlc.c **** 	
 572:sxmlc/sxmlc.c **** 	if (node == NULL || node->init_value != XML_INIT_DONE || i_child < 0 || i_child >= node->n_childre
 573:sxmlc/sxmlc.c **** 		return NULL;
 574:sxmlc/sxmlc.c **** 	
 575:sxmlc/sxmlc.c **** 	for (i = 0; i < node->n_children; i++) {
 576:sxmlc/sxmlc.c **** 		if (!node->children[i]->active)
 577:sxmlc/sxmlc.c **** 			i_child++;
 578:sxmlc/sxmlc.c **** 		else if (i == i_child)
 579:sxmlc/sxmlc.c **** 			return node->children[i];
 580:sxmlc/sxmlc.c **** 	}
 581:sxmlc/sxmlc.c **** 	
 582:sxmlc/sxmlc.c **** 	return NULL;
 583:sxmlc/sxmlc.c **** }
 584:sxmlc/sxmlc.c **** 
 585:sxmlc/sxmlc.c **** int XMLNode_remove_child(XMLNode* node, int i_child, int free_child)
 586:sxmlc/sxmlc.c **** {
 587:sxmlc/sxmlc.c **** 	int i;
 588:sxmlc/sxmlc.c **** 	XMLNode** pt;
 589:sxmlc/sxmlc.c **** 
 590:sxmlc/sxmlc.c **** 	if (node == NULL || node->init_value != XML_INIT_DONE || i_child < 0 || i_child >= node->n_childre
 591:sxmlc/sxmlc.c **** 		return -1;
 592:sxmlc/sxmlc.c **** 	
 593:sxmlc/sxmlc.c **** 	/* Lookup 'i_child'th active child */
 594:sxmlc/sxmlc.c **** 	for (i = 0; i < node->n_children; i++) {
 595:sxmlc/sxmlc.c **** 		if (!node->children[i]->active)
 596:sxmlc/sxmlc.c **** 			i_child++;
 597:sxmlc/sxmlc.c **** 		else if (i == i_child)
 598:sxmlc/sxmlc.c **** 			break;
 599:sxmlc/sxmlc.c **** 	}
 600:sxmlc/sxmlc.c **** 	if (i >= node->n_children)
 601:sxmlc/sxmlc.c **** 		return -1; /* Children is not found */
 602:sxmlc/sxmlc.c **** 
 603:sxmlc/sxmlc.c **** 	/* Before modifying first see if we run out of memory */
 604:sxmlc/sxmlc.c **** 	if (node->n_children == 1)
 605:sxmlc/sxmlc.c **** 		pt = NULL;
 606:sxmlc/sxmlc.c **** 	else {
 607:sxmlc/sxmlc.c **** 		pt = (XMLNode**)__malloc((node->n_children - 1) * sizeof(XMLNode*));
 608:sxmlc/sxmlc.c **** 		if (pt == NULL)
 609:sxmlc/sxmlc.c **** 			return -1;
 610:sxmlc/sxmlc.c **** 	}
 611:sxmlc/sxmlc.c **** 
 612:sxmlc/sxmlc.c **** 	/* Can't fail anymore, free item */
 613:sxmlc/sxmlc.c **** 	(void)XMLNode_free(node->children[i_child]);
 614:sxmlc/sxmlc.c **** 	if (free_child)
 615:sxmlc/sxmlc.c **** 		__free(node->children[i_child]);
 616:sxmlc/sxmlc.c **** 	
 617:sxmlc/sxmlc.c **** 	if (pt != NULL) {
 618:sxmlc/sxmlc.c **** 		memcpy(pt, node->children, i_child * sizeof(XMLNode*));
 619:sxmlc/sxmlc.c **** 		memcpy(&pt[i_child], &node->children[i_child + 1], (node->n_children - i_child - 1) * sizeof(XMLN
 620:sxmlc/sxmlc.c **** 	}
 621:sxmlc/sxmlc.c **** 	if (node->children != NULL)
 622:sxmlc/sxmlc.c **** 		__free(node->children);
 623:sxmlc/sxmlc.c **** 	node->children = pt;
 624:sxmlc/sxmlc.c **** 	node->n_children--;
 625:sxmlc/sxmlc.c **** 	if (node->n_children == 0)
 626:sxmlc/sxmlc.c **** 		node->tag_type = TAG_SELF;
 627:sxmlc/sxmlc.c **** 	
 628:sxmlc/sxmlc.c **** 	return node->n_children;
 629:sxmlc/sxmlc.c **** }
 630:sxmlc/sxmlc.c **** 
 631:sxmlc/sxmlc.c **** int XMLNode_remove_children(XMLNode* node)
 632:sxmlc/sxmlc.c **** {
 633:sxmlc/sxmlc.c **** 	int i;
 634:sxmlc/sxmlc.c **** 
 635:sxmlc/sxmlc.c **** 	if (node == NULL || node->init_value != XML_INIT_DONE)
 636:sxmlc/sxmlc.c **** 		return false;
 637:sxmlc/sxmlc.c **** 
 638:sxmlc/sxmlc.c **** 	if (node->children != NULL) {
 639:sxmlc/sxmlc.c **** 		for (i = 0; i < node->n_children; i++)
 640:sxmlc/sxmlc.c **** 			if (node->children[i] != NULL) {
 641:sxmlc/sxmlc.c **** 				(void)XMLNode_free(node->children[i]);
 642:sxmlc/sxmlc.c **** 				__free(node->children[i]);
 643:sxmlc/sxmlc.c **** 			}
 644:sxmlc/sxmlc.c **** 		__free(node->children);
 645:sxmlc/sxmlc.c **** 		node->children = NULL;
 646:sxmlc/sxmlc.c **** 	}
 647:sxmlc/sxmlc.c **** 	node->n_children = 0;
 648:sxmlc/sxmlc.c **** 	
 649:sxmlc/sxmlc.c **** 	return true;
 650:sxmlc/sxmlc.c **** }
 651:sxmlc/sxmlc.c **** 
 652:sxmlc/sxmlc.c **** int XMLNode_equal(const XMLNode* node1, const XMLNode* node2)
 653:sxmlc/sxmlc.c **** {
 654:sxmlc/sxmlc.c **** 	int i, j;
 655:sxmlc/sxmlc.c **** 
 656:sxmlc/sxmlc.c **** 	if (node1 == node2)
 657:sxmlc/sxmlc.c **** 		return true;
 658:sxmlc/sxmlc.c **** 
 659:sxmlc/sxmlc.c **** 	if (node1 == NULL || node2 == NULL || node1->init_value != XML_INIT_DONE || node2->init_value != X
 660:sxmlc/sxmlc.c **** 		return false;
 661:sxmlc/sxmlc.c **** 
 662:sxmlc/sxmlc.c **** 	if (sx_strcmp(node1->tag, node2->tag))
 663:sxmlc/sxmlc.c **** 		return false;
 664:sxmlc/sxmlc.c **** 
 665:sxmlc/sxmlc.c **** 	/* Test all attributes from 'node1' */
 666:sxmlc/sxmlc.c **** 	for (i = 0; i < node1->n_attributes; i++) {
 667:sxmlc/sxmlc.c **** 		if (!node1->attributes[i].active)
 668:sxmlc/sxmlc.c **** 			continue;
 669:sxmlc/sxmlc.c **** 		j = XMLNode_search_attribute(node2, node1->attributes[i].name, 0);
 670:sxmlc/sxmlc.c **** 		if (j < 0)
 671:sxmlc/sxmlc.c **** 			return false;
 672:sxmlc/sxmlc.c **** 		if (sx_strcmp(node1->attributes[i].value, node2->attributes[j].value))
 673:sxmlc/sxmlc.c **** 			return false;
 674:sxmlc/sxmlc.c **** 	}
 675:sxmlc/sxmlc.c **** 
 676:sxmlc/sxmlc.c **** 	/* Test other attributes from 'node2' that might not be in 'node1' */
 677:sxmlc/sxmlc.c **** 	for (i = 0; i < node2->n_attributes; i++) {
 678:sxmlc/sxmlc.c **** 		if (!node2->attributes[i].active)
 679:sxmlc/sxmlc.c **** 			continue;
 680:sxmlc/sxmlc.c **** 		j = XMLNode_search_attribute(node1, node2->attributes[i].name, 0);
 681:sxmlc/sxmlc.c **** 		if (j < 0)
 682:sxmlc/sxmlc.c **** 			return false;
 683:sxmlc/sxmlc.c **** 		if (sx_strcmp(node2->attributes[i].name, node1->attributes[j].name))
 684:sxmlc/sxmlc.c **** 			return false;
 685:sxmlc/sxmlc.c **** 	}
 686:sxmlc/sxmlc.c **** 
 687:sxmlc/sxmlc.c **** 	return true;
 688:sxmlc/sxmlc.c **** }
 689:sxmlc/sxmlc.c **** 
 690:sxmlc/sxmlc.c **** XMLNode* XMLNode_next_sibling(const XMLNode* node)
 691:sxmlc/sxmlc.c **** {
 692:sxmlc/sxmlc.c **** 	int i;
 693:sxmlc/sxmlc.c **** 	XMLNode* father;
 694:sxmlc/sxmlc.c **** 
 695:sxmlc/sxmlc.c **** 	if (node == NULL || node->init_value != XML_INIT_DONE || node->father == NULL)
 696:sxmlc/sxmlc.c **** 		return NULL;
 697:sxmlc/sxmlc.c **** 
 698:sxmlc/sxmlc.c **** 	father = node->father;
 699:sxmlc/sxmlc.c **** 	for (i = 0; i < father->n_children && father->children[i] != node; i++) ;
 700:sxmlc/sxmlc.c **** 	i++; /* father->children[i] is now 'node' next sibling */
 701:sxmlc/sxmlc.c **** 
 702:sxmlc/sxmlc.c **** 	return i < father->n_children ? father->children[i] : NULL;
 703:sxmlc/sxmlc.c **** }
 704:sxmlc/sxmlc.c **** 
 705:sxmlc/sxmlc.c **** static XMLNode* _XMLNode_next(const XMLNode* node, int in_children)
 706:sxmlc/sxmlc.c **** {
 707:sxmlc/sxmlc.c **** 	XMLNode* node2;
 708:sxmlc/sxmlc.c **** 
 709:sxmlc/sxmlc.c **** 	if (node == NULL || node->init_value != XML_INIT_DONE)
 710:sxmlc/sxmlc.c **** 		return NULL;
 711:sxmlc/sxmlc.c **** 
 712:sxmlc/sxmlc.c **** 	/* Check first child */
 713:sxmlc/sxmlc.c **** 	if (in_children && node->n_children > 0)
 714:sxmlc/sxmlc.c **** 		return node->children[0];
 715:sxmlc/sxmlc.c **** 
 716:sxmlc/sxmlc.c **** 	/* Check next sibling */
 717:sxmlc/sxmlc.c **** 	if ((node2 = XMLNode_next_sibling(node)) != NULL)
 718:sxmlc/sxmlc.c **** 		return node2;
 719:sxmlc/sxmlc.c **** 
 720:sxmlc/sxmlc.c **** 	/* Check next uncle */
 721:sxmlc/sxmlc.c **** 	return _XMLNode_next(node->father, false);
 722:sxmlc/sxmlc.c **** }
 723:sxmlc/sxmlc.c **** 
 724:sxmlc/sxmlc.c **** XMLNode* XMLNode_next(const XMLNode* node)
 725:sxmlc/sxmlc.c **** {
 726:sxmlc/sxmlc.c **** 	return _XMLNode_next(node, true);
 727:sxmlc/sxmlc.c **** }
 728:sxmlc/sxmlc.c **** 
 729:sxmlc/sxmlc.c **** /* --- XMLDoc methods --- */
 730:sxmlc/sxmlc.c **** 
 731:sxmlc/sxmlc.c **** int XMLDoc_init(XMLDoc* doc)
 732:sxmlc/sxmlc.c **** {
 733:sxmlc/sxmlc.c **** 	if (doc == NULL)
 734:sxmlc/sxmlc.c **** 		return false;
 735:sxmlc/sxmlc.c **** 
 736:sxmlc/sxmlc.c **** 	doc->filename[0] = NULC;
 737:sxmlc/sxmlc.c **** #ifdef SXMLC_UNICODE
 738:sxmlc/sxmlc.c **** 	memset(&doc->bom, 0, sizeof(doc->bom));
 739:sxmlc/sxmlc.c **** #endif
 740:sxmlc/sxmlc.c **** 	doc->nodes = NULL;
 741:sxmlc/sxmlc.c **** 	doc->n_nodes = 0;
 742:sxmlc/sxmlc.c **** 	doc->i_root = -1;
 743:sxmlc/sxmlc.c **** 	doc->init_value = XML_INIT_DONE;
 744:sxmlc/sxmlc.c **** 
 745:sxmlc/sxmlc.c **** 	return true;
 746:sxmlc/sxmlc.c **** }
 747:sxmlc/sxmlc.c **** 
 748:sxmlc/sxmlc.c **** int XMLDoc_free(XMLDoc* doc)
 749:sxmlc/sxmlc.c **** {
 750:sxmlc/sxmlc.c **** 	int i;
 751:sxmlc/sxmlc.c **** 	
 752:sxmlc/sxmlc.c **** 	if (doc == NULL || doc->init_value != XML_INIT_DONE)
 753:sxmlc/sxmlc.c **** 		return false;
 754:sxmlc/sxmlc.c **** 
 755:sxmlc/sxmlc.c **** 	for (i = 0; i < doc->n_nodes; i++) {
 756:sxmlc/sxmlc.c **** 		(void)XMLNode_free(doc->nodes[i]);
 757:sxmlc/sxmlc.c **** 		__free(doc->nodes[i]);
 758:sxmlc/sxmlc.c **** 	}
 759:sxmlc/sxmlc.c **** 	__free(doc->nodes);
 760:sxmlc/sxmlc.c **** 	doc->nodes = NULL;
 761:sxmlc/sxmlc.c **** 	doc->n_nodes = 0;
 762:sxmlc/sxmlc.c **** 	doc->i_root = -1;
 763:sxmlc/sxmlc.c **** 
 764:sxmlc/sxmlc.c **** 	return true;
 765:sxmlc/sxmlc.c **** }
 766:sxmlc/sxmlc.c **** 
 767:sxmlc/sxmlc.c **** int XMLDoc_set_root(XMLDoc* doc, int i_root)
 768:sxmlc/sxmlc.c **** {
 769:sxmlc/sxmlc.c **** 	if (doc == NULL || doc->init_value != XML_INIT_DONE || i_root < 0 || i_root >= doc->n_nodes)
 770:sxmlc/sxmlc.c **** 		return false;
 771:sxmlc/sxmlc.c **** 	
 772:sxmlc/sxmlc.c **** 	doc->i_root = i_root;
 773:sxmlc/sxmlc.c **** 	
 774:sxmlc/sxmlc.c **** 	return true;
 775:sxmlc/sxmlc.c **** }
 776:sxmlc/sxmlc.c **** 
 777:sxmlc/sxmlc.c **** int XMLDoc_add_node(XMLDoc* doc, XMLNode* node)
 778:sxmlc/sxmlc.c **** {
 779:sxmlc/sxmlc.c **** 	if (doc == NULL || node == NULL || doc->init_value != XML_INIT_DONE)
 780:sxmlc/sxmlc.c **** 		return -1;
 781:sxmlc/sxmlc.c **** 	
 782:sxmlc/sxmlc.c **** 	if (_add_node(&doc->nodes, &doc->n_nodes, node) < 0)
 783:sxmlc/sxmlc.c **** 		return -1;
 784:sxmlc/sxmlc.c **** 
 785:sxmlc/sxmlc.c **** 	if (node->tag_type == TAG_FATHER)
 786:sxmlc/sxmlc.c **** 		doc->i_root = doc->n_nodes - 1; /* Main root node is the last father node */
 787:sxmlc/sxmlc.c **** 
 788:sxmlc/sxmlc.c **** 	return doc->n_nodes;
 789:sxmlc/sxmlc.c **** }
 790:sxmlc/sxmlc.c **** 
 791:sxmlc/sxmlc.c **** int XMLDoc_remove_node(XMLDoc* doc, int i_node, int free_node)
 792:sxmlc/sxmlc.c **** {
 793:sxmlc/sxmlc.c **** 	XMLNode** pt;
 794:sxmlc/sxmlc.c **** 	if (doc == NULL || doc->init_value != XML_INIT_DONE || i_node < 0 || i_node > doc->n_nodes)
 795:sxmlc/sxmlc.c **** 		return false;
 796:sxmlc/sxmlc.c **** 
 797:sxmlc/sxmlc.c **** 	/* Before modifying first see if we run out of memory */
 798:sxmlc/sxmlc.c **** 	if (doc->n_nodes == 1)
 799:sxmlc/sxmlc.c **** 		pt = NULL;
 800:sxmlc/sxmlc.c **** 	else {
 801:sxmlc/sxmlc.c **** 		pt = (XMLNode**)__malloc((doc->n_nodes - 1) * sizeof(XMLNode*));
 802:sxmlc/sxmlc.c **** 		if (pt == NULL)
 803:sxmlc/sxmlc.c **** 			return false;
 804:sxmlc/sxmlc.c **** 	}
 805:sxmlc/sxmlc.c **** 
 806:sxmlc/sxmlc.c **** 	/* Can't fail anymore, free item */
 807:sxmlc/sxmlc.c **** 	(void)XMLNode_free(doc->nodes[i_node]);
 808:sxmlc/sxmlc.c **** 	if (free_node) __free(doc->nodes[i_node]);
 809:sxmlc/sxmlc.c **** 	
 810:sxmlc/sxmlc.c **** 	if (pt != NULL) {
 811:sxmlc/sxmlc.c **** 		memcpy(pt, &doc->nodes[i_node], i_node * sizeof(XMLNode*));
 812:sxmlc/sxmlc.c **** 		memcpy(&pt[i_node], &doc->nodes[i_node + 1], (doc->n_nodes - i_node - 1) * sizeof(XMLNode*));
 813:sxmlc/sxmlc.c **** 	}
 814:sxmlc/sxmlc.c **** 
 815:sxmlc/sxmlc.c **** 	if (doc->nodes != NULL)
 816:sxmlc/sxmlc.c **** 		__free(doc->nodes);
 817:sxmlc/sxmlc.c **** 	doc->nodes = pt;
 818:sxmlc/sxmlc.c **** 	doc->n_nodes--;
 819:sxmlc/sxmlc.c **** 
 820:sxmlc/sxmlc.c **** 	return true;
 821:sxmlc/sxmlc.c **** }
 822:sxmlc/sxmlc.c **** 
 823:sxmlc/sxmlc.c **** /*
 824:sxmlc/sxmlc.c ****  Helper functions to print formatting before a new tag.
 825:sxmlc/sxmlc.c ****  Returns the new number of characters in the line.
 826:sxmlc/sxmlc.c ****  */
 827:sxmlc/sxmlc.c **** static int _count_new_char_line(const SXML_CHAR* str, int nb_char_tab, int cur_sz_line)
 828:sxmlc/sxmlc.c **** {
  26              		.loc 1 828 0
  27              		.cfi_startproc
  28              		@ args = 0, pretend = 0, frame = 0
  29              		@ frame_needed = 0, uses_anonymous_args = 0
  30              		@ link register save eliminated.
  31              	.LVL0:
  32 0000 0138     		subs	r0, r0, #1
  33              	.LVL1:
  34              	.L2:
 829:sxmlc/sxmlc.c **** 	for (; *str; str++) {
  35              		.loc 1 829 0 discriminator 1
  36 0002 10F8013F 		ldrb	r3, [r0, #1]!	@ zero_extendqisi2
  37              	.LVL2:
  38 0006 43B1     		cbz	r3, .L8
 830:sxmlc/sxmlc.c **** 		if (*str == C2SX('\n'))
  39              		.loc 1 830 0
  40 0008 0A2B     		cmp	r3, #10
  41 000a 04D0     		beq	.L6
 831:sxmlc/sxmlc.c **** 			cur_sz_line = 0;
 832:sxmlc/sxmlc.c **** 		else if (*str == C2SX('\t'))
  42              		.loc 1 832 0
  43 000c 092B     		cmp	r3, #9
 833:sxmlc/sxmlc.c **** 			cur_sz_line += nb_char_tab;
  44              		.loc 1 833 0
  45 000e 0CBF     		ite	eq
  46 0010 5218     		addeq	r2, r2, r1
  47              	.LVL3:
 834:sxmlc/sxmlc.c **** 		else
 835:sxmlc/sxmlc.c **** 			cur_sz_line++;
  48              		.loc 1 835 0
  49 0012 0132     		addne	r2, r2, #1
  50              	.LVL4:
  51 0014 F5E7     		b	.L2
  52              	.L6:
 831:sxmlc/sxmlc.c **** 			cur_sz_line = 0;
  53              		.loc 1 831 0
  54 0016 0022     		movs	r2, #0
  55              	.LVL5:
  56 0018 F3E7     		b	.L2
  57              	.LVL6:
  58              	.L8:
 836:sxmlc/sxmlc.c **** 	}
 837:sxmlc/sxmlc.c **** 	
 838:sxmlc/sxmlc.c **** 	return cur_sz_line;
 839:sxmlc/sxmlc.c **** }
  59              		.loc 1 839 0
  60 001a 1046     		mov	r0, r2
  61              	.LVL7:
  62 001c 7047     		bx	lr
  63              		.cfi_endproc
  64              	.LFE34:
  66              		.section	.text.DOMXMLDoc_doc_start,"ax",%progbits
  67              		.align	1
  68              		.global	DOMXMLDoc_doc_start
  69              		.thumb
  70              		.thumb_func
  72              	DOMXMLDoc_doc_start:
  73              	.LFB46:
 840:sxmlc/sxmlc.c **** static int _print_formatting(const XMLNode* node, FILE* f, const SXML_CHAR* tag_sep, const SXML_CHA
 841:sxmlc/sxmlc.c **** {
 842:sxmlc/sxmlc.c **** 	if (tag_sep != NULL) {
 843:sxmlc/sxmlc.c **** 		sx_fprintf(f, tag_sep);
 844:sxmlc/sxmlc.c **** 		cur_sz_line = _count_new_char_line(tag_sep, nb_char_tab, cur_sz_line);
 845:sxmlc/sxmlc.c **** 	}
 846:sxmlc/sxmlc.c **** 	if (child_sep != NULL) {
 847:sxmlc/sxmlc.c **** 		for (node = node->father; node != NULL; node = node->father) {
 848:sxmlc/sxmlc.c **** 			sx_fprintf(f, child_sep);
 849:sxmlc/sxmlc.c **** 			cur_sz_line = _count_new_char_line(child_sep, nb_char_tab, cur_sz_line);
 850:sxmlc/sxmlc.c **** 		}
 851:sxmlc/sxmlc.c **** 	}
 852:sxmlc/sxmlc.c **** 	
 853:sxmlc/sxmlc.c **** 	return cur_sz_line;
 854:sxmlc/sxmlc.c **** }
 855:sxmlc/sxmlc.c **** 
 856:sxmlc/sxmlc.c **** static int _XMLNode_print_header(const XMLNode* node, FILE* f, const SXML_CHAR* tag_sep, const SXML
 857:sxmlc/sxmlc.c **** {
 858:sxmlc/sxmlc.c **** 	int i;
 859:sxmlc/sxmlc.c **** 	SXML_CHAR* p;
 860:sxmlc/sxmlc.c **** 
 861:sxmlc/sxmlc.c **** 	if (node == NULL || f == NULL || !node->active || node->tag == NULL || node->tag[0] == NULC)
 862:sxmlc/sxmlc.c **** 		return -1;
 863:sxmlc/sxmlc.c **** 	
 864:sxmlc/sxmlc.c **** 	/* Special handling of DOCTYPE */
 865:sxmlc/sxmlc.c **** 	if (node->tag_type == TAG_DOCTYPE) {
 866:sxmlc/sxmlc.c **** 		/* Search for an unescaped '[' in the DOCTYPE definition, in which case the end delimiter should 
 867:sxmlc/sxmlc.c **** 		for (p = sx_strchr(node->tag, C2SX('[')); p != NULL && *(p-1) == C2SX('\\'); p = sx_strchr(p+1, C
 868:sxmlc/sxmlc.c **** 		cur_sz_line += sx_fprintf(f, C2SX("<!DOCTYPE%s%s>"), node->tag, p != NULL ? C2SX("]") : C2SX(""))
 869:sxmlc/sxmlc.c **** 		return cur_sz_line;
 870:sxmlc/sxmlc.c **** 	}
 871:sxmlc/sxmlc.c **** 
 872:sxmlc/sxmlc.c **** 	/* Check for special tags first */
 873:sxmlc/sxmlc.c **** 	for (i = 0; i < NB_SPECIAL_TAGS; i++) {
 874:sxmlc/sxmlc.c **** 		if (node->tag_type == _spec[i].tag_type) {
 875:sxmlc/sxmlc.c **** 			sx_fprintf(f, C2SX("%s%s%s"), _spec[i].start, node->tag, _spec[i].end);
 876:sxmlc/sxmlc.c **** 			cur_sz_line += sx_strlen(_spec[i].start) + sx_strlen(node->tag) + sx_strlen(_spec[i].end);
 877:sxmlc/sxmlc.c **** 			return cur_sz_line;
 878:sxmlc/sxmlc.c **** 		}
 879:sxmlc/sxmlc.c **** 	}
 880:sxmlc/sxmlc.c **** 
 881:sxmlc/sxmlc.c **** 	/* Check for user tags */
 882:sxmlc/sxmlc.c **** 	for (i = 0; i < _user_tags.n_tags; i++) {
 883:sxmlc/sxmlc.c **** 		if (node->tag_type == _user_tags.tags[i].tag_type) {
 884:sxmlc/sxmlc.c **** 			sx_fprintf(f, C2SX("%s%s%s"), _user_tags.tags[i].start, node->tag, _user_tags.tags[i].end);
 885:sxmlc/sxmlc.c **** 			cur_sz_line += sx_strlen(_user_tags.tags[i].start) + sx_strlen(node->tag) + sx_strlen(_user_tags
 886:sxmlc/sxmlc.c **** 			return cur_sz_line;
 887:sxmlc/sxmlc.c **** 		}
 888:sxmlc/sxmlc.c **** 	}
 889:sxmlc/sxmlc.c **** 	
 890:sxmlc/sxmlc.c **** 	/* Print tag name */
 891:sxmlc/sxmlc.c **** 	cur_sz_line += sx_fprintf(f, C2SX("<%s"), node->tag);
 892:sxmlc/sxmlc.c **** 
 893:sxmlc/sxmlc.c **** 	/* Print attributes */
 894:sxmlc/sxmlc.c **** 	for (i = 0; i < node->n_attributes; i++) {
 895:sxmlc/sxmlc.c **** 		if (!node->attributes[i].active)
 896:sxmlc/sxmlc.c **** 			continue;
 897:sxmlc/sxmlc.c **** 		cur_sz_line += sx_strlen(node->attributes[i].name) + sx_strlen(node->attributes[i].value) + 3;
 898:sxmlc/sxmlc.c **** 		if (sz_line > 0 && cur_sz_line > sz_line) {
 899:sxmlc/sxmlc.c **** 			cur_sz_line = _print_formatting(node, f, tag_sep, child_sep, nb_char_tab, cur_sz_line);
 900:sxmlc/sxmlc.c **** 			/* Add extra separator, as if new line was a child of the previous one */
 901:sxmlc/sxmlc.c **** 			if (child_sep != NULL) {
 902:sxmlc/sxmlc.c **** 				sx_fprintf(f, child_sep);
 903:sxmlc/sxmlc.c **** 				cur_sz_line = _count_new_char_line(child_sep, nb_char_tab, cur_sz_line);
 904:sxmlc/sxmlc.c **** 			}
 905:sxmlc/sxmlc.c **** 		}
 906:sxmlc/sxmlc.c **** 		/* Attribute name */
 907:sxmlc/sxmlc.c **** 		if (attr_sep != NULL) {
 908:sxmlc/sxmlc.c **** 			sx_fprintf(f, attr_sep);
 909:sxmlc/sxmlc.c **** 			cur_sz_line = _count_new_char_line(attr_sep, nb_char_tab, cur_sz_line);
 910:sxmlc/sxmlc.c **** 			sx_fprintf(f, C2SX("%s="), node->attributes[i].name);
 911:sxmlc/sxmlc.c **** 		} else
 912:sxmlc/sxmlc.c **** 			sx_fprintf(f, C2SX(" %s="), node->attributes[i].name);
 913:sxmlc/sxmlc.c **** 		
 914:sxmlc/sxmlc.c **** 		/* Attribute value */
 915:sxmlc/sxmlc.c **** 		(void)sx_fputc(XML_DEFAULT_QUOTE, f);
 916:sxmlc/sxmlc.c **** 		cur_sz_line += fprintHTML(f, node->attributes[i].value) + 2;
 917:sxmlc/sxmlc.c **** 		(void)sx_fputc(XML_DEFAULT_QUOTE, f);
 918:sxmlc/sxmlc.c **** 	}
 919:sxmlc/sxmlc.c **** 	
 920:sxmlc/sxmlc.c **** 	/* End the tag if there are no children and no text */
 921:sxmlc/sxmlc.c **** 	if (node->n_children == 0 && (node->text == NULL || node->text[0] == NULC)) {
 922:sxmlc/sxmlc.c **** 		cur_sz_line += sx_fprintf(f, C2SX("/>"));
 923:sxmlc/sxmlc.c **** 	} else {
 924:sxmlc/sxmlc.c **** 		(void)sx_fputc(C2SX('>'), f);
 925:sxmlc/sxmlc.c **** 		cur_sz_line++;
 926:sxmlc/sxmlc.c **** 	}
 927:sxmlc/sxmlc.c **** 
 928:sxmlc/sxmlc.c **** 	return cur_sz_line;
 929:sxmlc/sxmlc.c **** }
 930:sxmlc/sxmlc.c **** 
 931:sxmlc/sxmlc.c **** int XMLNode_print_header(const XMLNode* node, FILE* f, int sz_line, int nb_char_tab)
 932:sxmlc/sxmlc.c **** {
 933:sxmlc/sxmlc.c **** 	return _XMLNode_print_header(node, f, NULL, NULL, NULL, sz_line, 0, nb_char_tab) < 0 ? false : tru
 934:sxmlc/sxmlc.c **** }
 935:sxmlc/sxmlc.c **** 
 936:sxmlc/sxmlc.c **** static int _XMLNode_print(const XMLNode* node, FILE* f, const SXML_CHAR* tag_sep, const SXML_CHAR* 
 937:sxmlc/sxmlc.c **** {
 938:sxmlc/sxmlc.c **** 	int i;
 939:sxmlc/sxmlc.c **** 	SXML_CHAR* p;
 940:sxmlc/sxmlc.c **** 	
 941:sxmlc/sxmlc.c **** 	if (node != NULL && node->tag_type==TAG_TEXT) { /* Text has to be printed: check if it is only spa
 942:sxmlc/sxmlc.c **** 		if (!keep_text_spaces) {
 943:sxmlc/sxmlc.c **** 			for (p = node->text; *p != NULC && sx_isspace(*p); p++) ; /* 'p' points to first non-space chara
 944:sxmlc/sxmlc.c **** 		} else
 945:sxmlc/sxmlc.c **** 			p = node->text; /* '*p' won't be '\0' */
 946:sxmlc/sxmlc.c **** 		if (*p != NULC)
 947:sxmlc/sxmlc.c **** 			cur_sz_line += fprintHTML(f, node->text);
 948:sxmlc/sxmlc.c **** 		return cur_sz_line;
 949:sxmlc/sxmlc.c **** 	}
 950:sxmlc/sxmlc.c **** 
 951:sxmlc/sxmlc.c **** 	if (node == NULL || f == NULL || !node->active || node->tag == NULL || node->tag[0] == NULC)
 952:sxmlc/sxmlc.c **** 		return -1;
 953:sxmlc/sxmlc.c **** 	
 954:sxmlc/sxmlc.c **** 	if (nb_char_tab <= 0)
 955:sxmlc/sxmlc.c **** 		nb_char_tab = 1;
 956:sxmlc/sxmlc.c **** 	
 957:sxmlc/sxmlc.c **** 	/* Print formatting */
 958:sxmlc/sxmlc.c **** 	if (depth < 0) /* UGLY HACK: 'depth' forced negative on very first line so we don't print an extra
 959:sxmlc/sxmlc.c **** 		depth = 0;
 960:sxmlc/sxmlc.c **** 	else
 961:sxmlc/sxmlc.c **** 		cur_sz_line = _print_formatting(node, f, tag_sep, child_sep, nb_char_tab, cur_sz_line);
 962:sxmlc/sxmlc.c **** 	
 963:sxmlc/sxmlc.c **** 	_XMLNode_print_header(node, f, tag_sep, child_sep, attr_sep, sz_line, cur_sz_line, nb_char_tab);
 964:sxmlc/sxmlc.c **** 
 965:sxmlc/sxmlc.c **** 	if (node->text != NULL && node->text[0] != NULC) {
 966:sxmlc/sxmlc.c **** 		/* Text has to be printed: check if it is only spaces */
 967:sxmlc/sxmlc.c **** 		if (!keep_text_spaces) {
 968:sxmlc/sxmlc.c **** 			for (p = node->text; *p != NULC && sx_isspace(*p); p++) ; /* 'p' points to first non-space chara
 969:sxmlc/sxmlc.c **** 		} else
 970:sxmlc/sxmlc.c **** 			p = node->text; /* '*p' won't be '\0' */
 971:sxmlc/sxmlc.c **** 		if (*p != NULC) cur_sz_line += fprintHTML(f, node->text);
 972:sxmlc/sxmlc.c **** 	} else if (node->n_children <= 0) /* Everything has already been printed */
 973:sxmlc/sxmlc.c **** 		return cur_sz_line;
 974:sxmlc/sxmlc.c **** 	
 975:sxmlc/sxmlc.c **** 	/* Recursively print children */
 976:sxmlc/sxmlc.c **** 	for (i = 0; i < node->n_children; i++)
 977:sxmlc/sxmlc.c **** 		(void)_XMLNode_print(node->children[i], f, tag_sep, child_sep, attr_sep, keep_text_spaces, sz_lin
 978:sxmlc/sxmlc.c **** 	
 979:sxmlc/sxmlc.c **** 	/* Print tag end after children */
 980:sxmlc/sxmlc.c **** 		/* Print formatting */
 981:sxmlc/sxmlc.c **** 	if (node->n_children > 0)
 982:sxmlc/sxmlc.c **** 		cur_sz_line = _print_formatting(node, f, tag_sep, child_sep, nb_char_tab, cur_sz_line);
 983:sxmlc/sxmlc.c **** 	cur_sz_line += sx_fprintf(f, C2SX("</%s>"), node->tag);
 984:sxmlc/sxmlc.c **** 
 985:sxmlc/sxmlc.c **** 	return cur_sz_line;
 986:sxmlc/sxmlc.c **** }
 987:sxmlc/sxmlc.c **** 
 988:sxmlc/sxmlc.c **** int XMLNode_print_attr_sep(const XMLNode* node, FILE* f, const SXML_CHAR* tag_sep, const SXML_CHAR*
 989:sxmlc/sxmlc.c **** {
 990:sxmlc/sxmlc.c **** 	return _XMLNode_print(node, f, tag_sep, child_sep, attr_sep, keep_text_spaces, sz_line, 0, nb_char
 991:sxmlc/sxmlc.c **** }
 992:sxmlc/sxmlc.c **** 
 993:sxmlc/sxmlc.c **** int XMLDoc_print_attr_sep(const XMLDoc* doc, FILE* f, const SXML_CHAR* tag_sep, const SXML_CHAR* ch
 994:sxmlc/sxmlc.c **** {
 995:sxmlc/sxmlc.c **** 	int i, depth, cur_sz_line;
 996:sxmlc/sxmlc.c **** 	
 997:sxmlc/sxmlc.c **** 	if (doc == NULL || f == NULL || doc->init_value != XML_INIT_DONE)
 998:sxmlc/sxmlc.c **** 		return false;
 999:sxmlc/sxmlc.c **** 	
1000:sxmlc/sxmlc.c **** #ifdef SXMLC_UNICODE
1001:sxmlc/sxmlc.c **** 	/* Write BOM if it exist */
1002:sxmlc/sxmlc.c **** 	if (doc->sz_bom > 0) fwrite(doc->bom, sizeof(unsigned char), doc->sz_bom, f);
1003:sxmlc/sxmlc.c **** #endif
1004:sxmlc/sxmlc.c **** 
1005:sxmlc/sxmlc.c **** 	depth = -1; /* UGLY HACK: 'depth' forced negative on very first line so we don't print an extra 't
1006:sxmlc/sxmlc.c **** 	for (i = 0, cur_sz_line = 0; i < doc->n_nodes; i++) {
1007:sxmlc/sxmlc.c **** 		cur_sz_line = _XMLNode_print(doc->nodes[i], f, tag_sep, child_sep, attr_sep, keep_text_spaces, sz
1008:sxmlc/sxmlc.c **** 		depth = 0;
1009:sxmlc/sxmlc.c **** 	}
1010:sxmlc/sxmlc.c **** 	/* TODO: Find something more graceful than 'depth=-1', even though everyone knows I probably never
1011:sxmlc/sxmlc.c **** 
1012:sxmlc/sxmlc.c **** 	return true;
1013:sxmlc/sxmlc.c **** }
1014:sxmlc/sxmlc.c **** 
1015:sxmlc/sxmlc.c **** /* --- */
1016:sxmlc/sxmlc.c **** 
1017:sxmlc/sxmlc.c **** int XML_parse_attribute_to(const SXML_CHAR* str, int to, XMLAttribute* xmlattr)
1018:sxmlc/sxmlc.c **** {
1019:sxmlc/sxmlc.c **** 	const SXML_CHAR *p;
1020:sxmlc/sxmlc.c **** 	int i, n0, n1, remQ = 0;
1021:sxmlc/sxmlc.c **** 	int ret = 1;
1022:sxmlc/sxmlc.c **** 	SXML_CHAR quote = '\0';
1023:sxmlc/sxmlc.c **** 	
1024:sxmlc/sxmlc.c **** 	if (str == NULL || xmlattr == NULL)
1025:sxmlc/sxmlc.c **** 		return 0;
1026:sxmlc/sxmlc.c **** 
1027:sxmlc/sxmlc.c **** 	if (to < 0)
1028:sxmlc/sxmlc.c **** 		to = sx_strlen(str) - 1;
1029:sxmlc/sxmlc.c **** 	
1030:sxmlc/sxmlc.c **** 	/* Search for the '=' */
1031:sxmlc/sxmlc.c **** 	/* 'n0' is where the attribute name stops, 'n1' is where the attribute value starts */
1032:sxmlc/sxmlc.c **** 	for (n0 = 0; n0 != to && str[n0] != C2SX('=') && !sx_isspace(str[n0]); n0++) ; /* Search for '=' o
1033:sxmlc/sxmlc.c **** 	for (n1 = n0; n1 != to && sx_isspace(str[n1]); n1++) ; /* Search for something not a space */
1034:sxmlc/sxmlc.c **** 	if (str[n1] != C2SX('='))
1035:sxmlc/sxmlc.c **** 		return 0; /* '=' not found: malformed string */
1036:sxmlc/sxmlc.c **** 	for (n1++; n1 != to && sx_isspace(str[n1]); n1++) ; /* Search for something not a space */
1037:sxmlc/sxmlc.c **** 	if (isquote(str[n1])) { /* Remove quotes */
1038:sxmlc/sxmlc.c **** 		quote = str[n1];
1039:sxmlc/sxmlc.c **** 		remQ = 1;
1040:sxmlc/sxmlc.c **** 	}
1041:sxmlc/sxmlc.c **** 	
1042:sxmlc/sxmlc.c **** 	xmlattr->name = (SXML_CHAR*)__malloc((n0+1)*sizeof(SXML_CHAR));
1043:sxmlc/sxmlc.c **** 	xmlattr->value = (SXML_CHAR*)__malloc((to+1 - n1 - remQ + 1) * sizeof(SXML_CHAR));
1044:sxmlc/sxmlc.c **** 	xmlattr->active = true;
1045:sxmlc/sxmlc.c **** 	if (xmlattr->name != NULL && xmlattr->value != NULL) {
1046:sxmlc/sxmlc.c **** 		/* Copy name */
1047:sxmlc/sxmlc.c **** 		sx_strncpy(xmlattr->name, str, n0);
1048:sxmlc/sxmlc.c **** 		xmlattr->name[n0] = NULC;
1049:sxmlc/sxmlc.c **** 		/* (void)str_unescape(xmlattr->name); do not unescape the name */
1050:sxmlc/sxmlc.c **** 		/* Copy value (p starts after the quote (if any) and stops at the end of 'str'
1051:sxmlc/sxmlc.c **** 		  (skipping the quote if any, hence the '*(p+remQ)') */
1052:sxmlc/sxmlc.c **** 		for (i = 0, p = str + n1 + remQ; i + n1 + remQ < to && *(p+remQ) != NULC; i++, p++)
1053:sxmlc/sxmlc.c **** 			xmlattr->value[i] = *p;
1054:sxmlc/sxmlc.c **** 		xmlattr->value[i] = NULC;
1055:sxmlc/sxmlc.c **** 		(void)html2str(xmlattr->value, NULL); /* Convert HTML escape sequences, do not str_unescape(xmlat
1056:sxmlc/sxmlc.c **** 		if (remQ && *p != quote)
1057:sxmlc/sxmlc.c **** 			ret = 2; /* Quote at the beginning but not at the end: probable presence of '>' inside attribute
1058:sxmlc/sxmlc.c **** 	} else
1059:sxmlc/sxmlc.c **** 		ret = 0;
1060:sxmlc/sxmlc.c **** 	
1061:sxmlc/sxmlc.c **** 	if (ret == 0) {
1062:sxmlc/sxmlc.c **** 		if (xmlattr->name != NULL) {
1063:sxmlc/sxmlc.c **** 			__free(xmlattr->name);
1064:sxmlc/sxmlc.c **** 			xmlattr->name = NULL;
1065:sxmlc/sxmlc.c **** 		}
1066:sxmlc/sxmlc.c **** 		if (xmlattr->value != NULL) {
1067:sxmlc/sxmlc.c **** 			__free(xmlattr->value);
1068:sxmlc/sxmlc.c **** 			xmlattr->value = NULL;
1069:sxmlc/sxmlc.c **** 		}
1070:sxmlc/sxmlc.c **** 	}
1071:sxmlc/sxmlc.c **** 	
1072:sxmlc/sxmlc.c **** 	return ret;
1073:sxmlc/sxmlc.c **** }
1074:sxmlc/sxmlc.c **** 
1075:sxmlc/sxmlc.c **** static TagType _parse_special_tag(const SXML_CHAR* str, int len, _TAG* tag, XMLNode* node)
1076:sxmlc/sxmlc.c **** {
1077:sxmlc/sxmlc.c **** 	if (sx_strncmp(str, tag->start, tag->len_start))
1078:sxmlc/sxmlc.c **** 		return TAG_NONE;
1079:sxmlc/sxmlc.c **** 
1080:sxmlc/sxmlc.c **** 	if (sx_strncmp(str + len - tag->len_end, tag->end, tag->len_end)) /* There probably is a '>' insid
1081:sxmlc/sxmlc.c **** 		return TAG_PARTIAL;
1082:sxmlc/sxmlc.c **** 
1083:sxmlc/sxmlc.c **** 	node->tag = (SXML_CHAR*)__malloc((len - tag->len_start - tag->len_end + 1)*sizeof(SXML_CHAR));
1084:sxmlc/sxmlc.c **** 	if (node->tag == NULL)
1085:sxmlc/sxmlc.c **** 		return TAG_NONE;
1086:sxmlc/sxmlc.c **** 	sx_strncpy(node->tag, str + tag->len_start, len - tag->len_start - tag->len_end);
1087:sxmlc/sxmlc.c **** 	node->tag[len - tag->len_start - tag->len_end] = NULC;
1088:sxmlc/sxmlc.c **** 	node->tag_type = tag->tag_type;
1089:sxmlc/sxmlc.c **** 
1090:sxmlc/sxmlc.c **** 	return node->tag_type;
1091:sxmlc/sxmlc.c **** }
1092:sxmlc/sxmlc.c **** 
1093:sxmlc/sxmlc.c **** /*
1094:sxmlc/sxmlc.c ****  Reads a string that is supposed to be an xml tag like '<tag (attribName="attribValue")* [/]>' or '
1095:sxmlc/sxmlc.c ****  Fills the 'xmlnode' structure with the tag name and its attributes.
1096:sxmlc/sxmlc.c ****  Returns 'TAG_ERROR' if an error occurred (malformed 'str' or memory). 'TAG_*' when string is recog
1097:sxmlc/sxmlc.c ****  */
1098:sxmlc/sxmlc.c **** TagType XML_parse_1string(const SXML_CHAR* str, XMLNode* xmlnode)
1099:sxmlc/sxmlc.c **** {
1100:sxmlc/sxmlc.c **** 	SXML_CHAR *p;
1101:sxmlc/sxmlc.c **** 	XMLAttribute* pt;
1102:sxmlc/sxmlc.c **** 	int n, nn, len, rc, tag_end = 0;
1103:sxmlc/sxmlc.c **** 	
1104:sxmlc/sxmlc.c **** 	if (str == NULL || xmlnode == NULL)
1105:sxmlc/sxmlc.c **** 		return TAG_ERROR;
1106:sxmlc/sxmlc.c **** 	len = sx_strlen(str);
1107:sxmlc/sxmlc.c **** 	
1108:sxmlc/sxmlc.c **** 	/* Check for malformed string */
1109:sxmlc/sxmlc.c **** 	if (str[0] != C2SX('<') || str[len-1] != C2SX('>'))
1110:sxmlc/sxmlc.c **** 		return TAG_ERROR;
1111:sxmlc/sxmlc.c **** 
1112:sxmlc/sxmlc.c **** 	for (nn = 0; nn < NB_SPECIAL_TAGS; nn++) {
1113:sxmlc/sxmlc.c **** 		n = (int)_parse_special_tag(str, len, &_spec[nn], xmlnode);
1114:sxmlc/sxmlc.c **** 		switch (n) {
1115:sxmlc/sxmlc.c **** 			case TAG_NONE:	break;				/* Nothing found => do nothing */
1116:sxmlc/sxmlc.c **** 			default:		return (TagType)n;	/* Tag found => return it */
1117:sxmlc/sxmlc.c **** 		}
1118:sxmlc/sxmlc.c **** 	}
1119:sxmlc/sxmlc.c **** 
1120:sxmlc/sxmlc.c **** 	/* "<!DOCTYPE" requires a special handling because it can end with "]>" instead of ">" if a '[' is
1121:sxmlc/sxmlc.c **** 	if (str[1] == C2SX('!')) {
1122:sxmlc/sxmlc.c **** 		/* DOCTYPE */
1123:sxmlc/sxmlc.c **** 		if (!sx_strncmp(str, C2SX("<!DOCTYPE"), 9)) { /* 9 = sizeof("<!DOCTYPE") */
1124:sxmlc/sxmlc.c **** 			for (n = 9; str[n] && str[n] != C2SX('['); n++) ; /* Look for a '[' inside the DOCTYPE, which wo
1125:sxmlc/sxmlc.c **** 			nn = 0;
1126:sxmlc/sxmlc.c **** 			if (str[n]) { /* '[' was found */
1127:sxmlc/sxmlc.c **** 				if (sx_strncmp(str+len-2, C2SX("]>"), 2)) /* There probably is a '>' inside the DOCTYPE */
1128:sxmlc/sxmlc.c **** 					return TAG_PARTIAL;
1129:sxmlc/sxmlc.c **** 				nn = 1;
1130:sxmlc/sxmlc.c **** 			}
1131:sxmlc/sxmlc.c **** 			xmlnode->tag = (SXML_CHAR*)__malloc((len - 9 - nn)*sizeof(SXML_CHAR)); /* 'len' - "<!DOCTYPE" an
1132:sxmlc/sxmlc.c **** 			if (xmlnode->tag == NULL)
1133:sxmlc/sxmlc.c **** 				return TAG_ERROR;
1134:sxmlc/sxmlc.c **** 			sx_strncpy(xmlnode->tag, &str[9], len - 10 - nn);
1135:sxmlc/sxmlc.c **** 			xmlnode->tag[len - 10 - nn] = NULC;
1136:sxmlc/sxmlc.c **** 			xmlnode->tag_type = TAG_DOCTYPE;
1137:sxmlc/sxmlc.c **** 
1138:sxmlc/sxmlc.c **** 			return TAG_DOCTYPE;
1139:sxmlc/sxmlc.c **** 		}
1140:sxmlc/sxmlc.c **** 	}
1141:sxmlc/sxmlc.c **** 	
1142:sxmlc/sxmlc.c **** 	/* Test user tags */
1143:sxmlc/sxmlc.c **** 	for (nn = 0; nn < _user_tags.n_tags; nn++) {
1144:sxmlc/sxmlc.c **** 		n = _parse_special_tag(str, len, &_user_tags.tags[nn], xmlnode);
1145:sxmlc/sxmlc.c **** 		switch (n) {
1146:sxmlc/sxmlc.c **** 			case TAG_ERROR:	return TAG_NONE;	/* Error => exit */
1147:sxmlc/sxmlc.c **** 			case TAG_NONE:	break;				/* Nothing found => do nothing */
1148:sxmlc/sxmlc.c **** 			default:		return (TagType)n;	/* Tag found => return it */
1149:sxmlc/sxmlc.c **** 		}
1150:sxmlc/sxmlc.c **** 	}
1151:sxmlc/sxmlc.c **** 
1152:sxmlc/sxmlc.c **** 	if (str[1] == C2SX('/'))
1153:sxmlc/sxmlc.c **** 		tag_end = 1;
1154:sxmlc/sxmlc.c **** 	
1155:sxmlc/sxmlc.c **** 	/* tag starts at index 1 (or 2 if tag end) and ends at the first space or '/>' */
1156:sxmlc/sxmlc.c **** 	for (n = 1 + tag_end; str[n] != NULC && str[n] != C2SX('>') && str[n] != C2SX('/') && !sx_isspace(
1157:sxmlc/sxmlc.c **** 	xmlnode->tag = (SXML_CHAR*)__malloc((n - tag_end)*sizeof(SXML_CHAR));
1158:sxmlc/sxmlc.c **** 	if (xmlnode->tag == NULL)
1159:sxmlc/sxmlc.c **** 		return TAG_ERROR;
1160:sxmlc/sxmlc.c **** 	sx_strncpy(xmlnode->tag, &str[1 + tag_end], n - 1 - tag_end);
1161:sxmlc/sxmlc.c **** 	xmlnode->tag[n - 1 - tag_end] = NULC;
1162:sxmlc/sxmlc.c **** 	if (tag_end) {
1163:sxmlc/sxmlc.c **** 		xmlnode->tag_type = TAG_END;
1164:sxmlc/sxmlc.c **** 		return TAG_END;
1165:sxmlc/sxmlc.c **** 	}
1166:sxmlc/sxmlc.c **** 	
1167:sxmlc/sxmlc.c **** 	/* Here, 'n' is the position of the first space after tag name */
1168:sxmlc/sxmlc.c **** 	while (n < len) {
1169:sxmlc/sxmlc.c **** 		/* Skips spaces */
1170:sxmlc/sxmlc.c **** 		while (sx_isspace(str[n])) n++;
1171:sxmlc/sxmlc.c **** 		
1172:sxmlc/sxmlc.c **** 		/* Check for XML end ('>' or '/>') */
1173:sxmlc/sxmlc.c **** 		if (str[n] == C2SX('>')) { /* Tag with children */
1174:sxmlc/sxmlc.c **** 			int type = (str[n-1] == '/' ? TAG_SELF : TAG_FATHER); // TODO: Find something better to cope wit
1175:sxmlc/sxmlc.c **** 			xmlnode->tag_type = type;
1176:sxmlc/sxmlc.c **** 			return type;
1177:sxmlc/sxmlc.c **** 		}
1178:sxmlc/sxmlc.c **** 		if (!sx_strcmp(str+n, C2SX("/>"))) { /* Tag without children */
1179:sxmlc/sxmlc.c **** 			xmlnode->tag_type = TAG_SELF;
1180:sxmlc/sxmlc.c **** 			return TAG_SELF;
1181:sxmlc/sxmlc.c **** 		}
1182:sxmlc/sxmlc.c **** 		
1183:sxmlc/sxmlc.c **** 		/* New attribute found */
1184:sxmlc/sxmlc.c **** 		p = sx_strchr(str+n, C2SX('='));
1185:sxmlc/sxmlc.c **** 		if (p == NULL) goto parse_err;
1186:sxmlc/sxmlc.c **** 		pt = (XMLAttribute*)__realloc(xmlnode->attributes, (xmlnode->n_attributes + 1) * sizeof(XMLAttrib
1187:sxmlc/sxmlc.c **** 		if (pt == NULL) goto parse_err;
1188:sxmlc/sxmlc.c **** 		
1189:sxmlc/sxmlc.c **** 		pt[xmlnode->n_attributes].name = NULL;
1190:sxmlc/sxmlc.c **** 		pt[xmlnode->n_attributes].value = NULL;
1191:sxmlc/sxmlc.c **** 		pt[xmlnode->n_attributes].active = false;
1192:sxmlc/sxmlc.c **** 		xmlnode->n_attributes++;
1193:sxmlc/sxmlc.c **** 		xmlnode->attributes = pt;
1194:sxmlc/sxmlc.c **** 		while (*p != NULC && sx_isspace(*++p)) ; /* Skip spaces */
1195:sxmlc/sxmlc.c **** 		if (isquote(*p)) { /* Attribute value starts with a quote, look for next one, ignoring protected 
1196:sxmlc/sxmlc.c **** 			for (nn = p-str+1; str[nn] && str[nn] != *p; nn++) { // CHECK UNICODE "nn = p-str+1"
1197:sxmlc/sxmlc.c **** 				/* if (str[nn] == C2SX('\\')) nn++; [bugs:#7]: '\' is valid in values */
1198:sxmlc/sxmlc.c **** 			}
1199:sxmlc/sxmlc.c **** 		} else { /* Attribute value stops at first space or end of XML string */
1200:sxmlc/sxmlc.c **** 			for (nn = p-str+1; str[nn] != NULC && !sx_isspace(str[nn]) && str[nn] != C2SX('/') && str[nn] !=
1201:sxmlc/sxmlc.c **** 		}
1202:sxmlc/sxmlc.c **** 		
1203:sxmlc/sxmlc.c **** 		/* Here 'str[nn]' is the character after value */
1204:sxmlc/sxmlc.c **** 		/* the attribute definition ('attrName="attrVal"') is between 'str[n]' and 'str[nn]' */
1205:sxmlc/sxmlc.c **** 		rc = XML_parse_attribute_to(&str[n], nn - n, &xmlnode->attributes[xmlnode->n_attributes - 1]);
1206:sxmlc/sxmlc.c **** 		if (!rc) goto parse_err;
1207:sxmlc/sxmlc.c **** 		if (rc == 2) { /* Probable presence of '>' inside attribute value, which is legal XML. Remove att
1208:sxmlc/sxmlc.c **** 			XMLNode_remove_attribute(xmlnode, xmlnode->n_attributes - 1);
1209:sxmlc/sxmlc.c **** 			return TAG_PARTIAL;
1210:sxmlc/sxmlc.c **** 		}
1211:sxmlc/sxmlc.c **** 		
1212:sxmlc/sxmlc.c **** 		n = nn + 1;
1213:sxmlc/sxmlc.c **** 	}
1214:sxmlc/sxmlc.c **** 	
1215:sxmlc/sxmlc.c **** 	sx_fprintf(stderr, C2SX("\nWE SHOULD NOT BE HERE!\n[%s]\n\n"), str);
1216:sxmlc/sxmlc.c **** 	
1217:sxmlc/sxmlc.c **** parse_err:
1218:sxmlc/sxmlc.c **** 	(void)XMLNode_free(xmlnode);
1219:sxmlc/sxmlc.c **** 
1220:sxmlc/sxmlc.c **** 	return TAG_ERROR;
1221:sxmlc/sxmlc.c **** }
1222:sxmlc/sxmlc.c **** 
1223:sxmlc/sxmlc.c **** static int _parse_data_SAX(void* in, const DataSourceType in_type, const SAX_Callbacks* sax, SAX_Da
1224:sxmlc/sxmlc.c **** {
1225:sxmlc/sxmlc.c **** 	SXML_CHAR *line = NULL, *txt_end, *p;
1226:sxmlc/sxmlc.c **** 	XMLNode node;
1227:sxmlc/sxmlc.c **** 	int ret, exit, sz, n0, ncr;
1228:sxmlc/sxmlc.c **** 	TagType tag_type;
1229:sxmlc/sxmlc.c **** 	int (*meos)(void* ds) = (in_type == DATA_SOURCE_BUFFER ? (int(*)(void*))_beob : (int(*)(void*))feo
1230:sxmlc/sxmlc.c **** 
1231:sxmlc/sxmlc.c **** 	if (sax->start_doc != NULL && !sax->start_doc(sd))
1232:sxmlc/sxmlc.c **** 		return true;
1233:sxmlc/sxmlc.c **** 	if (sax->all_event != NULL && !sax->all_event(XML_EVENT_START_DOC, NULL, (SXML_CHAR*)sd->name, 0, 
1234:sxmlc/sxmlc.c **** 		return true;
1235:sxmlc/sxmlc.c **** 
1236:sxmlc/sxmlc.c **** 	ret = true;
1237:sxmlc/sxmlc.c **** 	exit = false;
1238:sxmlc/sxmlc.c **** 	sd->line_num = 1; /* Line counter, starts at 1 */
1239:sxmlc/sxmlc.c **** 	sz = 0; /* 'line' buffer size */
1240:sxmlc/sxmlc.c **** 	node.init_value = 0;
1241:sxmlc/sxmlc.c **** 	(void)XMLNode_init(&node);
1242:sxmlc/sxmlc.c **** 	while ((n0 = read_line_alloc(in, in_type, &line, &sz, 0, NULC, C2SX('>'), true, C2SX('\n'), &ncr))
1243:sxmlc/sxmlc.c **** 		(void)XMLNode_free(&node);
1244:sxmlc/sxmlc.c **** 		for (p = line; *p != NULC && sx_isspace(*p); p++) ; /* Checks if text is only spaces */
1245:sxmlc/sxmlc.c **** 		if (*p == NULC)
1246:sxmlc/sxmlc.c **** 			break;
1247:sxmlc/sxmlc.c **** 		sd->line_num += ncr;
1248:sxmlc/sxmlc.c **** 
1249:sxmlc/sxmlc.c **** 		/* Get text for 'father' (i.e. what is before '<') */
1250:sxmlc/sxmlc.c **** 		while ((txt_end = sx_strchr(line, C2SX('<'))) == NULL) { /* '<' was not found, indicating a proba
1251:sxmlc/sxmlc.c **** 			int n1 = read_line_alloc(in, in_type, &line, &sz, n0, 0, C2SX('>'), true, C2SX('\n'), &ncr); /* 
1252:sxmlc/sxmlc.c **** 			sd->line_num += ncr;
1253:sxmlc/sxmlc.c **** 			if (n1 <= n0) {
1254:sxmlc/sxmlc.c **** 				ret = false;
1255:sxmlc/sxmlc.c **** 				if (sax->on_error == NULL && sax->all_event == NULL)
1256:sxmlc/sxmlc.c **** 					sx_fprintf(stderr, C2SX("%s:%d: MEMORY ERROR.\n"), sd->name, sd->line_num);
1257:sxmlc/sxmlc.c **** 				else {
1258:sxmlc/sxmlc.c **** 					if (sax->on_error != NULL && !sax->on_error(PARSE_ERR_MEMORY, sd->line_num, sd))
1259:sxmlc/sxmlc.c **** 						break;
1260:sxmlc/sxmlc.c **** 					if (sax->all_event != NULL && !sax->all_event(XML_EVENT_ERROR, NULL, (SXML_CHAR*)sd->name, PAR
1261:sxmlc/sxmlc.c **** 						break;
1262:sxmlc/sxmlc.c **** 				}
1263:sxmlc/sxmlc.c **** 				break; /* 'txt_end' is still NULL here so we'll display the syntax error below */
1264:sxmlc/sxmlc.c **** 			}
1265:sxmlc/sxmlc.c **** 			n0 = n1;
1266:sxmlc/sxmlc.c **** 		}
1267:sxmlc/sxmlc.c **** 		if (txt_end == NULL) { /* Missing tag start */
1268:sxmlc/sxmlc.c **** 			ret = false;
1269:sxmlc/sxmlc.c **** 			if (sax->on_error == NULL && sax->all_event == NULL)
1270:sxmlc/sxmlc.c **** 				sx_fprintf(stderr, C2SX("%s:%d: ERROR: Unexpected end character '>', without matching '<'!\n"),
1271:sxmlc/sxmlc.c **** 			else {
1272:sxmlc/sxmlc.c **** 				if (sax->on_error != NULL && !sax->on_error(PARSE_ERR_UNEXPECTED_TAG_END, sd->line_num, sd))
1273:sxmlc/sxmlc.c **** 					break;
1274:sxmlc/sxmlc.c **** 				if (sax->all_event != NULL && !sax->all_event(XML_EVENT_ERROR, NULL, (SXML_CHAR*)sd->name, PARS
1275:sxmlc/sxmlc.c **** 					break;
1276:sxmlc/sxmlc.c **** 			}
1277:sxmlc/sxmlc.c **** 			break;
1278:sxmlc/sxmlc.c **** 		}
1279:sxmlc/sxmlc.c **** 		/* First part of 'line' (before '<') is to be added to 'father->text' */
1280:sxmlc/sxmlc.c **** 		*txt_end = NULC; /* Have 'line' be the text for 'father' */
1281:sxmlc/sxmlc.c **** 		if (*line != NULC && (sax->new_text != NULL || sax->all_event != NULL)) {
1282:sxmlc/sxmlc.c **** 			if (sax->new_text != NULL && (exit = !sax->new_text(line, sd))) /* no str_unescape(line) */
1283:sxmlc/sxmlc.c **** 				break;
1284:sxmlc/sxmlc.c **** 			if (sax->all_event != NULL && (exit = !sax->all_event(XML_EVENT_TEXT, NULL, line, sd->line_num, 
1285:sxmlc/sxmlc.c **** 				break;
1286:sxmlc/sxmlc.c **** 		}
1287:sxmlc/sxmlc.c **** 		*txt_end = '<'; /* Restores tag start */
1288:sxmlc/sxmlc.c **** 
1289:sxmlc/sxmlc.c **** 		switch (tag_type = XML_parse_1string(txt_end, &node)) {
1290:sxmlc/sxmlc.c **** 			case TAG_ERROR: /* Memory error */
1291:sxmlc/sxmlc.c **** 				ret = false;
1292:sxmlc/sxmlc.c **** 				if (sax->on_error == NULL && sax->all_event == NULL)
1293:sxmlc/sxmlc.c **** 					sx_fprintf(stderr, C2SX("%s:%d: MEMORY ERROR.\n"), sd->name, sd->line_num);
1294:sxmlc/sxmlc.c **** 				else {
1295:sxmlc/sxmlc.c **** 					if (sax->on_error != NULL && (exit = !sax->on_error(PARSE_ERR_MEMORY, sd->line_num, sd)))
1296:sxmlc/sxmlc.c **** 						break;
1297:sxmlc/sxmlc.c **** 					if (sax->all_event != NULL && (exit = !sax->all_event(XML_EVENT_ERROR, NULL, (SXML_CHAR*)sd->n
1298:sxmlc/sxmlc.c **** 						break;
1299:sxmlc/sxmlc.c **** 				}
1300:sxmlc/sxmlc.c **** 				break;
1301:sxmlc/sxmlc.c **** 		
1302:sxmlc/sxmlc.c **** 			case TAG_NONE: /* Syntax error */
1303:sxmlc/sxmlc.c **** 				ret = false;
1304:sxmlc/sxmlc.c **** 				p = sx_strchr(txt_end, C2SX('\n'));
1305:sxmlc/sxmlc.c **** 				if (p != NULL)
1306:sxmlc/sxmlc.c **** 					*p = NULC;
1307:sxmlc/sxmlc.c **** 				if (sax->on_error == NULL && sax->all_event == NULL) {
1308:sxmlc/sxmlc.c **** 					sx_fprintf(stderr, C2SX("%s:%d: SYNTAX ERROR (%s%s).\n"), sd->name, sd->line_num, txt_end, p =
1309:sxmlc/sxmlc.c **** 					if (p != NULL)
1310:sxmlc/sxmlc.c **** 						*p = C2SX('\n');
1311:sxmlc/sxmlc.c **** 				} else {
1312:sxmlc/sxmlc.c **** 					if (sax->on_error != NULL && (exit = !sax->on_error(PARSE_ERR_SYNTAX, sd->line_num, sd)))
1313:sxmlc/sxmlc.c **** 						break;
1314:sxmlc/sxmlc.c **** 					if (sax->all_event != NULL && (exit = !sax->all_event(XML_EVENT_ERROR, NULL, (SXML_CHAR*)sd->n
1315:sxmlc/sxmlc.c **** 						break;
1316:sxmlc/sxmlc.c **** 				}
1317:sxmlc/sxmlc.c **** 				break;
1318:sxmlc/sxmlc.c **** 
1319:sxmlc/sxmlc.c **** 			case TAG_END:
1320:sxmlc/sxmlc.c **** 				if (sax->end_node != NULL || sax->all_event != NULL) {
1321:sxmlc/sxmlc.c **** 					if (sax->end_node != NULL && (exit = !sax->end_node(&node, sd)))
1322:sxmlc/sxmlc.c **** 						break;
1323:sxmlc/sxmlc.c **** 					if (sax->all_event != NULL && (exit = !sax->all_event(XML_EVENT_END_NODE, &node, NULL, sd->lin
1324:sxmlc/sxmlc.c **** 						break;
1325:sxmlc/sxmlc.c **** 				}
1326:sxmlc/sxmlc.c **** 				break;
1327:sxmlc/sxmlc.c **** 
1328:sxmlc/sxmlc.c **** 			default: /* Add 'node' to 'father' children */
1329:sxmlc/sxmlc.c **** 				/* If the line looks like a comment (or CDATA) but is not properly finished, loop until we find
1330:sxmlc/sxmlc.c **** 				while (tag_type == TAG_PARTIAL) {
1331:sxmlc/sxmlc.c **** 					int n1 = read_line_alloc(in, in_type, &line, &sz, n0, NULC, C2SX('>'), true, C2SX('\n'), &ncr)
1332:sxmlc/sxmlc.c **** 					sd->line_num += ncr;
1333:sxmlc/sxmlc.c **** 					if (n1 <= n0) {
1334:sxmlc/sxmlc.c **** 						ret = false;
1335:sxmlc/sxmlc.c **** 						if (sax->on_error == NULL && sax->all_event == NULL)
1336:sxmlc/sxmlc.c **** 							sx_fprintf(stderr, C2SX("%s:%d: SYNTAX ERROR.\n"), sd->name, sd->line_num);
1337:sxmlc/sxmlc.c **** 						else {
1338:sxmlc/sxmlc.c **** 							if (sax->on_error != NULL && (exit = !sax->on_error(meos(in) ? PARSE_ERR_EOF : PARSE_ERR_MEM
1339:sxmlc/sxmlc.c **** 								break;
1340:sxmlc/sxmlc.c **** 							if (sax->all_event != NULL && (exit = !sax->all_event(XML_EVENT_ERROR, NULL, (SXML_CHAR*)sd-
1341:sxmlc/sxmlc.c **** 								break;
1342:sxmlc/sxmlc.c **** 						}
1343:sxmlc/sxmlc.c **** 						break;
1344:sxmlc/sxmlc.c **** 					}
1345:sxmlc/sxmlc.c **** 					n0 = n1;
1346:sxmlc/sxmlc.c **** 					txt_end = sx_strchr(line, C2SX('<')); /* In case 'line' has been moved by the '__realloc' in '
1347:sxmlc/sxmlc.c **** 					tag_type = XML_parse_1string(txt_end, &node);
1348:sxmlc/sxmlc.c **** 					if (tag_type == TAG_ERROR) {
1349:sxmlc/sxmlc.c **** 						ret = false;
1350:sxmlc/sxmlc.c **** 						if (sax->on_error == NULL && sax->all_event == NULL)
1351:sxmlc/sxmlc.c **** 							sx_fprintf(stderr, C2SX("%s:%d: PARSE ERROR.\n"), sd->name, sd->line_num);
1352:sxmlc/sxmlc.c **** 						else {
1353:sxmlc/sxmlc.c **** 							if (sax->on_error != NULL && (exit = !sax->on_error(meos(in) ? PARSE_ERR_EOF : PARSE_ERR_SYN
1354:sxmlc/sxmlc.c **** 								break;
1355:sxmlc/sxmlc.c **** 							if (sax->all_event != NULL && (exit = !sax->all_event(XML_EVENT_ERROR, NULL, (SXML_CHAR*)sd-
1356:sxmlc/sxmlc.c **** 								break;
1357:sxmlc/sxmlc.c **** 						}
1358:sxmlc/sxmlc.c **** 						break;
1359:sxmlc/sxmlc.c **** 					}
1360:sxmlc/sxmlc.c **** 				}
1361:sxmlc/sxmlc.c **** 				if (ret == false)
1362:sxmlc/sxmlc.c **** 					break;
1363:sxmlc/sxmlc.c **** 				if (sax->start_node != NULL && (exit = !sax->start_node(&node, sd)))
1364:sxmlc/sxmlc.c **** 					break;
1365:sxmlc/sxmlc.c **** 				if (sax->all_event != NULL && (exit = !sax->all_event(XML_EVENT_START_NODE, &node, NULL, sd->li
1366:sxmlc/sxmlc.c **** 					break;
1367:sxmlc/sxmlc.c **** 				if (node.tag_type != TAG_FATHER && (sax->end_node != NULL || sax->all_event != NULL)) {
1368:sxmlc/sxmlc.c **** 					if (sax->end_node != NULL && (exit = !sax->end_node(&node, sd)))
1369:sxmlc/sxmlc.c **** 						break;
1370:sxmlc/sxmlc.c **** 					if (sax->all_event != NULL && (exit = !sax->all_event(XML_EVENT_END_NODE, &node, NULL, sd->lin
1371:sxmlc/sxmlc.c **** 						break;
1372:sxmlc/sxmlc.c **** 				}
1373:sxmlc/sxmlc.c **** 			break;
1374:sxmlc/sxmlc.c **** 		}
1375:sxmlc/sxmlc.c **** 		if (exit == true || ret == false || meos(in))
1376:sxmlc/sxmlc.c **** 			break;
1377:sxmlc/sxmlc.c **** 	}
1378:sxmlc/sxmlc.c **** 	__free(line);
1379:sxmlc/sxmlc.c **** 	(void)XMLNode_free(&node);
1380:sxmlc/sxmlc.c **** 
1381:sxmlc/sxmlc.c **** 	if (sax->end_doc != NULL && !sax->end_doc(sd))
1382:sxmlc/sxmlc.c **** 		return ret;
1383:sxmlc/sxmlc.c **** 	if (sax->all_event != NULL)
1384:sxmlc/sxmlc.c **** 		(void)sax->all_event(XML_EVENT_END_DOC, NULL, (SXML_CHAR*)sd->name, sd->line_num, sd);
1385:sxmlc/sxmlc.c **** 
1386:sxmlc/sxmlc.c **** 	return ret;
1387:sxmlc/sxmlc.c **** }
1388:sxmlc/sxmlc.c **** 
1389:sxmlc/sxmlc.c **** int SAX_Callbacks_init(SAX_Callbacks* sax)
1390:sxmlc/sxmlc.c **** {
1391:sxmlc/sxmlc.c **** 	if (sax == NULL)
1392:sxmlc/sxmlc.c **** 		return false;
1393:sxmlc/sxmlc.c **** 
1394:sxmlc/sxmlc.c **** 	sax->start_doc = NULL;
1395:sxmlc/sxmlc.c **** 	sax->start_node = NULL;
1396:sxmlc/sxmlc.c **** 	sax->end_node = NULL;
1397:sxmlc/sxmlc.c **** 	sax->new_text = NULL;
1398:sxmlc/sxmlc.c **** 	sax->on_error = NULL;
1399:sxmlc/sxmlc.c **** 	sax->end_doc = NULL;
1400:sxmlc/sxmlc.c **** 	sax->all_event = NULL;
1401:sxmlc/sxmlc.c **** 
1402:sxmlc/sxmlc.c **** 	return true;
1403:sxmlc/sxmlc.c **** }
1404:sxmlc/sxmlc.c **** 
1405:sxmlc/sxmlc.c **** int DOMXMLDoc_doc_start(SAX_Data* sd)
1406:sxmlc/sxmlc.c **** {
  74              		.loc 1 1406 0
  75              		.cfi_startproc
  76              		@ args = 0, pretend = 0, frame = 0
  77              		@ frame_needed = 0, uses_anonymous_args = 0
  78              		@ link register save eliminated.
  79              	.LVL8:
1407:sxmlc/sxmlc.c **** 	DOM_through_SAX* dom = (DOM_through_SAX*)sd->user;
  80              		.loc 1 1407 0
  81 0000 8368     		ldr	r3, [r0, #8]
  82              	.LVL9:
1408:sxmlc/sxmlc.c **** 
1409:sxmlc/sxmlc.c **** 	dom->current = NULL;
  83              		.loc 1 1409 0
  84 0002 0022     		movs	r2, #0
  85 0004 5A60     		str	r2, [r3, #4]
1410:sxmlc/sxmlc.c **** 	dom->error = PARSE_ERR_NONE;
  86              		.loc 1 1410 0
  87 0006 1A72     		strb	r2, [r3, #8]
1411:sxmlc/sxmlc.c **** 	dom->line_error = 0;
  88              		.loc 1 1411 0
  89 0008 DA60     		str	r2, [r3, #12]
1412:sxmlc/sxmlc.c **** 
1413:sxmlc/sxmlc.c **** 	return true;
1414:sxmlc/sxmlc.c **** }
  90              		.loc 1 1414 0
  91 000a 0120     		movs	r0, #1
  92              	.LVL10:
  93 000c 7047     		bx	lr
  94              		.cfi_endproc
  95              	.LFE46:
  97              		.section	.text.DOMXMLDoc_parse_error,"ax",%progbits
  98              		.align	1
  99              		.global	DOMXMLDoc_parse_error
 100              		.thumb
 101              		.thumb_func
 103              	DOMXMLDoc_parse_error:
 104              	.LFB50:
1415:sxmlc/sxmlc.c **** 
1416:sxmlc/sxmlc.c **** int DOMXMLDoc_node_start(const XMLNode* node, SAX_Data* sd)
1417:sxmlc/sxmlc.c **** {
1418:sxmlc/sxmlc.c **** 	DOM_through_SAX* dom = (DOM_through_SAX*)sd->user;
1419:sxmlc/sxmlc.c **** 	XMLNode* new_node;
1420:sxmlc/sxmlc.c **** 	int i;
1421:sxmlc/sxmlc.c **** 
1422:sxmlc/sxmlc.c **** 	if ((new_node = XMLNode_dup(node, true)) == NULL) goto node_start_err; /* No real need to put 'tru
1423:sxmlc/sxmlc.c **** 	
1424:sxmlc/sxmlc.c **** 	if (dom->current == NULL) {
1425:sxmlc/sxmlc.c **** 		if ((i = _add_node(&dom->doc->nodes, &dom->doc->n_nodes, new_node)) < 0) goto node_start_err;
1426:sxmlc/sxmlc.c **** 
1427:sxmlc/sxmlc.c **** 		if (dom->doc->i_root < 0 && (node->tag_type == TAG_FATHER || node->tag_type == TAG_SELF))
1428:sxmlc/sxmlc.c **** 			dom->doc->i_root = i;
1429:sxmlc/sxmlc.c **** 	} else {
1430:sxmlc/sxmlc.c **** 		if (_add_node(&dom->current->children, &dom->current->n_children, new_node) < 0) goto node_start_
1431:sxmlc/sxmlc.c **** 	}
1432:sxmlc/sxmlc.c **** 
1433:sxmlc/sxmlc.c **** 	new_node->father = dom->current;
1434:sxmlc/sxmlc.c **** 	dom->current = new_node;
1435:sxmlc/sxmlc.c **** 
1436:sxmlc/sxmlc.c **** 	return true;
1437:sxmlc/sxmlc.c **** 
1438:sxmlc/sxmlc.c **** node_start_err:
1439:sxmlc/sxmlc.c **** 	dom->error = PARSE_ERR_MEMORY;
1440:sxmlc/sxmlc.c **** 	dom->line_error = sd->line_num;
1441:sxmlc/sxmlc.c **** 	(void)XMLNode_free(new_node);
1442:sxmlc/sxmlc.c **** 	__free(new_node);
1443:sxmlc/sxmlc.c **** 
1444:sxmlc/sxmlc.c **** 	return false;
1445:sxmlc/sxmlc.c **** }
1446:sxmlc/sxmlc.c **** 
1447:sxmlc/sxmlc.c **** int DOMXMLDoc_node_end(const XMLNode* node, SAX_Data* sd)
1448:sxmlc/sxmlc.c **** {
1449:sxmlc/sxmlc.c **** 	DOM_through_SAX* dom = (DOM_through_SAX*)sd->user;
1450:sxmlc/sxmlc.c **** 
1451:sxmlc/sxmlc.c **** 	if (dom->current == NULL || sx_strcmp(dom->current->tag, node->tag)) {
1452:sxmlc/sxmlc.c **** 		sx_fprintf(stderr, C2SX("%s:%d: ERROR - End tag </%s> was unexpected"), sd->name, sd->line_num, n
1453:sxmlc/sxmlc.c **** 		if (dom->current != NULL)
1454:sxmlc/sxmlc.c **** 			sx_fprintf(stderr, C2SX(" (</%s> was expected)\n"), dom->current->tag);
1455:sxmlc/sxmlc.c **** 		else
1456:sxmlc/sxmlc.c **** 			sx_fprintf(stderr, C2SX(" (no node to end)\n"));
1457:sxmlc/sxmlc.c **** 
1458:sxmlc/sxmlc.c **** 		dom->error = PARSE_ERR_UNEXPECTED_NODE_END;
1459:sxmlc/sxmlc.c **** 		dom->line_error = sd->line_num;
1460:sxmlc/sxmlc.c **** 
1461:sxmlc/sxmlc.c **** 		return false;
1462:sxmlc/sxmlc.c **** 	}
1463:sxmlc/sxmlc.c **** 
1464:sxmlc/sxmlc.c **** 	dom->current = dom->current->father;
1465:sxmlc/sxmlc.c **** 
1466:sxmlc/sxmlc.c **** 	return true;
1467:sxmlc/sxmlc.c **** }
1468:sxmlc/sxmlc.c **** 
1469:sxmlc/sxmlc.c **** int DOMXMLDoc_node_text(SXML_CHAR* text, SAX_Data* sd)
1470:sxmlc/sxmlc.c **** {
1471:sxmlc/sxmlc.c **** 	SXML_CHAR* p = text;
1472:sxmlc/sxmlc.c **** 	DOM_through_SAX* dom = (DOM_through_SAX*)sd->user;
1473:sxmlc/sxmlc.c **** 
1474:sxmlc/sxmlc.c **** 	/* Keep text, even if it is only spaces */
1475:sxmlc/sxmlc.c **** #if 0
1476:sxmlc/sxmlc.c **** 	while(*p != NULC && sx_isspace(*p++)) ;
1477:sxmlc/sxmlc.c **** 	if (*p == NULC) return true; /* Only spaces */
1478:sxmlc/sxmlc.c **** #endif
1479:sxmlc/sxmlc.c **** 
1480:sxmlc/sxmlc.c **** 	/* If there is no current node to add text to, raise an error, except if text is only spaces, in w
1481:sxmlc/sxmlc.c **** 	if (dom->current == NULL) {
1482:sxmlc/sxmlc.c **** 		while(*p != NULC && sx_isspace(*p++)) ;
1483:sxmlc/sxmlc.c **** 		if (*p == NULC) /* Only spaces => probably pretty-printing */
1484:sxmlc/sxmlc.c **** 			return true;
1485:sxmlc/sxmlc.c **** 		dom->error = PARSE_ERR_TEXT_OUTSIDE_NODE;
1486:sxmlc/sxmlc.c **** 		dom->line_error = sd->line_num;
1487:sxmlc/sxmlc.c **** 		return false; /* There is some "real" text => raise an error */
1488:sxmlc/sxmlc.c **** 	}
1489:sxmlc/sxmlc.c **** 
1490:sxmlc/sxmlc.c **** 	if (dom->text_as_nodes) {
1491:sxmlc/sxmlc.c **** 		XMLNode* new_node = XMLNode_allocN(1);
1492:sxmlc/sxmlc.c **** 		if (new_node == NULL || (new_node->text = sx_strdup(text)) == NULL
1493:sxmlc/sxmlc.c **** 			|| _add_node(&dom->current->children, &dom->current->n_children, new_node) < 0) {
1494:sxmlc/sxmlc.c **** 			dom->error = PARSE_ERR_MEMORY;
1495:sxmlc/sxmlc.c **** 			dom->line_error = sd->line_num;
1496:sxmlc/sxmlc.c **** 			(void)XMLNode_free(new_node);
1497:sxmlc/sxmlc.c **** 			__free(new_node);
1498:sxmlc/sxmlc.c **** 			return false;
1499:sxmlc/sxmlc.c **** 		}
1500:sxmlc/sxmlc.c **** 		new_node->tag_type = TAG_TEXT;
1501:sxmlc/sxmlc.c **** 		new_node->father = dom->current;
1502:sxmlc/sxmlc.c **** 		//dom->current->tag_type = TAG_FATHER; // OS: should parent field be forced to be TAG_FATHER? now
1503:sxmlc/sxmlc.c **** 		return true;
1504:sxmlc/sxmlc.c **** 	} else { /* Old behaviour: concatenate text to the previous one */
1505:sxmlc/sxmlc.c **** 		/* 'p' will point at the new text */
1506:sxmlc/sxmlc.c **** 		if (dom->current->text == NULL) {
1507:sxmlc/sxmlc.c **** 			p = sx_strdup(text);
1508:sxmlc/sxmlc.c **** 		} else {
1509:sxmlc/sxmlc.c **** 			p = (SXML_CHAR*)__realloc(dom->current->text, (sx_strlen(dom->current->text) + sx_strlen(text) +
1510:sxmlc/sxmlc.c **** 			if (p != NULL)
1511:sxmlc/sxmlc.c **** 				sx_strcat(p, text);
1512:sxmlc/sxmlc.c **** 		}
1513:sxmlc/sxmlc.c **** 		if (p == NULL) {
1514:sxmlc/sxmlc.c **** 			dom->error = PARSE_ERR_MEMORY;
1515:sxmlc/sxmlc.c **** 			dom->line_error = sd->line_num;
1516:sxmlc/sxmlc.c **** 			return false;
1517:sxmlc/sxmlc.c **** 		}
1518:sxmlc/sxmlc.c **** 		
1519:sxmlc/sxmlc.c **** 		dom->current->text = p;
1520:sxmlc/sxmlc.c **** 	}
1521:sxmlc/sxmlc.c **** 
1522:sxmlc/sxmlc.c **** 	return true;
1523:sxmlc/sxmlc.c **** }
1524:sxmlc/sxmlc.c **** 
1525:sxmlc/sxmlc.c **** int DOMXMLDoc_parse_error(ParseError error_num, int line_number, SAX_Data* sd)
1526:sxmlc/sxmlc.c **** {
 105              		.loc 1 1526 0
 106              		.cfi_startproc
 107              		@ args = 0, pretend = 0, frame = 0
 108              		@ frame_needed = 0, uses_anonymous_args = 0
 109              		@ link register save eliminated.
 110              	.LVL11:
1527:sxmlc/sxmlc.c **** 	DOM_through_SAX* dom = (DOM_through_SAX*)sd->user;
 111              		.loc 1 1527 0
 112 0000 9368     		ldr	r3, [r2, #8]
 113              	.LVL12:
1528:sxmlc/sxmlc.c **** 
1529:sxmlc/sxmlc.c **** 	dom->error = error_num;
 114              		.loc 1 1529 0
 115 0002 1872     		strb	r0, [r3, #8]
1530:sxmlc/sxmlc.c **** 	dom->line_error = line_number;
 116              		.loc 1 1530 0
 117 0004 D960     		str	r1, [r3, #12]
1531:sxmlc/sxmlc.c **** 
1532:sxmlc/sxmlc.c **** 	/* Complete error message will be displayed in 'DOMXMLDoc_doc_end' callback */
1533:sxmlc/sxmlc.c **** 
1534:sxmlc/sxmlc.c **** 	return false; /* Stop on error */
1535:sxmlc/sxmlc.c **** }
 118              		.loc 1 1535 0
 119 0006 0020     		movs	r0, #0
 120              	.LVL13:
 121 0008 7047     		bx	lr
 122              		.cfi_endproc
 123              	.LFE50:
 125              		.section	.text._bgetc,"ax",%progbits
 126              		.align	1
 127              		.global	_bgetc
 128              		.thumb
 129              		.thumb_func
 131              	_bgetc:
 132              	.LFB57:
1536:sxmlc/sxmlc.c **** 
1537:sxmlc/sxmlc.c **** int DOMXMLDoc_doc_end(SAX_Data* sd)
1538:sxmlc/sxmlc.c **** {
1539:sxmlc/sxmlc.c **** 	DOM_through_SAX* dom = (DOM_through_SAX*)sd->user;
1540:sxmlc/sxmlc.c **** 
1541:sxmlc/sxmlc.c **** 	if (dom->error != PARSE_ERR_NONE) {
1542:sxmlc/sxmlc.c **** 		SXML_CHAR* msg;
1543:sxmlc/sxmlc.c **** 
1544:sxmlc/sxmlc.c **** 		switch (dom->error) {
1545:sxmlc/sxmlc.c **** 			case PARSE_ERR_MEMORY:				msg = C2SX("MEMORY"); break;
1546:sxmlc/sxmlc.c **** 			case PARSE_ERR_UNEXPECTED_TAG_END:	msg = C2SX("UNEXPECTED_TAG_END"); break;
1547:sxmlc/sxmlc.c **** 			case PARSE_ERR_SYNTAX:				msg = C2SX("SYNTAX"); break;
1548:sxmlc/sxmlc.c **** 			case PARSE_ERR_EOF:					msg = C2SX("UNEXPECTED_END_OF_FILE"); break;
1549:sxmlc/sxmlc.c **** 			case PARSE_ERR_TEXT_OUTSIDE_NODE:	msg = C2SX("TEXT_OUTSIDE_NODE"); break;
1550:sxmlc/sxmlc.c **** 			case PARSE_ERR_UNEXPECTED_NODE_END:	msg = C2SX("UNEXPECTED_NODE_END"); break;
1551:sxmlc/sxmlc.c **** 			default:							msg = C2SX("UNKNOWN"); break;
1552:sxmlc/sxmlc.c **** 		}
1553:sxmlc/sxmlc.c **** 		sx_fprintf(stderr, C2SX("%s:%d: An error was found (%s), loading aborted...\n"), sd->name, dom->l
1554:sxmlc/sxmlc.c **** 		dom->current = NULL;
1555:sxmlc/sxmlc.c **** 		(void)XMLDoc_free(dom->doc);
1556:sxmlc/sxmlc.c **** 		dom->doc = NULL;
1557:sxmlc/sxmlc.c **** 	}
1558:sxmlc/sxmlc.c **** 
1559:sxmlc/sxmlc.c **** 	return true;
1560:sxmlc/sxmlc.c **** }
1561:sxmlc/sxmlc.c **** 
1562:sxmlc/sxmlc.c **** int SAX_Callbacks_init_DOM(SAX_Callbacks* sax)
1563:sxmlc/sxmlc.c **** {
1564:sxmlc/sxmlc.c **** 	if (sax == NULL)
1565:sxmlc/sxmlc.c **** 		return false;
1566:sxmlc/sxmlc.c **** 
1567:sxmlc/sxmlc.c **** 	sax->start_doc = DOMXMLDoc_doc_start;
1568:sxmlc/sxmlc.c **** 	sax->start_node = DOMXMLDoc_node_start;
1569:sxmlc/sxmlc.c **** 	sax->end_node = DOMXMLDoc_node_end;
1570:sxmlc/sxmlc.c **** 	sax->new_text = DOMXMLDoc_node_text;
1571:sxmlc/sxmlc.c **** 	sax->on_error = DOMXMLDoc_parse_error;
1572:sxmlc/sxmlc.c **** 	sax->end_doc = DOMXMLDoc_doc_end;
1573:sxmlc/sxmlc.c **** 	sax->all_event = NULL;
1574:sxmlc/sxmlc.c **** 
1575:sxmlc/sxmlc.c **** 	return true;
1576:sxmlc/sxmlc.c **** }
1577:sxmlc/sxmlc.c **** 
1578:sxmlc/sxmlc.c **** int XMLDoc_parse_file_SAX(const SXML_CHAR* filename, const SAX_Callbacks* sax, void* user)
1579:sxmlc/sxmlc.c **** {
1580:sxmlc/sxmlc.c **** 	FILE* f;
1581:sxmlc/sxmlc.c **** 	int ret;
1582:sxmlc/sxmlc.c **** 	SAX_Data sd;
1583:sxmlc/sxmlc.c **** 	SXML_CHAR* fmode = 
1584:sxmlc/sxmlc.c **** #ifndef SXMLC_UNICODE
1585:sxmlc/sxmlc.c **** 	C2SX("rt");
1586:sxmlc/sxmlc.c **** #else
1587:sxmlc/sxmlc.c **** 	C2SX("rb"); /* In Unicode, open the file as binary so that further 'fgetwc' read all bytes */
1588:sxmlc/sxmlc.c **** 	BOM_TYPE bom;
1589:sxmlc/sxmlc.c **** #endif
1590:sxmlc/sxmlc.c **** 
1591:sxmlc/sxmlc.c **** 
1592:sxmlc/sxmlc.c **** 	if (sax == NULL || filename == NULL || filename[0] == NULC)
1593:sxmlc/sxmlc.c **** 		return false;
1594:sxmlc/sxmlc.c **** 
1595:sxmlc/sxmlc.c **** 	f = sx_fopen(filename, fmode);
1596:sxmlc/sxmlc.c **** 	if (f == NULL)
1597:sxmlc/sxmlc.c **** 		return false;
1598:sxmlc/sxmlc.c **** 	/* Microsoft' 'ftell' returns invalid position for Unicode text files
1599:sxmlc/sxmlc.c **** 	   (see http://connect.microsoft.com/VisualStudio/feedback/details/369265/ftell-ftell-nolock-incor
1600:sxmlc/sxmlc.c **** 	   However, we're opening the file as binary in Unicode so we don't fall into that case...
1601:sxmlc/sxmlc.c **** 	*/
1602:sxmlc/sxmlc.c **** 	#if defined(SXMLC_UNICODE) && (defined(WIN32) || defined(WIN64))
1603:sxmlc/sxmlc.c **** 	//setvbuf(f, NULL, _IONBF, 0);
1604:sxmlc/sxmlc.c **** 	#endif
1605:sxmlc/sxmlc.c **** 
1606:sxmlc/sxmlc.c **** 	sd.name = (SXML_CHAR*)filename;
1607:sxmlc/sxmlc.c **** 	sd.user = user;
1608:sxmlc/sxmlc.c **** #ifdef SXMLC_UNICODE
1609:sxmlc/sxmlc.c **** 	bom = freadBOM(f, NULL, NULL); /* Skip BOM, if any */
1610:sxmlc/sxmlc.c **** 	/* In Unicode, re-open the file in text-mode if there is no BOM (or UTF-8) as we assume that
1611:sxmlc/sxmlc.c **** 	   the file is "plain" text (i.e. 1 byte = 1 character). If opened in binary mode, 'fgetwc'
1612:sxmlc/sxmlc.c **** 	   would read 2 bytes for 1 character, which would not work on "plain" files. */
1613:sxmlc/sxmlc.c **** 	if (bom == BOM_NONE || bom == BOM_UTF_8) {
1614:sxmlc/sxmlc.c **** 		fclose(f);
1615:sxmlc/sxmlc.c **** 		f = sx_fopen(filename, C2SX("rt"));
1616:sxmlc/sxmlc.c **** 		if (f == NULL)
1617:sxmlc/sxmlc.c **** 			return false;
1618:sxmlc/sxmlc.c **** 		if (bom == BOM_UTF_8)
1619:sxmlc/sxmlc.c **** 			freadBOM(f, NULL, NULL); /* Skip the UTF-8 BOM that was found */
1620:sxmlc/sxmlc.c **** 	}
1621:sxmlc/sxmlc.c **** #endif
1622:sxmlc/sxmlc.c **** 	ret = _parse_data_SAX((void*)f, DATA_SOURCE_FILE, sax, &sd);
1623:sxmlc/sxmlc.c **** 	(void)fclose(f);
1624:sxmlc/sxmlc.c **** 
1625:sxmlc/sxmlc.c **** 	return ret;
1626:sxmlc/sxmlc.c **** }
1627:sxmlc/sxmlc.c **** 
1628:sxmlc/sxmlc.c **** int XMLDoc_parse_buffer_SAX(const SXML_CHAR* buffer, const SXML_CHAR* name, const SAX_Callbacks* sa
1629:sxmlc/sxmlc.c **** {
1630:sxmlc/sxmlc.c **** 	DataSourceBuffer dsb = { buffer, 0 };
1631:sxmlc/sxmlc.c **** 	SAX_Data sd;
1632:sxmlc/sxmlc.c **** 
1633:sxmlc/sxmlc.c **** 	if (sax == NULL || buffer == NULL)
1634:sxmlc/sxmlc.c **** 		return false;
1635:sxmlc/sxmlc.c **** 
1636:sxmlc/sxmlc.c **** 	sd.name = name;
1637:sxmlc/sxmlc.c **** 	sd.user = user;
1638:sxmlc/sxmlc.c **** 	return _parse_data_SAX((void*)&dsb, DATA_SOURCE_BUFFER, sax, &sd);
1639:sxmlc/sxmlc.c **** }
1640:sxmlc/sxmlc.c **** 
1641:sxmlc/sxmlc.c **** int XMLDoc_parse_file_DOM_text_as_nodes(const SXML_CHAR* filename, XMLDoc* doc, int text_as_nodes)
1642:sxmlc/sxmlc.c **** {
1643:sxmlc/sxmlc.c **** 	DOM_through_SAX dom;
1644:sxmlc/sxmlc.c **** 	SAX_Callbacks sax;
1645:sxmlc/sxmlc.c **** 
1646:sxmlc/sxmlc.c **** 	if (doc == NULL || filename == NULL || filename[0] == NULC || doc->init_value != XML_INIT_DONE)
1647:sxmlc/sxmlc.c **** 		return false;
1648:sxmlc/sxmlc.c **** 
1649:sxmlc/sxmlc.c **** 	sx_strncpy(doc->filename, filename, SXMLC_MAX_PATH - 1);
1650:sxmlc/sxmlc.c **** 	doc->filename[SXMLC_MAX_PATH - 1] = NULC;
1651:sxmlc/sxmlc.c **** 
1652:sxmlc/sxmlc.c **** 	/* Read potential BOM on file, only when unicode is defined */
1653:sxmlc/sxmlc.c **** #ifdef SXMLC_UNICODE
1654:sxmlc/sxmlc.c **** 	{
1655:sxmlc/sxmlc.c **** 		/* In Unicode, open the file as binary so that further 'fgetwc' read all bytes */
1656:sxmlc/sxmlc.c **** 		FILE* f = sx_fopen(filename, C2SX("rb"));
1657:sxmlc/sxmlc.c **** 		if (f != NULL) {
1658:sxmlc/sxmlc.c **** 			#if defined(SXMLC_UNICODE) && (defined(WIN32) || defined(WIN64))
1659:sxmlc/sxmlc.c **** 			//setvbuf(f, NULL, _IONBF, 0);
1660:sxmlc/sxmlc.c **** 			#endif
1661:sxmlc/sxmlc.c **** 			doc->bom_type = freadBOM(f, doc->bom, &doc->sz_bom);
1662:sxmlc/sxmlc.c **** 			fclose(f);
1663:sxmlc/sxmlc.c **** 		}
1664:sxmlc/sxmlc.c **** 	}
1665:sxmlc/sxmlc.c **** #endif
1666:sxmlc/sxmlc.c **** 
1667:sxmlc/sxmlc.c **** 	dom.doc = doc;
1668:sxmlc/sxmlc.c **** 	dom.current = NULL;
1669:sxmlc/sxmlc.c **** 	dom.text_as_nodes = text_as_nodes;
1670:sxmlc/sxmlc.c **** 	SAX_Callbacks_init_DOM(&sax);
1671:sxmlc/sxmlc.c **** 
1672:sxmlc/sxmlc.c **** 	if (!XMLDoc_parse_file_SAX(filename, &sax, &dom)) {
1673:sxmlc/sxmlc.c **** 		(void)XMLDoc_free(doc);
1674:sxmlc/sxmlc.c **** 		dom.doc = NULL;
1675:sxmlc/sxmlc.c **** 		return false;
1676:sxmlc/sxmlc.c **** 	}
1677:sxmlc/sxmlc.c **** 
1678:sxmlc/sxmlc.c **** 	return true;
1679:sxmlc/sxmlc.c **** }
1680:sxmlc/sxmlc.c **** 
1681:sxmlc/sxmlc.c **** int XMLDoc_parse_buffer_DOM_text_as_nodes(const SXML_CHAR* buffer, const SXML_CHAR* name, XMLDoc* d
1682:sxmlc/sxmlc.c **** {
1683:sxmlc/sxmlc.c **** 	DOM_through_SAX dom;
1684:sxmlc/sxmlc.c **** 	SAX_Callbacks sax;
1685:sxmlc/sxmlc.c **** 
1686:sxmlc/sxmlc.c **** 	if (doc == NULL || buffer == NULL || doc->init_value != XML_INIT_DONE)
1687:sxmlc/sxmlc.c **** 		return false;
1688:sxmlc/sxmlc.c **** 
1689:sxmlc/sxmlc.c **** 	dom.doc = doc;
1690:sxmlc/sxmlc.c **** 	dom.current = NULL;
1691:sxmlc/sxmlc.c **** 	dom.text_as_nodes = text_as_nodes;
1692:sxmlc/sxmlc.c **** 	SAX_Callbacks_init_DOM(&sax);
1693:sxmlc/sxmlc.c **** 
1694:sxmlc/sxmlc.c **** 	return XMLDoc_parse_buffer_SAX(buffer, name, &sax, &dom) ? true : XMLDoc_free(doc);
1695:sxmlc/sxmlc.c **** }
1696:sxmlc/sxmlc.c **** 
1697:sxmlc/sxmlc.c **** 
1698:sxmlc/sxmlc.c **** 
1699:sxmlc/sxmlc.c **** /* --- Utility functions (ex sxmlutils.c) --- */
1700:sxmlc/sxmlc.c **** 
1701:sxmlc/sxmlc.c **** #ifdef DBG_MEM
1702:sxmlc/sxmlc.c **** static int nb_alloc = 0, nb_free = 0;
1703:sxmlc/sxmlc.c **** 
1704:sxmlc/sxmlc.c **** void* __malloc(size_t sz)
1705:sxmlc/sxmlc.c **** {
1706:sxmlc/sxmlc.c **** 	void* p = malloc(sz);
1707:sxmlc/sxmlc.c **** 	if (p != NULL)
1708:sxmlc/sxmlc.c **** 		nb_alloc++;
1709:sxmlc/sxmlc.c **** 	printf("0x%x: MALLOC (%d) - NA %d - NF %d = %d\n", p, sz, nb_alloc, nb_free, nb_alloc - nb_free);
1710:sxmlc/sxmlc.c **** 	return p;
1711:sxmlc/sxmlc.c **** }
1712:sxmlc/sxmlc.c **** 
1713:sxmlc/sxmlc.c **** void* __calloc(size_t count, size_t sz)
1714:sxmlc/sxmlc.c **** {
1715:sxmlc/sxmlc.c **** 	void* p = calloc(count, sz);
1716:sxmlc/sxmlc.c **** 	if (p != NULL)
1717:sxmlc/sxmlc.c **** 		nb_alloc++;
1718:sxmlc/sxmlc.c **** 	printf("0x%x: CALLOC (%d, %d) - NA %d - NF %d = %d\n", p, count, sz, nb_alloc, nb_free, nb_alloc -
1719:sxmlc/sxmlc.c **** 	return p;
1720:sxmlc/sxmlc.c **** }
1721:sxmlc/sxmlc.c **** 
1722:sxmlc/sxmlc.c **** void* __realloc(void* mem, size_t sz)
1723:sxmlc/sxmlc.c **** {
1724:sxmlc/sxmlc.c **** 	void* p = realloc(mem, sz);
1725:sxmlc/sxmlc.c **** 	if (mem == NULL && p != NULL)
1726:sxmlc/sxmlc.c **** 		nb_alloc++;
1727:sxmlc/sxmlc.c **** 	else if (mem != NULL && sz == 0)
1728:sxmlc/sxmlc.c **** 		nb_free++;
1729:sxmlc/sxmlc.c **** 	printf("0x%x: REALLOC 0x%x (%d)", p, mem, sz);
1730:sxmlc/sxmlc.c **** 	if (mem == NULL)
1731:sxmlc/sxmlc.c **** 		printf(" - NA %d - NF %d = %d", nb_alloc, nb_free, nb_alloc - nb_free);
1732:sxmlc/sxmlc.c **** 	printf("\n");
1733:sxmlc/sxmlc.c **** 	return p;
1734:sxmlc/sxmlc.c **** }
1735:sxmlc/sxmlc.c **** 
1736:sxmlc/sxmlc.c **** void __free(void* mem)
1737:sxmlc/sxmlc.c **** {
1738:sxmlc/sxmlc.c **** 	nb_free++;
1739:sxmlc/sxmlc.c **** 	printf("0x%x: FREE - NA %d - NF %d = %d\n", mem, nb_alloc, nb_free, nb_alloc - nb_free);
1740:sxmlc/sxmlc.c **** 	free(mem);
1741:sxmlc/sxmlc.c **** }
1742:sxmlc/sxmlc.c **** 
1743:sxmlc/sxmlc.c **** char* __sx_strdup(const char* s)
1744:sxmlc/sxmlc.c **** {
1745:sxmlc/sxmlc.c **** /* Mimic the behavior of sx_strdup(), as we can't use it directly here: DBG_MEM is defined
1746:sxmlc/sxmlc.c ****    and sx_strdup is this function! (bug #5) */
1747:sxmlc/sxmlc.c **** #ifdef SXMLC_UNICODE
1748:sxmlc/sxmlc.c **** 	char* p = wcsdup(s);
1749:sxmlc/sxmlc.c **** #else
1750:sxmlc/sxmlc.c **** 	char* p = strdup(s);
1751:sxmlc/sxmlc.c **** #endif
1752:sxmlc/sxmlc.c **** 	if (p != NULL)
1753:sxmlc/sxmlc.c **** 		nb_alloc++;
1754:sxmlc/sxmlc.c **** 	printf("0x%x: STRDUP (%d) - NA %d - NF %d = %d\n", p, sx_strlen(s), nb_alloc, nb_free, nb_alloc - 
1755:sxmlc/sxmlc.c **** 	return p;
1756:sxmlc/sxmlc.c **** }
1757:sxmlc/sxmlc.c **** #endif
1758:sxmlc/sxmlc.c **** 
1759:sxmlc/sxmlc.c **** /* Dictionary of special characters and their HTML equivalent */
1760:sxmlc/sxmlc.c **** static struct _html_special_dict {
1761:sxmlc/sxmlc.c **** 	SXML_CHAR chr;		/* Original character */
1762:sxmlc/sxmlc.c **** 	SXML_CHAR* html;	/* Equivalent HTML string */
1763:sxmlc/sxmlc.c **** 	int html_len;	/* 'sx_strlen(html)' */
1764:sxmlc/sxmlc.c **** } HTML_SPECIAL_DICT[] = {
1765:sxmlc/sxmlc.c **** 	{ C2SX('<'), C2SX("&lt;"), 4 },
1766:sxmlc/sxmlc.c **** 	{ C2SX('>'), C2SX("&gt;"), 4 },
1767:sxmlc/sxmlc.c **** 	{ C2SX('"'), C2SX("&quot;"), 6 },
1768:sxmlc/sxmlc.c **** 	{ C2SX('\''), C2SX("&apos;"), 6 },
1769:sxmlc/sxmlc.c **** 	{ C2SX('&'), C2SX("&amp;"), 5 },
1770:sxmlc/sxmlc.c **** 	{ NULC, NULL, 0 }, /* Terminator */
1771:sxmlc/sxmlc.c **** };
1772:sxmlc/sxmlc.c **** 
1773:sxmlc/sxmlc.c **** int _bgetc(DataSourceBuffer* ds)
1774:sxmlc/sxmlc.c **** {
 133              		.loc 1 1774 0
 134              		.cfi_startproc
 135              		@ args = 0, pretend = 0, frame = 0
 136              		@ frame_needed = 0, uses_anonymous_args = 0
 137              		@ link register save eliminated.
 138              	.LVL14:
1775:sxmlc/sxmlc.c **** 	if (ds == NULL || ds->buf[ds->cur_pos] == NULC)
 139              		.loc 1 1775 0
 140 0000 38B1     		cbz	r0, .L14
 141              		.loc 1 1775 0 is_stmt 0 discriminator 1
 142 0002 90E80C00 		ldmia	r0, {r2, r3}
 143 0006 D15C     		ldrb	r1, [r2, r3]	@ zero_extendqisi2
 144 0008 19B1     		cbz	r1, .L14
1776:sxmlc/sxmlc.c **** 		return EOF;
1777:sxmlc/sxmlc.c **** 	
1778:sxmlc/sxmlc.c **** 	return (int)(ds->buf[ds->cur_pos++]);
 145              		.loc 1 1778 0 is_stmt 1
 146 000a 591C     		adds	r1, r3, #1
 147 000c 4160     		str	r1, [r0, #4]
 148 000e D05C     		ldrb	r0, [r2, r3]	@ zero_extendqisi2
 149              	.LVL15:
 150 0010 7047     		bx	lr
 151              	.LVL16:
 152              	.L14:
1776:sxmlc/sxmlc.c **** 		return EOF;
 153              		.loc 1 1776 0
 154 0012 4FF0FF30 		mov	r0, #-1
 155              	.LVL17:
1779:sxmlc/sxmlc.c **** }
 156              		.loc 1 1779 0
 157 0016 7047     		bx	lr
 158              		.cfi_endproc
 159              	.LFE57:
 161              		.section	.text._beob,"ax",%progbits
 162              		.align	1
 163              		.global	_beob
 164              		.thumb
 165              		.thumb_func
 167              	_beob:
 168              	.LFB58:
1780:sxmlc/sxmlc.c **** 
1781:sxmlc/sxmlc.c **** int _beob(DataSourceBuffer* ds)
1782:sxmlc/sxmlc.c **** {
 169              		.loc 1 1782 0
 170              		.cfi_startproc
 171              		@ args = 0, pretend = 0, frame = 0
 172              		@ frame_needed = 0, uses_anonymous_args = 0
 173              		@ link register save eliminated.
 174              	.LVL18:
1783:sxmlc/sxmlc.c **** 
1784:sxmlc/sxmlc.c **** 	if (ds == NULL || ds->buf[ds->cur_pos] == NULC)
 175              		.loc 1 1784 0
 176 0000 38B1     		cbz	r0, .L17
 177              		.loc 1 1784 0 is_stmt 0 discriminator 1
 178 0002 90E80C00 		ldmia	r0, {r2, r3}
 179 0006 D05C     		ldrb	r0, [r2, r3]	@ zero_extendqisi2
 180              	.LVL19:
 181 0008 D0F10100 		rsbs	r0, r0, #1
 182 000c 38BF     		it	cc
 183 000e 0020     		movcc	r0, #0
 184 0010 7047     		bx	lr
 185              	.LVL20:
 186              	.L17:
1785:sxmlc/sxmlc.c **** 		return true;
 187              		.loc 1 1785 0 is_stmt 1
 188 0012 0120     		movs	r0, #1
 189              	.LVL21:
1786:sxmlc/sxmlc.c **** 
1787:sxmlc/sxmlc.c **** 	return false;
1788:sxmlc/sxmlc.c **** }
 190              		.loc 1 1788 0
 191 0014 7047     		bx	lr
 192              		.cfi_endproc
 193              	.LFE58:
 195              		.section	.text._add_node,"ax",%progbits
 196              		.align	1
 197              		.thumb
 198              		.thumb_func
 200              	_add_node:
 201              	.LFB4:
 164:sxmlc/sxmlc.c **** {
 202              		.loc 1 164 0
 203              		.cfi_startproc
 204              		@ args = 0, pretend = 0, frame = 0
 205              		@ frame_needed = 0, uses_anonymous_args = 0
 206              	.LVL22:
 207 0000 70B5     		push	{r4, r5, r6, lr}
 208              		.cfi_def_cfa_offset 16
 209              		.cfi_offset 4, -16
 210              		.cfi_offset 5, -12
 211              		.cfi_offset 6, -8
 212              		.cfi_offset 14, -4
 164:sxmlc/sxmlc.c **** {
 213              		.loc 1 164 0
 214 0002 0C46     		mov	r4, r1
 165:sxmlc/sxmlc.c **** 	XMLNode** pt = (XMLNode**)__realloc(*children_array, (*len_array+1) * sizeof(XMLNode*));
 215              		.loc 1 165 0
 216 0004 0968     		ldr	r1, [r1]
 217              	.LVL23:
 164:sxmlc/sxmlc.c **** {
 218              		.loc 1 164 0
 219 0006 0546     		mov	r5, r0
 165:sxmlc/sxmlc.c **** 	XMLNode** pt = (XMLNode**)__realloc(*children_array, (*len_array+1) * sizeof(XMLNode*));
 220              		.loc 1 165 0
 221 0008 0131     		adds	r1, r1, #1
 222 000a 8900     		lsls	r1, r1, #2
 223 000c 0068     		ldr	r0, [r0]
 224              	.LVL24:
 164:sxmlc/sxmlc.c **** {
 225              		.loc 1 164 0
 226 000e 1646     		mov	r6, r2
 165:sxmlc/sxmlc.c **** 	XMLNode** pt = (XMLNode**)__realloc(*children_array, (*len_array+1) * sizeof(XMLNode*));
 227              		.loc 1 165 0
 228 0010 FFF7FEFF 		bl	realloc
 229              	.LVL25:
 167:sxmlc/sxmlc.c **** 	if (pt == NULL)
 230              		.loc 1 167 0
 231 0014 0146     		mov	r1, r0
 232 0016 30B1     		cbz	r0, .L20
 170:sxmlc/sxmlc.c **** 	pt[*len_array] = node;
 233              		.loc 1 170 0
 234 0018 2068     		ldr	r0, [r4]
 235              	.LVL26:
 173:sxmlc/sxmlc.c **** 	return (*len_array)++;
 236              		.loc 1 173 0
 237 001a 421C     		adds	r2, r0, #1
 170:sxmlc/sxmlc.c **** 	pt[*len_array] = node;
 238              		.loc 1 170 0
 239 001c 41F82060 		str	r6, [r1, r0, lsl #2]
 171:sxmlc/sxmlc.c **** 	*children_array = pt;
 240              		.loc 1 171 0
 241 0020 2960     		str	r1, [r5]
 173:sxmlc/sxmlc.c **** 	return (*len_array)++;
 242              		.loc 1 173 0
 243 0022 2260     		str	r2, [r4]
 244 0024 70BD     		pop	{r4, r5, r6, pc}
 245              	.LVL27:
 246              	.L20:
 168:sxmlc/sxmlc.c **** 		return -1;
 247              		.loc 1 168 0
 248 0026 4FF0FF30 		mov	r0, #-1
 249              	.LVL28:
 174:sxmlc/sxmlc.c **** }
 250              		.loc 1 174 0
 251 002a 70BD     		pop	{r4, r5, r6, pc}
 252              		.cfi_endproc
 253              	.LFE4:
 255              		.section	.text._parse_special_tag,"ax",%progbits
 256              		.align	1
 257              		.thumb
 258              		.thumb_func
 260              	_parse_special_tag:
 261              	.LFB42:
1076:sxmlc/sxmlc.c **** {
 262              		.loc 1 1076 0
 263              		.cfi_startproc
 264              		@ args = 0, pretend = 0, frame = 0
 265              		@ frame_needed = 0, uses_anonymous_args = 0
 266              	.LVL29:
 267 0000 2DE9F047 		push	{r4, r5, r6, r7, r8, r9, r10, lr}
 268              		.cfi_def_cfa_offset 32
 269              		.cfi_offset 4, -32
 270              		.cfi_offset 5, -28
 271              		.cfi_offset 6, -24
 272              		.cfi_offset 7, -20
 273              		.cfi_offset 8, -16
 274              		.cfi_offset 9, -12
 275              		.cfi_offset 10, -8
 276              		.cfi_offset 14, -4
1077:sxmlc/sxmlc.c **** 	if (sx_strncmp(str, tag->start, tag->len_start))
 277              		.loc 1 1077 0
 278 0004 9768     		ldr	r7, [r2, #8]
1076:sxmlc/sxmlc.c **** {
 279              		.loc 1 1076 0
 280 0006 0E46     		mov	r6, r1
 281 0008 1446     		mov	r4, r2
1077:sxmlc/sxmlc.c **** 	if (sx_strncmp(str, tag->start, tag->len_start))
 282              		.loc 1 1077 0
 283 000a 5168     		ldr	r1, [r2, #4]
 284              	.LVL30:
 285 000c 3A46     		mov	r2, r7
 286              	.LVL31:
1076:sxmlc/sxmlc.c **** {
 287              		.loc 1 1076 0
 288 000e 8246     		mov	r10, r0
 289 0010 1D46     		mov	r5, r3
1077:sxmlc/sxmlc.c **** 	if (sx_strncmp(str, tag->start, tag->len_start))
 290              		.loc 1 1077 0
 291 0012 FFF7FEFF 		bl	strncmp
 292              	.LVL32:
 293 0016 08B1     		cbz	r0, .L22
 294              	.L24:
1078:sxmlc/sxmlc.c **** 		return TAG_NONE;
 295              		.loc 1 1078 0
 296 0018 0020     		movs	r0, #0
 297 001a 24E0     		b	.L23
 298              	.L22:
1080:sxmlc/sxmlc.c **** 	if (sx_strncmp(str + len - tag->len_end, tag->end, tag->len_end)) /* There probably is a '>' insid
 299              		.loc 1 1080 0
 300 001c D4F81080 		ldr	r8, [r4, #16]
 301 0020 E168     		ldr	r1, [r4, #12]
 302 0022 C8EB0600 		rsb	r0, r8, r6
 303 0026 5044     		add	r0, r0, r10
 304 0028 4246     		mov	r2, r8
 305 002a FFF7FEFF 		bl	strncmp
 306              	.LVL33:
 307 002e 8146     		mov	r9, r0
 308 0030 C0B9     		cbnz	r0, .L25
1083:sxmlc/sxmlc.c **** 	node->tag = (SXML_CHAR*)__malloc((len - tag->len_start - tag->len_end + 1)*sizeof(SXML_CHAR));
 309              		.loc 1 1083 0
 310 0032 F31B     		subs	r3, r6, r7
 311 0034 C8EB0308 		rsb	r8, r8, r3
 312 0038 08F10100 		add	r0, r8, #1
 313 003c FFF7FEFF 		bl	malloc
 314              	.LVL34:
 315 0040 2860     		str	r0, [r5]
1084:sxmlc/sxmlc.c **** 	if (node->tag == NULL)
 316              		.loc 1 1084 0
 317 0042 0028     		cmp	r0, #0
 318 0044 E8D0     		beq	.L24
1086:sxmlc/sxmlc.c **** 	sx_strncpy(node->tag, str + tag->len_start, len - tag->len_start - tag->len_end);
 319              		.loc 1 1086 0
 320 0046 0AEB0701 		add	r1, r10, r7
 321 004a 4246     		mov	r2, r8
 322 004c FFF7FEFF 		bl	strncpy
 323              	.LVL35:
1087:sxmlc/sxmlc.c **** 	node->tag[len - tag->len_start - tag->len_end] = NULC;
 324              		.loc 1 1087 0
 325 0050 A368     		ldr	r3, [r4, #8]
 326 0052 F61A     		subs	r6, r6, r3
 327              	.LVL36:
 328 0054 2369     		ldr	r3, [r4, #16]
 329 0056 F61A     		subs	r6, r6, r3
 330 0058 2B68     		ldr	r3, [r5]
 331 005a 03F80690 		strb	r9, [r3, r6]
1088:sxmlc/sxmlc.c **** 	node->tag_type = tag->tag_type;
 332              		.loc 1 1088 0
 333 005e 2078     		ldrb	r0, [r4]	@ zero_extendqisi2
 334 0060 2877     		strb	r0, [r5, #28]
1090:sxmlc/sxmlc.c **** 	return node->tag_type;
 335              		.loc 1 1090 0
 336 0062 00E0     		b	.L23
 337              	.LVL37:
 338              	.L25:
1081:sxmlc/sxmlc.c **** 		return TAG_PARTIAL;
 339              		.loc 1 1081 0
 340 0064 0120     		movs	r0, #1
 341              	.LVL38:
 342              	.L23:
1091:sxmlc/sxmlc.c **** }
 343              		.loc 1 1091 0
 344 0066 40B2     		sxtb	r0, r0
 345 0068 BDE8F087 		pop	{r4, r5, r6, r7, r8, r9, r10, pc}
 346              		.cfi_endproc
 347              	.LFE42:
 349              		.section	.text.DOMXMLDoc_node_end,"ax",%progbits
 350              		.align	1
 351              		.global	DOMXMLDoc_node_end
 352              		.thumb
 353              		.thumb_func
 355              	DOMXMLDoc_node_end:
 356              	.LFB48:
1448:sxmlc/sxmlc.c **** {
 357              		.loc 1 1448 0
 358              		.cfi_startproc
 359              		@ args = 0, pretend = 0, frame = 0
 360              		@ frame_needed = 0, uses_anonymous_args = 0
 361              	.LVL39:
 362 0000 F7B5     		push	{r0, r1, r2, r4, r5, r6, r7, lr}
 363              		.cfi_def_cfa_offset 32
 364              		.cfi_offset 0, -32
 365              		.cfi_offset 1, -28
 366              		.cfi_offset 2, -24
 367              		.cfi_offset 4, -20
 368              		.cfi_offset 5, -16
 369              		.cfi_offset 6, -12
 370              		.cfi_offset 7, -8
 371              		.cfi_offset 14, -4
1449:sxmlc/sxmlc.c **** 	DOM_through_SAX* dom = (DOM_through_SAX*)sd->user;
 372              		.loc 1 1449 0
 373 0002 8C68     		ldr	r4, [r1, #8]
 374              	.LVL40:
1448:sxmlc/sxmlc.c **** {
 375              		.loc 1 1448 0
 376 0004 0746     		mov	r7, r0
1451:sxmlc/sxmlc.c **** 	if (dom->current == NULL || sx_strcmp(dom->current->tag, node->tag)) {
 377              		.loc 1 1451 0
 378 0006 6668     		ldr	r6, [r4, #4]
1448:sxmlc/sxmlc.c **** {
 379              		.loc 1 1448 0
 380 0008 0D46     		mov	r5, r1
1451:sxmlc/sxmlc.c **** 	if (dom->current == NULL || sx_strcmp(dom->current->tag, node->tag)) {
 381              		.loc 1 1451 0
 382 000a 26B1     		cbz	r6, .L30
1451:sxmlc/sxmlc.c **** 	if (dom->current == NULL || sx_strcmp(dom->current->tag, node->tag)) {
 383              		.loc 1 1451 0 is_stmt 0 discriminator 1
 384 000c 3068     		ldr	r0, [r6]
 385              	.LVL41:
 386 000e 3968     		ldr	r1, [r7]
 387              	.LVL42:
 388 0010 FFF7FEFF 		bl	strcmp
 389              	.LVL43:
 390 0014 E8B1     		cbz	r0, .L31
 391              	.L30:
1452:sxmlc/sxmlc.c **** 		sx_fprintf(stderr, C2SX("%s:%d: ERROR - End tag </%s> was unexpected"), sd->name, sd->line_num, n
 392              		.loc 1 1452 0 is_stmt 1
 393 0016 114E     		ldr	r6, .L38
 394 0018 3A68     		ldr	r2, [r7]
 395 001a 3368     		ldr	r3, [r6]
 396 001c 0092     		str	r2, [sp]
 397 001e D868     		ldr	r0, [r3, #12]
 398 0020 0F49     		ldr	r1, .L38+4
 399 0022 95E80C00 		ldmia	r5, {r2, r3}
 400 0026 FFF7FEFF 		bl	fprintf
 401              	.LVL44:
1453:sxmlc/sxmlc.c **** 		if (dom->current != NULL)
 402              		.loc 1 1453 0
 403 002a 6368     		ldr	r3, [r4, #4]
 404 002c 33B1     		cbz	r3, .L32
1454:sxmlc/sxmlc.c **** 			sx_fprintf(stderr, C2SX(" (</%s> was expected)\n"), dom->current->tag);
 405              		.loc 1 1454 0
 406 002e 3268     		ldr	r2, [r6]
 407 0030 0C49     		ldr	r1, .L38+8
 408 0032 D068     		ldr	r0, [r2, #12]
 409 0034 1A68     		ldr	r2, [r3]
 410 0036 FFF7FEFF 		bl	fprintf
 411              	.LVL45:
 412 003a 04E0     		b	.L33
 413              	.L32:
1456:sxmlc/sxmlc.c **** 			sx_fprintf(stderr, C2SX(" (no node to end)\n"));
 414              		.loc 1 1456 0
 415 003c 3368     		ldr	r3, [r6]
 416 003e 0A48     		ldr	r0, .L38+12
 417 0040 D968     		ldr	r1, [r3, #12]
 418 0042 FFF7FEFF 		bl	fputs
 419              	.LVL46:
 420              	.L33:
1458:sxmlc/sxmlc.c **** 		dom->error = PARSE_ERR_UNEXPECTED_NODE_END;
 421              		.loc 1 1458 0
 422 0046 FA23     		movs	r3, #250
 423 0048 2372     		strb	r3, [r4, #8]
1459:sxmlc/sxmlc.c **** 		dom->line_error = sd->line_num;
 424              		.loc 1 1459 0
 425 004a 6B68     		ldr	r3, [r5, #4]
1461:sxmlc/sxmlc.c **** 		return false;
 426              		.loc 1 1461 0
 427 004c 0020     		movs	r0, #0
1459:sxmlc/sxmlc.c **** 		dom->line_error = sd->line_num;
 428              		.loc 1 1459 0
 429 004e E360     		str	r3, [r4, #12]
1461:sxmlc/sxmlc.c **** 		return false;
 430              		.loc 1 1461 0
 431 0050 02E0     		b	.L34
 432              	.L31:
1464:sxmlc/sxmlc.c **** 	dom->current = dom->current->father;
 433              		.loc 1 1464 0
 434 0052 3369     		ldr	r3, [r6, #16]
1466:sxmlc/sxmlc.c **** 	return true;
 435              		.loc 1 1466 0
 436 0054 0120     		movs	r0, #1
1464:sxmlc/sxmlc.c **** 	dom->current = dom->current->father;
 437              		.loc 1 1464 0
 438 0056 6360     		str	r3, [r4, #4]
 439              	.L34:
1467:sxmlc/sxmlc.c **** }
 440              		.loc 1 1467 0
 441 0058 03B0     		add	sp, sp, #12
 442              		@ sp needed
 443 005a F0BD     		pop	{r4, r5, r6, r7, pc}
 444              	.LVL47:
 445              	.L39:
 446              		.align	2
 447              	.L38:
 448 005c 00000000 		.word	_impure_ptr
 449 0060 00000000 		.word	.LC0
 450 0064 2C000000 		.word	.LC1
 451 0068 43000000 		.word	.LC2
 452              		.cfi_endproc
 453              	.LFE48:
 455              		.section	.text._print_formatting.isra.0,"ax",%progbits
 456              		.align	1
 457              		.thumb
 458              		.thumb_func
 460              	_print_formatting.isra.0:
 461              	.LFB70:
 840:sxmlc/sxmlc.c **** static int _print_formatting(const XMLNode* node, FILE* f, const SXML_CHAR* tag_sep, const SXML_CHA
 462              		.loc 1 840 0
 463              		.cfi_startproc
 464              		@ args = 8, pretend = 0, frame = 0
 465              		@ frame_needed = 0, uses_anonymous_args = 0
 466              	.LVL48:
 467 0000 2DE9F843 		push	{r3, r4, r5, r6, r7, r8, r9, lr}
 468              		.cfi_def_cfa_offset 32
 469              		.cfi_offset 3, -32
 470              		.cfi_offset 4, -28
 471              		.cfi_offset 5, -24
 472              		.cfi_offset 6, -20
 473              		.cfi_offset 7, -16
 474              		.cfi_offset 8, -12
 475              		.cfi_offset 9, -8
 476              		.cfi_offset 14, -4
 840:sxmlc/sxmlc.c **** static int _print_formatting(const XMLNode* node, FILE* f, const SXML_CHAR* tag_sep, const SXML_CHA
 477              		.loc 1 840 0
 478 0004 DDF82080 		ldr	r8, [sp, #32]
 479 0008 8146     		mov	r9, r0
 480 000a 0F46     		mov	r7, r1
 481 000c 1D46     		mov	r5, r3
 482 000e 099C     		ldr	r4, [sp, #36]
 842:sxmlc/sxmlc.c **** 	if (tag_sep != NULL) {
 483              		.loc 1 842 0
 484 0010 1646     		mov	r6, r2
 485 0012 4AB1     		cbz	r2, .L41
 843:sxmlc/sxmlc.c **** 		sx_fprintf(f, tag_sep);
 486              		.loc 1 843 0
 487 0014 0846     		mov	r0, r1
 488 0016 1146     		mov	r1, r2
 489              	.LVL49:
 490 0018 FFF7FEFF 		bl	fprintf
 491              	.LVL50:
 844:sxmlc/sxmlc.c **** 		cur_sz_line = _count_new_char_line(tag_sep, nb_char_tab, cur_sz_line);
 492              		.loc 1 844 0
 493 001c 2246     		mov	r2, r4
 494 001e 3046     		mov	r0, r6
 495 0020 4146     		mov	r1, r8
 496 0022 FFF7FEFF 		bl	_count_new_char_line
 497              	.LVL51:
 498 0026 0446     		mov	r4, r0
 499              	.LVL52:
 500              	.L41:
 846:sxmlc/sxmlc.c **** 	if (child_sep != NULL) {
 501              		.loc 1 846 0
 502 0028 75B1     		cbz	r5, .L42
 847:sxmlc/sxmlc.c **** 		for (node = node->father; node != NULL; node = node->father) {
 503              		.loc 1 847 0
 504 002a D9F80060 		ldr	r6, [r9]
 505              	.LVL53:
 506              	.L43:
 507 002e 5EB1     		cbz	r6, .L42
 848:sxmlc/sxmlc.c **** 			sx_fprintf(f, child_sep);
 508              		.loc 1 848 0
 509 0030 2946     		mov	r1, r5
 510 0032 3846     		mov	r0, r7
 511 0034 FFF7FEFF 		bl	fprintf
 512              	.LVL54:
 849:sxmlc/sxmlc.c **** 			cur_sz_line = _count_new_char_line(child_sep, nb_char_tab, cur_sz_line);
 513              		.loc 1 849 0
 514 0038 2246     		mov	r2, r4
 515 003a 2846     		mov	r0, r5
 516 003c 4146     		mov	r1, r8
 517 003e FFF7FEFF 		bl	_count_new_char_line
 518              	.LVL55:
 847:sxmlc/sxmlc.c **** 		for (node = node->father; node != NULL; node = node->father) {
 519              		.loc 1 847 0
 520 0042 3669     		ldr	r6, [r6, #16]
 521              	.LVL56:
 849:sxmlc/sxmlc.c **** 			cur_sz_line = _count_new_char_line(child_sep, nb_char_tab, cur_sz_line);
 522              		.loc 1 849 0
 523 0044 0446     		mov	r4, r0
 524              	.LVL57:
 525 0046 F2E7     		b	.L43
 526              	.LVL58:
 527              	.L42:
 854:sxmlc/sxmlc.c **** }
 528              		.loc 1 854 0
 529 0048 2046     		mov	r0, r4
 530 004a BDE8F883 		pop	{r3, r4, r5, r6, r7, r8, r9, pc}
 531              		.cfi_endproc
 532              	.LFE70:
 534              		.section	.text.XML_register_user_tag,"ax",%progbits
 535              		.align	1
 536              		.global	XML_register_user_tag
 537              		.thumb
 538              		.thumb_func
 540              	XML_register_user_tag:
 541              	.LFB0:
  82:sxmlc/sxmlc.c **** {
 542              		.loc 1 82 0
 543              		.cfi_startproc
 544              		@ args = 0, pretend = 0, frame = 8
 545              		@ frame_needed = 0, uses_anonymous_args = 0
 546              	.LVL59:
  86:sxmlc/sxmlc.c **** 	if (tag_type < TAG_USER)
 547              		.loc 1 86 0
 548 0000 6328     		cmp	r0, #99
  82:sxmlc/sxmlc.c **** {
 549              		.loc 1 82 0
 550 0002 2DE9F74F 		push	{r0, r1, r2, r4, r5, r6, r7, r8, r9, r10, fp, lr}
 551              		.cfi_def_cfa_offset 48
 552              		.cfi_offset 0, -48
 553              		.cfi_offset 1, -44
 554              		.cfi_offset 2, -40
 555              		.cfi_offset 4, -36
 556              		.cfi_offset 5, -32
 557              		.cfi_offset 6, -28
 558              		.cfi_offset 7, -24
 559              		.cfi_offset 8, -20
 560              		.cfi_offset 9, -16
 561              		.cfi_offset 10, -12
 562              		.cfi_offset 11, -8
 563              		.cfi_offset 14, -4
  82:sxmlc/sxmlc.c **** {
 564              		.loc 1 82 0
 565 0006 8346     		mov	fp, r0
 566 0008 0C46     		mov	r4, r1
 567 000a 1646     		mov	r6, r2
  86:sxmlc/sxmlc.c **** 	if (tag_type < TAG_USER)
 568              		.loc 1 86 0
 569 000c 02DC     		bgt	.L52
 570              	.LVL60:
 571              	.L54:
  87:sxmlc/sxmlc.c **** 		return -1;
 572              		.loc 1 87 0
 573 000e 4FF0FF30 		mov	r0, #-1
 574 0012 32E0     		b	.L53
 575              	.LVL61:
 576              	.L52:
  89:sxmlc/sxmlc.c **** 	if (start == NULL || end == NULL || *start != C2SX('<'))
 577              		.loc 1 89 0
 578 0014 0029     		cmp	r1, #0
 579 0016 FAD0     		beq	.L54
  89:sxmlc/sxmlc.c **** 	if (start == NULL || end == NULL || *start != C2SX('<'))
 580              		.loc 1 89 0 is_stmt 0 discriminator 1
 581 0018 002A     		cmp	r2, #0
 582 001a F8D0     		beq	.L54
 583 001c 0B78     		ldrb	r3, [r1]	@ zero_extendqisi2
 584 001e 3C2B     		cmp	r3, #60
 585 0020 F5D1     		bne	.L54
  92:sxmlc/sxmlc.c **** 	le = sx_strlen(end);
 586              		.loc 1 92 0 is_stmt 1
 587 0022 1046     		mov	r0, r2
 588              	.LVL62:
 589 0024 FFF7FEFF 		bl	strlen
 590              	.LVL63:
  93:sxmlc/sxmlc.c **** 	if (end[le-1] != C2SX('>'))
 591              		.loc 1 93 0
 592 0028 3318     		adds	r3, r6, r0
 593 002a 13F8013C 		ldrb	r3, [r3, #-1]	@ zero_extendqisi2
  92:sxmlc/sxmlc.c **** 	le = sx_strlen(end);
 594              		.loc 1 92 0
 595 002e 8246     		mov	r10, r0
 596              	.LVL64:
  93:sxmlc/sxmlc.c **** 	if (end[le-1] != C2SX('>'))
 597              		.loc 1 93 0
 598 0030 3E2B     		cmp	r3, #62
 599 0032 ECD1     		bne	.L54
  96:sxmlc/sxmlc.c **** 	i = _user_tags.n_tags;
 600              		.loc 1 96 0
 601 0034 124D     		ldr	r5, .L64
  98:sxmlc/sxmlc.c **** 	p = (_TAG*)__realloc(_user_tags.tags, n * sizeof(_TAG));
 602              		.loc 1 98 0
 603 0036 1423     		movs	r3, #20
  96:sxmlc/sxmlc.c **** 	i = _user_tags.n_tags;
 604              		.loc 1 96 0
 605 0038 D5F80480 		ldr	r8, [r5, #4]
 606              	.LVL65:
  98:sxmlc/sxmlc.c **** 	p = (_TAG*)__realloc(_user_tags.tags, n * sizeof(_TAG));
 607              		.loc 1 98 0
 608 003c 2868     		ldr	r0, [r5]
 609              	.LVL66:
  97:sxmlc/sxmlc.c **** 	n = i + 1;
 610              		.loc 1 97 0
 611 003e 08F10109 		add	r9, r8, #1
 612              	.LVL67:
  98:sxmlc/sxmlc.c **** 	p = (_TAG*)__realloc(_user_tags.tags, n * sizeof(_TAG));
 613              		.loc 1 98 0
 614 0042 03FB09F3 		mul	r3, r3, r9
 615 0046 1946     		mov	r1, r3
 616 0048 0193     		str	r3, [sp, #4]
 617 004a FFF7FEFF 		bl	realloc
 618              	.LVL68:
  99:sxmlc/sxmlc.c **** 	if (p == NULL)
 619              		.loc 1 99 0
 620 004e 019B     		ldr	r3, [sp, #4]
 621 0050 0746     		mov	r7, r0
 622 0052 0028     		cmp	r0, #0
 623 0054 DBD0     		beq	.L54
 102:sxmlc/sxmlc.c **** 	p[i].tag_type = tag_type;
 624              		.loc 1 102 0
 625 0056 A3F11402 		sub	r2, r3, #20
 626 005a 8318     		adds	r3, r0, r2
 627 005c 00F802B0 		strb	fp, [r0, r2]
 103:sxmlc/sxmlc.c **** 	p[i].start = start;
 628              		.loc 1 103 0
 629 0060 5C60     		str	r4, [r3, #4]
 104:sxmlc/sxmlc.c **** 	p[i].end = end;
 630              		.loc 1 104 0
 631 0062 DE60     		str	r6, [r3, #12]
 105:sxmlc/sxmlc.c **** 	p[i].len_start = sx_strlen(start);
 632              		.loc 1 105 0
 633 0064 2046     		mov	r0, r4
 634              	.LVL69:
 635 0066 0193     		str	r3, [sp, #4]
 636 0068 FFF7FEFF 		bl	strlen
 637              	.LVL70:
 638 006c 019B     		ldr	r3, [sp, #4]
 108:sxmlc/sxmlc.c **** 	_user_tags.n_tags = n;
 639              		.loc 1 108 0
 640 006e 85E88002 		stmia	r5, {r7, r9}
 105:sxmlc/sxmlc.c **** 	p[i].len_start = sx_strlen(start);
 641              		.loc 1 105 0
 642 0072 9860     		str	r0, [r3, #8]
 106:sxmlc/sxmlc.c **** 	p[i].len_end = le;
 643              		.loc 1 106 0
 644 0074 C3F810A0 		str	r10, [r3, #16]
 110:sxmlc/sxmlc.c **** 	return i;
 645              		.loc 1 110 0
 646 0078 4046     		mov	r0, r8
 647              	.LVL71:
 648              	.L53:
 111:sxmlc/sxmlc.c **** }
 649              		.loc 1 111 0
 650 007a 03B0     		add	sp, sp, #12
 651              		@ sp needed
 652 007c BDE8F08F 		pop	{r4, r5, r6, r7, r8, r9, r10, fp, pc}
 653              	.LVL72:
 654              	.L65:
 655              		.align	2
 656              	.L64:
 657 0080 00000000 		.word	.LANCHOR0
 658              		.cfi_endproc
 659              	.LFE0:
 661              		.section	.text.XML_unregister_user_tag,"ax",%progbits
 662              		.align	1
 663              		.global	XML_unregister_user_tag
 664              		.thumb
 665              		.thumb_func
 667              	XML_unregister_user_tag:
 668              	.LFB1:
 114:sxmlc/sxmlc.c **** {
 669              		.loc 1 114 0
 670              		.cfi_startproc
 671              		@ args = 0, pretend = 0, frame = 0
 672              		@ frame_needed = 0, uses_anonymous_args = 0
 673              	.LVL73:
 674 0000 2DE9F84F 		push	{r3, r4, r5, r6, r7, r8, r9, r10, fp, lr}
 675              		.cfi_def_cfa_offset 40
 676              		.cfi_offset 3, -40
 677              		.cfi_offset 4, -36
 678              		.cfi_offset 5, -32
 679              		.cfi_offset 6, -28
 680              		.cfi_offset 7, -24
 681              		.cfi_offset 8, -20
 682              		.cfi_offset 9, -16
 683              		.cfi_offset 10, -12
 684              		.cfi_offset 11, -8
 685              		.cfi_offset 14, -4
 117:sxmlc/sxmlc.c **** 	if (i_tag < 0 || i_tag >= _user_tags.n_tags)
 686              		.loc 1 117 0
 687 0004 B0F10009 		subs	r9, r0, #0
 688 0008 03DA     		bge	.L67
 689              	.LVL74:
 690              	.L69:
 118:sxmlc/sxmlc.c ****  		return -1;
 691              		.loc 1 118 0
 692 000a 4FF0FF30 		mov	r0, #-1
 693 000e BDE8F88F 		pop	{r3, r4, r5, r6, r7, r8, r9, r10, fp, pc}
 694              	.LVL75:
 695              	.L67:
 117:sxmlc/sxmlc.c **** 	if (i_tag < 0 || i_tag >= _user_tags.n_tags)
 696              		.loc 1 117 0 discriminator 1
 697 0012 174C     		ldr	r4, .L82
 698 0014 6568     		ldr	r5, [r4, #4]
 699 0016 A945     		cmp	r9, r5
 700 0018 F7DA     		bge	.L69
 120:sxmlc/sxmlc.c **** 	if (_user_tags.n_tags == 1)
 701              		.loc 1 120 0
 702 001a 012D     		cmp	r5, #1
 703 001c 05F1FF3A 		add	r10, r5, #-1
 704 0020 1BD0     		beq	.L73
 123:sxmlc/sxmlc.c **** 		pt = (_TAG*)__malloc((_user_tags.n_tags - 1) * sizeof(_TAG));
 705              		.loc 1 123 0
 706 0022 1427     		movs	r7, #20
 707 0024 07FB0AF0 		mul	r0, r7, r10
 708              	.LVL76:
 709 0028 FFF7FEFF 		bl	malloc
 710              	.LVL77:
 124:sxmlc/sxmlc.c **** 		if (pt == NULL)
 711              		.loc 1 124 0
 712 002c 0646     		mov	r6, r0
 713 002e 0028     		cmp	r0, #0
 714 0030 EBD0     		beq	.L69
 129:sxmlc/sxmlc.c **** 		memcpy(pt, _user_tags.tags, i_tag * sizeof(_TAG));
 715              		.loc 1 129 0
 716 0032 07FB09F8 		mul	r8, r7, r9
 717 0036 D4F800B0 		ldr	fp, [r4]
 718 003a 4246     		mov	r2, r8
 719 003c 5946     		mov	r1, fp
 130:sxmlc/sxmlc.c **** 		memcpy(&pt[i_tag], &_user_tags.tags[i_tag + 1], (_user_tags.n_tags - i_tag - 1) * sizeof(_TAG));
 720              		.loc 1 130 0
 721 003e C9EB0505 		rsb	r5, r9, r5
 129:sxmlc/sxmlc.c **** 		memcpy(pt, _user_tags.tags, i_tag * sizeof(_TAG));
 722              		.loc 1 129 0
 723 0042 FFF7FEFF 		bl	memcpy
 724              	.LVL78:
 130:sxmlc/sxmlc.c **** 		memcpy(&pt[i_tag], &_user_tags.tags[i_tag + 1], (_user_tags.n_tags - i_tag - 1) * sizeof(_TAG));
 725              		.loc 1 130 0
 726 0046 6A1E     		subs	r2, r5, #1
 727 0048 08F11401 		add	r1, r8, #20
 728 004c 06EB0800 		add	r0, r6, r8
 729 0050 5944     		add	r1, r1, fp
 730 0052 7A43     		muls	r2, r7, r2
 731 0054 FFF7FEFF 		bl	memcpy
 732              	.LVL79:
 733 0058 00E0     		b	.L70
 734              	.LVL80:
 735              	.L73:
 121:sxmlc/sxmlc.c **** 		pt = NULL;
 736              		.loc 1 121 0
 737 005a 0026     		movs	r6, #0
 738              	.LVL81:
 739              	.L70:
 132:sxmlc/sxmlc.c **** 	if (_user_tags.tags != NULL)
 740              		.loc 1 132 0
 741 005c 2068     		ldr	r0, [r4]
 742 005e 08B1     		cbz	r0, .L72
 133:sxmlc/sxmlc.c **** 		__free(_user_tags.tags);
 743              		.loc 1 133 0
 744 0060 FFF7FEFF 		bl	free
 745              	.LVL82:
 746              	.L72:
 134:sxmlc/sxmlc.c **** 	_user_tags.tags = pt;
 747              		.loc 1 134 0
 748 0064 2660     		str	r6, [r4]
 135:sxmlc/sxmlc.c **** 	_user_tags.n_tags--;
 749              		.loc 1 135 0
 750 0066 5046     		mov	r0, r10
 751 0068 C4F804A0 		str	r10, [r4, #4]
 137:sxmlc/sxmlc.c **** 	return _user_tags.n_tags;
 752              		.loc 1 137 0
 753 006c BDE8F88F 		pop	{r3, r4, r5, r6, r7, r8, r9, r10, fp, pc}
 754              	.LVL83:
 755              	.L83:
 756              		.align	2
 757              	.L82:
 758 0070 00000000 		.word	.LANCHOR0
 759              		.cfi_endproc
 760              	.LFE1:
 762              		.section	.text.XML_get_nb_registered_user_tags,"ax",%progbits
 763              		.align	1
 764              		.global	XML_get_nb_registered_user_tags
 765              		.thumb
 766              		.thumb_func
 768              	XML_get_nb_registered_user_tags:
 769              	.LFB2:
 141:sxmlc/sxmlc.c **** {
 770              		.loc 1 141 0
 771              		.cfi_startproc
 772              		@ args = 0, pretend = 0, frame = 0
 773              		@ frame_needed = 0, uses_anonymous_args = 0
 774              		@ link register save eliminated.
 143:sxmlc/sxmlc.c **** }
 775              		.loc 1 143 0
 776 0000 014B     		ldr	r3, .L85
 777 0002 5868     		ldr	r0, [r3, #4]
 778 0004 7047     		bx	lr
 779              	.L86:
 780 0006 00BF     		.align	2
 781              	.L85:
 782 0008 00000000 		.word	.LANCHOR0
 783              		.cfi_endproc
 784              	.LFE2:
 786              		.section	.text.XML_get_registered_user_tag,"ax",%progbits
 787              		.align	1
 788              		.global	XML_get_registered_user_tag
 789              		.thumb
 790              		.thumb_func
 792              	XML_get_registered_user_tag:
 793              	.LFB3:
 146:sxmlc/sxmlc.c **** {
 794              		.loc 1 146 0
 795              		.cfi_startproc
 796              		@ args = 0, pretend = 0, frame = 0
 797              		@ frame_needed = 0, uses_anonymous_args = 0
 798              	.LVL84:
 799 0000 10B5     		push	{r4, lr}
 800              		.cfi_def_cfa_offset 8
 801              		.cfi_offset 4, -8
 802              		.cfi_offset 14, -4
 149:sxmlc/sxmlc.c **** 	for (i = 0; i < _user_tags.n_tags; i++)
 803              		.loc 1 149 0
 804 0002 094B     		ldr	r3, .L93
 150:sxmlc/sxmlc.c **** 		if (_user_tags.tags[i].tag_type == tag_type)
 805              		.loc 1 150 0
 806 0004 93E80600 		ldmia	r3, {r1, r2}
 149:sxmlc/sxmlc.c **** 	for (i = 0; i < _user_tags.n_tags; i++)
 807              		.loc 1 149 0
 808 0008 0023     		movs	r3, #0
 809              	.LVL85:
 810              	.L88:
 149:sxmlc/sxmlc.c **** 	for (i = 0; i < _user_tags.n_tags; i++)
 811              		.loc 1 149 0 is_stmt 0 discriminator 1
 812 000a 9342     		cmp	r3, r2
 813 000c 06DA     		bge	.L92
 814 000e 1424     		movs	r4, #20
 815 0010 5C43     		muls	r4, r3, r4
 150:sxmlc/sxmlc.c **** 		if (_user_tags.tags[i].tag_type == tag_type)
 816              		.loc 1 150 0 is_stmt 1
 817 0012 0C57     		ldrsb	r4, [r1, r4]
 818 0014 8442     		cmp	r4, r0
 819 0016 04D0     		beq	.L91
 149:sxmlc/sxmlc.c **** 	for (i = 0; i < _user_tags.n_tags; i++)
 820              		.loc 1 149 0
 821 0018 0133     		adds	r3, r3, #1
 822              	.LVL86:
 823 001a F6E7     		b	.L88
 824              	.L92:
 153:sxmlc/sxmlc.c **** 	return -1;
 825              		.loc 1 153 0
 826 001c 4FF0FF30 		mov	r0, #-1
 827              	.LVL87:
 828 0020 10BD     		pop	{r4, pc}
 829              	.LVL88:
 830              	.L91:
 831 0022 1846     		mov	r0, r3
 832              	.LVL89:
 154:sxmlc/sxmlc.c **** }
 833              		.loc 1 154 0
 834 0024 10BD     		pop	{r4, pc}
 835              	.L94:
 836 0026 00BF     		.align	2
 837              	.L93:
 838 0028 00000000 		.word	.LANCHOR0
 839              		.cfi_endproc
 840              	.LFE3:
 842              		.section	.text.XMLNode_init,"ax",%progbits
 843              		.align	1
 844              		.global	XMLNode_init
 845              		.thumb
 846              		.thumb_func
 848              	XMLNode_init:
 849              	.LFB5:
 177:sxmlc/sxmlc.c **** {
 850              		.loc 1 177 0
 851              		.cfi_startproc
 852              		@ args = 0, pretend = 0, frame = 0
 853              		@ frame_needed = 0, uses_anonymous_args = 0
 854              		@ link register save eliminated.
 855              	.LVL90:
 178:sxmlc/sxmlc.c **** 	if (node == NULL)
 856              		.loc 1 178 0
 857 0000 80B1     		cbz	r0, .L96
 181:sxmlc/sxmlc.c **** 	if (node->init_value == XML_INIT_DONE)
 858              		.loc 1 181 0
 859 0002 094A     		ldr	r2, .L99
 860 0004 836A     		ldr	r3, [r0, #40]
 861 0006 9342     		cmp	r3, r2
 862 0008 0BD0     		beq	.L98
 184:sxmlc/sxmlc.c **** 	node->tag = NULL;
 863              		.loc 1 184 0
 864 000a 0023     		movs	r3, #0
 865 000c 0360     		str	r3, [r0]
 185:sxmlc/sxmlc.c **** 	node->text = NULL;
 866              		.loc 1 185 0
 867 000e 4360     		str	r3, [r0, #4]
 187:sxmlc/sxmlc.c **** 	node->attributes = NULL;
 868              		.loc 1 187 0
 869 0010 8360     		str	r3, [r0, #8]
 188:sxmlc/sxmlc.c **** 	node->n_attributes = 0;
 870              		.loc 1 188 0
 871 0012 C360     		str	r3, [r0, #12]
 190:sxmlc/sxmlc.c **** 	node->father = NULL;
 872              		.loc 1 190 0
 873 0014 0361     		str	r3, [r0, #16]
 191:sxmlc/sxmlc.c **** 	node->children = NULL;
 874              		.loc 1 191 0
 875 0016 4361     		str	r3, [r0, #20]
 192:sxmlc/sxmlc.c **** 	node->n_children = 0;
 876              		.loc 1 192 0
 877 0018 8361     		str	r3, [r0, #24]
 194:sxmlc/sxmlc.c **** 	node->tag_type = TAG_NONE;
 878              		.loc 1 194 0
 879 001a 0377     		strb	r3, [r0, #28]
 195:sxmlc/sxmlc.c **** 	node->active = true;
 880              		.loc 1 195 0
 881 001c 0123     		movs	r3, #1
 882 001e 0362     		str	r3, [r0, #32]
 197:sxmlc/sxmlc.c **** 	node->init_value = XML_INIT_DONE;
 883              		.loc 1 197 0
 884 0020 8262     		str	r2, [r0, #40]
 885              	.L98:
 182:sxmlc/sxmlc.c **** 		return true; /*(void)XMLNode_free(node);*/
 886              		.loc 1 182 0
 887 0022 0120     		movs	r0, #1
 888              	.LVL91:
 889              	.L96:
 200:sxmlc/sxmlc.c **** }
 890              		.loc 1 200 0
 891 0024 7047     		bx	lr
 892              	.L100:
 893 0026 00BF     		.align	2
 894              	.L99:
 895 0028 22057719 		.word	427230498
 896              		.cfi_endproc
 897              	.LFE5:
 899              		.section	.text.XMLNode_allocN,"ax",%progbits
 900              		.align	1
 901              		.global	XMLNode_allocN
 902              		.thumb
 903              		.thumb_func
 905              	XMLNode_allocN:
 906              	.LFB6:
 203:sxmlc/sxmlc.c **** {
 907              		.loc 1 203 0
 908              		.cfi_startproc
 909              		@ args = 0, pretend = 0, frame = 0
 910              		@ frame_needed = 0, uses_anonymous_args = 0
 911              	.LVL92:
 912 0000 70B5     		push	{r4, r5, r6, lr}
 913              		.cfi_def_cfa_offset 16
 914              		.cfi_offset 4, -16
 915              		.cfi_offset 5, -12
 916              		.cfi_offset 6, -8
 917              		.cfi_offset 14, -4
 207:sxmlc/sxmlc.c **** 	if (n <= 0)
 918              		.loc 1 207 0
 919 0002 061E     		subs	r6, r0, #0
 920 0004 01DC     		bgt	.L102
 921              	.LVL93:
 922              	.L104:
 208:sxmlc/sxmlc.c **** 		return NULL;
 923              		.loc 1 208 0
 924 0006 0020     		movs	r0, #0
 925 0008 70BD     		pop	{r4, r5, r6, pc}
 926              	.LVL94:
 927              	.L102:
 210:sxmlc/sxmlc.c **** 	p = (XMLNode*)__calloc(n, sizeof(XMLNode));
 928              		.loc 1 210 0
 929 000a 2C21     		movs	r1, #44
 930 000c FFF7FEFF 		bl	calloc
 931              	.LVL95:
 211:sxmlc/sxmlc.c **** 	if (p == NULL)
 932              		.loc 1 211 0
 933 0010 0546     		mov	r5, r0
 934 0012 0028     		cmp	r0, #0
 935 0014 F7D0     		beq	.L104
 936 0016 0024     		movs	r4, #0
 937              	.LVL96:
 938              	.L105:
 215:sxmlc/sxmlc.c **** 		(void)XMLNode_init(&p[i]);
 939              		.loc 1 215 0 discriminator 2
 940 0018 2C20     		movs	r0, #44
 941 001a 00FB0450 		mla	r0, r0, r4, r5
 214:sxmlc/sxmlc.c **** 	for (i = 0; i < n; i++)
 942              		.loc 1 214 0 discriminator 2
 943 001e 0134     		adds	r4, r4, #1
 944              	.LVL97:
 215:sxmlc/sxmlc.c **** 		(void)XMLNode_init(&p[i]);
 945              		.loc 1 215 0 discriminator 2
 946 0020 FFF7FEFF 		bl	XMLNode_init
 947              	.LVL98:
 214:sxmlc/sxmlc.c **** 	for (i = 0; i < n; i++)
 948              		.loc 1 214 0 discriminator 2
 949 0024 B442     		cmp	r4, r6
 950 0026 F7D1     		bne	.L105
 951 0028 2846     		mov	r0, r5
 218:sxmlc/sxmlc.c **** }
 952              		.loc 1 218 0
 953 002a 70BD     		pop	{r4, r5, r6, pc}
 954              		.cfi_endproc
 955              	.LFE6:
 957              		.section	.text.XMLNode_set_active,"ax",%progbits
 958              		.align	1
 959              		.global	XMLNode_set_active
 960              		.thumb
 961              		.thumb_func
 963              	XMLNode_set_active:
 964              	.LFB10:
 322:sxmlc/sxmlc.c **** {
 965              		.loc 1 322 0
 966              		.cfi_startproc
 967              		@ args = 0, pretend = 0, frame = 0
 968              		@ frame_needed = 0, uses_anonymous_args = 0
 969              		@ link register save eliminated.
 970              	.LVL99:
 323:sxmlc/sxmlc.c **** 	if (node == NULL || node->init_value != XML_INIT_DONE)
 971              		.loc 1 323 0
 972 0000 38B1     		cbz	r0, .L111
 323:sxmlc/sxmlc.c **** 	if (node == NULL || node->init_value != XML_INIT_DONE)
 973              		.loc 1 323 0 is_stmt 0 discriminator 1
 974 0002 836A     		ldr	r3, [r0, #40]
 975 0004 034A     		ldr	r2, .L114
 976 0006 9342     		cmp	r3, r2
 977 0008 02D1     		bne	.L113
 326:sxmlc/sxmlc.c **** 	node->active = active;
 978              		.loc 1 326 0 is_stmt 1
 979 000a 0162     		str	r1, [r0, #32]
 328:sxmlc/sxmlc.c **** 	return true;
 980              		.loc 1 328 0
 981 000c 0120     		movs	r0, #1
 982              	.LVL100:
 983 000e 7047     		bx	lr
 984              	.LVL101:
 985              	.L113:
 324:sxmlc/sxmlc.c **** 		return false;
 986              		.loc 1 324 0
 987 0010 0020     		movs	r0, #0
 988              	.LVL102:
 989              	.L111:
 329:sxmlc/sxmlc.c **** }
 990              		.loc 1 329 0
 991 0012 7047     		bx	lr
 992              	.L115:
 993              		.align	2
 994              	.L114:
 995 0014 22057719 		.word	427230498
 996              		.cfi_endproc
 997              	.LFE10:
 999              		.section	.text.XMLNode_set_tag,"ax",%progbits
 1000              		.align	1
 1001              		.global	XMLNode_set_tag
 1002              		.thumb
 1003              		.thumb_func
 1005              	XMLNode_set_tag:
 1006              	.LFB11:
 332:sxmlc/sxmlc.c **** {
 1007              		.loc 1 332 0
 1008              		.cfi_startproc
 1009              		@ args = 0, pretend = 0, frame = 0
 1010              		@ frame_needed = 0, uses_anonymous_args = 0
 1011              	.LVL103:
 1012 0000 38B5     		push	{r3, r4, r5, lr}
 1013              		.cfi_def_cfa_offset 16
 1014              		.cfi_offset 3, -16
 1015              		.cfi_offset 4, -12
 1016              		.cfi_offset 5, -8
 1017              		.cfi_offset 14, -4
 334:sxmlc/sxmlc.c **** 	if (node == NULL || tag == NULL || node->init_value != XML_INIT_DONE)
 1018              		.loc 1 334 0
 1019 0002 0446     		mov	r4, r0
 1020 0004 08B9     		cbnz	r0, .L117
 1021              	.LVL104:
 1022              	.L119:
 335:sxmlc/sxmlc.c **** 		return false;
 1023              		.loc 1 335 0
 1024 0006 0020     		movs	r0, #0
 1025 0008 38BD     		pop	{r3, r4, r5, pc}
 1026              	.LVL105:
 1027              	.L117:
 334:sxmlc/sxmlc.c **** 	if (node == NULL || tag == NULL || node->init_value != XML_INIT_DONE)
 1028              		.loc 1 334 0 discriminator 1
 1029 000a 0029     		cmp	r1, #0
 1030 000c FBD0     		beq	.L119
 1031 000e 836A     		ldr	r3, [r0, #40]
 1032 0010 074A     		ldr	r2, .L130
 1033 0012 9342     		cmp	r3, r2
 1034 0014 F7D1     		bne	.L119
 337:sxmlc/sxmlc.c **** 	newtag = sx_strdup(tag);
 1035              		.loc 1 337 0
 1036 0016 0846     		mov	r0, r1
 1037              	.LVL106:
 1038 0018 FFF7FEFF 		bl	strdup
 1039              	.LVL107:
 338:sxmlc/sxmlc.c **** 	if (newtag == NULL)
 1040              		.loc 1 338 0
 1041 001c 0546     		mov	r5, r0
 1042 001e 0028     		cmp	r0, #0
 1043 0020 F1D0     		beq	.L119
 340:sxmlc/sxmlc.c **** 	if (node->tag != NULL) __free(node->tag);
 1044              		.loc 1 340 0
 1045 0022 2068     		ldr	r0, [r4]
 1046              	.LVL108:
 1047 0024 08B1     		cbz	r0, .L120
 340:sxmlc/sxmlc.c **** 	if (node->tag != NULL) __free(node->tag);
 1048              		.loc 1 340 0 is_stmt 0 discriminator 1
 1049 0026 FFF7FEFF 		bl	free
 1050              	.LVL109:
 1051              	.L120:
 341:sxmlc/sxmlc.c **** 	node->tag = newtag;
 1052              		.loc 1 341 0 is_stmt 1
 1053 002a 2560     		str	r5, [r4]
 343:sxmlc/sxmlc.c **** 	return true;
 1054              		.loc 1 343 0
 1055 002c 0120     		movs	r0, #1
 344:sxmlc/sxmlc.c **** }
 1056              		.loc 1 344 0
 1057 002e 38BD     		pop	{r3, r4, r5, pc}
 1058              	.LVL110:
 1059              	.L131:
 1060              		.align	2
 1061              	.L130:
 1062 0030 22057719 		.word	427230498
 1063              		.cfi_endproc
 1064              	.LFE11:
 1066              		.section	.text.XMLNode_set_type,"ax",%progbits
 1067              		.align	1
 1068              		.global	XMLNode_set_type
 1069              		.thumb
 1070              		.thumb_func
 1072              	XMLNode_set_type:
 1073              	.LFB12:
 347:sxmlc/sxmlc.c **** {
 1074              		.loc 1 347 0
 1075              		.cfi_startproc
 1076              		@ args = 0, pretend = 0, frame = 0
 1077              		@ frame_needed = 0, uses_anonymous_args = 0
 1078              		@ link register save eliminated.
 1079              	.LVL111:
 348:sxmlc/sxmlc.c **** 	if (node == NULL || node->init_value != XML_INIT_DONE)
 1080              		.loc 1 348 0
 1081 0000 88B1     		cbz	r0, .L133
 348:sxmlc/sxmlc.c **** 	if (node == NULL || node->init_value != XML_INIT_DONE)
 1082              		.loc 1 348 0 is_stmt 0 discriminator 1
 1083 0002 836A     		ldr	r3, [r0, #40]
 1084 0004 084A     		ldr	r2, .L138
 1085 0006 9342     		cmp	r3, r2
 1086 0008 0CD1     		bne	.L137
 1087 000a 4B1C     		adds	r3, r1, #1
 1088 000c DBB2     		uxtb	r3, r3
 1089 000e 092B     		cmp	r3, #9
 1090 0010 05D8     		bhi	.L134
 1091 0012 0122     		movs	r2, #1
 1092 0014 9A40     		lsls	r2, r2, r3
 1093 0016 40F20723 		movw	r3, #519
 1094 001a 1340     		ands	r3, r3, r2
 1095 001c 13B9     		cbnz	r3, .L137
 1096              	.L134:
 359:sxmlc/sxmlc.c **** 			node->tag_type = tag_type;
 1097              		.loc 1 359 0 is_stmt 1
 1098 001e 0177     		strb	r1, [r0, #28]
 360:sxmlc/sxmlc.c **** 			return true;
 1099              		.loc 1 360 0
 1100 0020 0120     		movs	r0, #1
 1101              	.LVL112:
 1102 0022 7047     		bx	lr
 1103              	.LVL113:
 1104              	.L137:
 349:sxmlc/sxmlc.c **** 		return false;
 1105              		.loc 1 349 0
 1106 0024 0020     		movs	r0, #0
 1107              	.LVL114:
 1108              	.L133:
 362:sxmlc/sxmlc.c **** }
 1109              		.loc 1 362 0
 1110 0026 7047     		bx	lr
 1111              	.L139:
 1112              		.align	2
 1113              	.L138:
 1114 0028 22057719 		.word	427230498
 1115              		.cfi_endproc
 1116              	.LFE12:
 1118              		.section	.text.XMLNode_get_attribute_count,"ax",%progbits
 1119              		.align	1
 1120              		.global	XMLNode_get_attribute_count
 1121              		.thumb
 1122              		.thumb_func
 1124              	XMLNode_get_attribute_count:
 1125              	.LFB15:
 438:sxmlc/sxmlc.c **** {
 1126              		.loc 1 438 0
 1127              		.cfi_startproc
 1128              		@ args = 0, pretend = 0, frame = 0
 1129              		@ frame_needed = 0, uses_anonymous_args = 0
 1130              	.LVL115:
 1131 0000 30B5     		push	{r4, r5, lr}
 1132              		.cfi_def_cfa_offset 12
 1133              		.cfi_offset 4, -12
 1134              		.cfi_offset 5, -8
 1135              		.cfi_offset 14, -4
 441:sxmlc/sxmlc.c **** 	if (node == NULL || node->init_value != XML_INIT_DONE)
 1136              		.loc 1 441 0
 1137 0002 98B1     		cbz	r0, .L146
 441:sxmlc/sxmlc.c **** 	if (node == NULL || node->init_value != XML_INIT_DONE)
 1138              		.loc 1 441 0 is_stmt 0 discriminator 1
 1139 0004 836A     		ldr	r3, [r0, #40]
 1140 0006 0B4A     		ldr	r2, .L151
 1141 0008 9342     		cmp	r3, r2
 1142 000a 0FD1     		bne	.L146
 444:sxmlc/sxmlc.c **** 	for (i = n = 0; i < node->n_attributes; i++)
 1143              		.loc 1 444 0 is_stmt 1
 1144 000c 0023     		movs	r3, #0
 1145 000e C468     		ldr	r4, [r0, #12]
 1146 0010 1A46     		mov	r2, r3
 1147              	.L142:
 1148              	.LVL116:
 444:sxmlc/sxmlc.c **** 	for (i = n = 0; i < node->n_attributes; i++)
 1149              		.loc 1 444 0 is_stmt 0 discriminator 1
 1150 0012 A242     		cmp	r2, r4
 1151 0014 08DA     		bge	.L150
 445:sxmlc/sxmlc.c **** 		if (node->attributes[i].active) n++;
 1152              		.loc 1 445 0 is_stmt 1
 1153 0016 8168     		ldr	r1, [r0, #8]
 1154 0018 0C25     		movs	r5, #12
 1155 001a 05FB0211 		mla	r1, r5, r2, r1
 1156 001e 8968     		ldr	r1, [r1, #8]
 1157 0020 01B1     		cbz	r1, .L143
 445:sxmlc/sxmlc.c **** 		if (node->attributes[i].active) n++;
 1158              		.loc 1 445 0 is_stmt 0 discriminator 1
 1159 0022 0133     		adds	r3, r3, #1
 1160              	.LVL117:
 1161              	.L143:
 444:sxmlc/sxmlc.c **** 	for (i = n = 0; i < node->n_attributes; i++)
 1162              		.loc 1 444 0 is_stmt 1
 1163 0024 0132     		adds	r2, r2, #1
 1164              	.LVL118:
 1165 0026 F4E7     		b	.L142
 1166              	.L150:
 1167 0028 1846     		mov	r0, r3
 1168              	.LVL119:
 1169 002a 30BD     		pop	{r4, r5, pc}
 1170              	.LVL120:
 1171              	.L146:
 442:sxmlc/sxmlc.c **** 		return -1;
 1172              		.loc 1 442 0
 1173 002c 4FF0FF30 		mov	r0, #-1
 1174              	.LVL121:
 448:sxmlc/sxmlc.c **** }
 1175              		.loc 1 448 0
 1176 0030 30BD     		pop	{r4, r5, pc}
 1177              	.L152:
 1178 0032 00BF     		.align	2
 1179              	.L151:
 1180 0034 22057719 		.word	427230498
 1181              		.cfi_endproc
 1182              	.LFE15:
 1184              		.section	.text.XMLNode_search_attribute,"ax",%progbits
 1185              		.align	1
 1186              		.global	XMLNode_search_attribute
 1187              		.thumb
 1188              		.thumb_func
 1190              	XMLNode_search_attribute:
 1191              	.LFB16:
 451:sxmlc/sxmlc.c **** {
 1192              		.loc 1 451 0
 1193              		.cfi_startproc
 1194              		@ args = 0, pretend = 0, frame = 0
 1195              		@ frame_needed = 0, uses_anonymous_args = 0
 1196              	.LVL122:
 1197 0000 F8B5     		push	{r3, r4, r5, r6, r7, lr}
 1198              		.cfi_def_cfa_offset 24
 1199              		.cfi_offset 3, -24
 1200              		.cfi_offset 4, -20
 1201              		.cfi_offset 5, -16
 1202              		.cfi_offset 6, -12
 1203              		.cfi_offset 7, -8
 1204              		.cfi_offset 14, -4
 451:sxmlc/sxmlc.c **** {
 1205              		.loc 1 451 0
 1206 0002 0E46     		mov	r6, r1
 1207 0004 1446     		mov	r4, r2
 454:sxmlc/sxmlc.c **** 	if (node == NULL || attr_name == NULL || attr_name[0] == NULC || i_search < 0 || i_search >= node-
 1208              		.loc 1 454 0
 1209 0006 E0B1     		cbz	r0, .L163
 454:sxmlc/sxmlc.c **** 	if (node == NULL || attr_name == NULL || attr_name[0] == NULC || i_search < 0 || i_search >= node-
 1210              		.loc 1 454 0 is_stmt 0 discriminator 1
 1211 0008 D9B1     		cbz	r1, .L163
 1212 000a 0B78     		ldrb	r3, [r1]	@ zero_extendqisi2
 1213 000c CBB1     		cbz	r3, .L163
 1214 000e 002A     		cmp	r2, #0
 1215 0010 17DB     		blt	.L163
 1216 0012 C768     		ldr	r7, [r0, #12]
 1217 0014 BA42     		cmp	r2, r7
 1218 0016 14DA     		bge	.L163
 458:sxmlc/sxmlc.c **** 		if (node->attributes[i].active && !sx_strcmp(node->attributes[i].name, attr_name))
 1219              		.loc 1 458 0 is_stmt 1
 1220 0018 8368     		ldr	r3, [r0, #8]
 1221 001a 0C25     		movs	r5, #12
 1222 001c 05FB0235 		mla	r5, r5, r2, r3
 1223 0020 0835     		adds	r5, r5, #8
 1224              	.LVL123:
 1225              	.L156:
 1226 0022 2B68     		ldr	r3, [r5]
 1227 0024 2BB1     		cbz	r3, .L155
 458:sxmlc/sxmlc.c **** 		if (node->attributes[i].active && !sx_strcmp(node->attributes[i].name, attr_name))
 1228              		.loc 1 458 0 is_stmt 0 discriminator 1
 1229 0026 55F8080C 		ldr	r0, [r5, #-8]
 1230 002a 3146     		mov	r1, r6
 1231 002c FFF7FEFF 		bl	strcmp
 1232              	.LVL124:
 1233 0030 28B1     		cbz	r0, .L162
 1234              	.L155:
 457:sxmlc/sxmlc.c **** 	for (i = i_search; i < node->n_attributes; i++)
 1235              		.loc 1 457 0 is_stmt 1
 1236 0032 0134     		adds	r4, r4, #1
 1237              	.LVL125:
 1238 0034 BC42     		cmp	r4, r7
 1239 0036 05F10C05 		add	r5, r5, #12
 1240 003a F2D1     		bne	.L156
 1241 003c 01E0     		b	.L163
 1242              	.L162:
 1243 003e 2046     		mov	r0, r4
 1244 0040 F8BD     		pop	{r3, r4, r5, r6, r7, pc}
 1245              	.LVL126:
 1246              	.L163:
 455:sxmlc/sxmlc.c **** 		return -1;
 1247              		.loc 1 455 0
 1248 0042 4FF0FF30 		mov	r0, #-1
 462:sxmlc/sxmlc.c **** }
 1249              		.loc 1 462 0
 1250 0046 F8BD     		pop	{r3, r4, r5, r6, r7, pc}
 1251              		.cfi_endproc
 1252              	.LFE16:
 1254              		.section	.text.XMLNode_set_attribute,"ax",%progbits
 1255              		.align	1
 1256              		.global	XMLNode_set_attribute
 1257              		.thumb
 1258              		.thumb_func
 1260              	XMLNode_set_attribute:
 1261              	.LFB13:
 365:sxmlc/sxmlc.c **** {
 1262              		.loc 1 365 0
 1263              		.cfi_startproc
 1264              		@ args = 0, pretend = 0, frame = 0
 1265              		@ frame_needed = 0, uses_anonymous_args = 0
 1266              	.LVL127:
 1267 0000 2DE9F041 		push	{r4, r5, r6, r7, r8, lr}
 1268              		.cfi_def_cfa_offset 24
 1269              		.cfi_offset 4, -24
 1270              		.cfi_offset 5, -20
 1271              		.cfi_offset 6, -16
 1272              		.cfi_offset 7, -12
 1273              		.cfi_offset 8, -8
 1274              		.cfi_offset 14, -4
 365:sxmlc/sxmlc.c **** {
 1275              		.loc 1 365 0
 1276 0004 0E46     		mov	r6, r1
 1277 0006 1546     		mov	r5, r2
 369:sxmlc/sxmlc.c **** 	if (node == NULL || attr_name == NULL || attr_name[0] == NULC || node->init_value != XML_INIT_DONE
 1278              		.loc 1 369 0
 1279 0008 0446     		mov	r4, r0
 1280 000a 0028     		cmp	r0, #0
 1281 000c 4ED0     		beq	.L179
 369:sxmlc/sxmlc.c **** 	if (node == NULL || attr_name == NULL || attr_name[0] == NULC || node->init_value != XML_INIT_DONE
 1282              		.loc 1 369 0 is_stmt 0 discriminator 1
 1283 000e 0029     		cmp	r1, #0
 1284 0010 4CD0     		beq	.L179
 1285 0012 0B78     		ldrb	r3, [r1]	@ zero_extendqisi2
 1286 0014 002B     		cmp	r3, #0
 1287 0016 49D0     		beq	.L179
 1288 0018 836A     		ldr	r3, [r0, #40]
 1289 001a 264A     		ldr	r2, .L206
 1290              	.LVL128:
 1291 001c 9342     		cmp	r3, r2
 1292 001e 45D1     		bne	.L179
 372:sxmlc/sxmlc.c **** 	i = XMLNode_search_attribute(node, attr_name, 0);
 1293              		.loc 1 372 0 is_stmt 1
 1294 0020 0022     		movs	r2, #0
 1295 0022 FFF7FEFF 		bl	XMLNode_search_attribute
 1296              	.LVL129:
 373:sxmlc/sxmlc.c **** 	if (i >= 0) { /* Attribute found: update it */
 1297              		.loc 1 373 0
 1298 0026 071E     		subs	r7, r0, #0
 1299 0028 10DB     		blt	.L171
 1300              	.LVL130:
 1301              	.LBB2:
 375:sxmlc/sxmlc.c **** 		if (attr_value != NULL && (value = sx_strdup(attr_value)) == NULL)
 1302              		.loc 1 375 0
 1303 002a 2DB1     		cbz	r5, .L172
 375:sxmlc/sxmlc.c **** 		if (attr_value != NULL && (value = sx_strdup(attr_value)) == NULL)
 1304              		.loc 1 375 0 is_stmt 0 discriminator 1
 1305 002c 2846     		mov	r0, r5
 1306              	.LVL131:
 1307 002e FFF7FEFF 		bl	strdup
 1308              	.LVL132:
 1309 0032 0546     		mov	r5, r0
 1310              	.LVL133:
 1311 0034 0028     		cmp	r0, #0
 1312 0036 39D0     		beq	.L179
 1313              	.LVL134:
 1314              	.L172:
 378:sxmlc/sxmlc.c **** 		if (pt[i].value != NULL)
 1315              		.loc 1 378 0 is_stmt 1
 1316 0038 A368     		ldr	r3, [r4, #8]
 1317 003a 0C26     		movs	r6, #12
 1318              	.LVL135:
 1319 003c 06FB0736 		mla	r6, r6, r7, r3
 1320 0040 7068     		ldr	r0, [r6, #4]
 1321 0042 08B1     		cbz	r0, .L173
 379:sxmlc/sxmlc.c **** 			__free(pt[i].value);
 1322              		.loc 1 379 0
 1323 0044 FFF7FEFF 		bl	free
 1324              	.LVL136:
 1325              	.L173:
 380:sxmlc/sxmlc.c **** 		pt[i].value = value;
 1326              		.loc 1 380 0
 1327 0048 7560     		str	r5, [r6, #4]
 1328              	.LBE2:
 1329 004a 29E0     		b	.L174
 1330              	.LVL137:
 1331              	.L171:
 1332              	.LBB3:
 382:sxmlc/sxmlc.c **** 		SXML_CHAR* name = sx_strdup(attr_name);
 1333              		.loc 1 382 0
 1334 004c 3046     		mov	r0, r6
 1335              	.LVL138:
 1336 004e FFF7FEFF 		bl	strdup
 1337              	.LVL139:
 1338 0052 0646     		mov	r6, r0
 1339              	.LVL140:
 383:sxmlc/sxmlc.c **** 		SXML_CHAR* value = (attr_value == NULL ? NULL : sx_strdup(attr_value));
 1340              		.loc 1 383 0
 1341 0054 45B1     		cbz	r5, .L175
 383:sxmlc/sxmlc.c **** 		SXML_CHAR* value = (attr_value == NULL ? NULL : sx_strdup(attr_value));
 1342              		.loc 1 383 0 is_stmt 0 discriminator 1
 1343 0056 2846     		mov	r0, r5
 1344              	.LVL141:
 1345 0058 FFF7FEFF 		bl	strdup
 1346              	.LVL142:
 1347 005c 0546     		mov	r5, r0
 1348              	.LVL143:
 384:sxmlc/sxmlc.c **** 		if (name == NULL || (value == NULL && attr_value != NULL)) {
 1349              		.loc 1 384 0 is_stmt 1 discriminator 1
 1350 005e 0EB1     		cbz	r6, .L176
 1351 0060 18B9     		cbnz	r0, .L178
 1352 0062 20E0     		b	.L177
 1353              	.L176:
 385:sxmlc/sxmlc.c **** 			if (value != NULL)
 1354              		.loc 1 385 0
 1355 0064 00BB     		cbnz	r0, .L205
 1356 0066 21E0     		b	.L179
 1357              	.LVL144:
 1358              	.L175:
 384:sxmlc/sxmlc.c **** 		if (name == NULL || (value == NULL && attr_value != NULL)) {
 1359              		.loc 1 384 0
 1360 0068 00B3     		cbz	r0, .L179
 1361              	.LVL145:
 1362              	.L178:
 392:sxmlc/sxmlc.c **** 		pt = (XMLAttribute*)__realloc(node->attributes, (i+1) * sizeof(XMLAttribute));
 1363              		.loc 1 392 0
 1364 006a E768     		ldr	r7, [r4, #12]
 1365 006c 4FF00C08 		mov	r8, #12
 1366 0070 0137     		adds	r7, r7, #1
 1367 0072 08FB07F8 		mul	r8, r8, r7
 1368 0076 A068     		ldr	r0, [r4, #8]
 1369 0078 4146     		mov	r1, r8
 1370 007a FFF7FEFF 		bl	realloc
 1371              	.LVL146:
 393:sxmlc/sxmlc.c **** 		if (pt == NULL) {
 1372              		.loc 1 393 0
 1373 007e 20B9     		cbnz	r0, .L180
 394:sxmlc/sxmlc.c **** 			if (value != NULL)
 1374              		.loc 1 394 0
 1375 0080 8DB1     		cbz	r5, .L177
 395:sxmlc/sxmlc.c **** 				__free(value);
 1376              		.loc 1 395 0
 1377 0082 2846     		mov	r0, r5
 1378              	.LVL147:
 1379 0084 FFF7FEFF 		bl	free
 1380              	.LVL148:
 1381 0088 0DE0     		b	.L177
 1382              	.LVL149:
 1383              	.L180:
 400:sxmlc/sxmlc.c **** 		pt[i].name = name;
 1384              		.loc 1 400 0
 1385 008a A8F10C08 		sub	r8, r8, #12
 1386 008e 00EB0803 		add	r3, r0, r8
 402:sxmlc/sxmlc.c **** 		pt[i].active = true;
 1387              		.loc 1 402 0
 1388 0092 0122     		movs	r2, #1
 400:sxmlc/sxmlc.c **** 		pt[i].name = name;
 1389              		.loc 1 400 0
 1390 0094 40F80860 		str	r6, [r0, r8]
 401:sxmlc/sxmlc.c **** 		pt[i].value = value;
 1391              		.loc 1 401 0
 1392 0098 5D60     		str	r5, [r3, #4]
 402:sxmlc/sxmlc.c **** 		pt[i].active = true;
 1393              		.loc 1 402 0
 1394 009a 9A60     		str	r2, [r3, #8]
 403:sxmlc/sxmlc.c **** 		node->attributes = pt;
 1395              		.loc 1 403 0
 1396 009c A060     		str	r0, [r4, #8]
 404:sxmlc/sxmlc.c **** 		node->n_attributes = i + 1;
 1397              		.loc 1 404 0
 1398 009e E760     		str	r7, [r4, #12]
 1399              	.LVL150:
 1400              	.L174:
 1401              	.LBE3:
 407:sxmlc/sxmlc.c **** 	return node->n_attributes;
 1402              		.loc 1 407 0
 1403 00a0 E068     		ldr	r0, [r4, #12]
 1404 00a2 BDE8F081 		pop	{r4, r5, r6, r7, r8, pc}
 1405              	.LVL151:
 1406              	.L177:
 1407              	.LBB4:
 388:sxmlc/sxmlc.c **** 				__free(name);
 1408              		.loc 1 388 0
 1409 00a6 3046     		mov	r0, r6
 1410              	.L205:
 1411 00a8 FFF7FEFF 		bl	free
 1412              	.LVL152:
 1413              	.L179:
 389:sxmlc/sxmlc.c ****  			return -1;
 1414              		.loc 1 389 0
 1415 00ac 4FF0FF30 		mov	r0, #-1
 1416              	.LBE4:
 408:sxmlc/sxmlc.c **** }
 1417              		.loc 1 408 0
 1418 00b0 BDE8F081 		pop	{r4, r5, r6, r7, r8, pc}
 1419              	.LVL153:
 1420              	.L207:
 1421              		.align	2
 1422              	.L206:
 1423 00b4 22057719 		.word	427230498
 1424              		.cfi_endproc
 1425              	.LFE13:
 1427              		.section	.text.XMLNode_get_attribute_with_default,"ax",%progbits
 1428              		.align	1
 1429              		.global	XMLNode_get_attribute_with_default
 1430              		.thumb
 1431              		.thumb_func
 1433              	XMLNode_get_attribute_with_default:
 1434              	.LFB14:
 411:sxmlc/sxmlc.c **** {
 1435              		.loc 1 411 0
 1436              		.cfi_startproc
 1437              		@ args = 0, pretend = 0, frame = 0
 1438              		@ frame_needed = 0, uses_anonymous_args = 0
 1439              	.LVL154:
 1440 0000 F8B5     		push	{r3, r4, r5, r6, r7, lr}
 1441              		.cfi_def_cfa_offset 24
 1442              		.cfi_offset 3, -24
 1443              		.cfi_offset 4, -20
 1444              		.cfi_offset 5, -16
 1445              		.cfi_offset 6, -12
 1446              		.cfi_offset 7, -8
 1447              		.cfi_offset 14, -4
 411:sxmlc/sxmlc.c **** {
 1448              		.loc 1 411 0
 1449 0002 1446     		mov	r4, r2
 1450 0004 1F46     		mov	r7, r3
 415:sxmlc/sxmlc.c **** 	if (node == NULL || attr_name == NULL || attr_name[0] == NULC || attr_value == NULL || node->init_
 1451              		.loc 1 415 0
 1452 0006 0646     		mov	r6, r0
 1453 0008 00B3     		cbz	r0, .L212
 415:sxmlc/sxmlc.c **** 	if (node == NULL || attr_name == NULL || attr_name[0] == NULC || attr_value == NULL || node->init_
 1454              		.loc 1 415 0 is_stmt 0 discriminator 1
 1455 000a 01B3     		cbz	r1, .L213
 1456 000c 0B78     		ldrb	r3, [r1]	@ zero_extendqisi2
 1457              	.LVL155:
 1458 000e 03B3     		cbz	r3, .L214
 1459 0010 0AB3     		cbz	r2, .L215
 1460 0012 836A     		ldr	r3, [r0, #40]
 1461 0014 124A     		ldr	r2, .L224
 1462              	.LVL156:
 1463 0016 9342     		cmp	r3, r2
 1464 0018 1FD1     		bne	.L216
 418:sxmlc/sxmlc.c **** 	i = XMLNode_search_attribute(node, attr_name, 0);
 1465              		.loc 1 418 0 is_stmt 1
 1466 001a 0022     		movs	r2, #0
 1467 001c FFF7FEFF 		bl	XMLNode_search_attribute
 1468              	.LVL157:
 419:sxmlc/sxmlc.c **** 	if (i >= 0) {
 1469              		.loc 1 419 0
 1470 0020 0028     		cmp	r0, #0
 1471 0022 09DB     		blt	.L210
 1472              	.LVL158:
 421:sxmlc/sxmlc.c **** 		if (pt[i].value != NULL) {
 1473              		.loc 1 421 0
 1474 0024 B368     		ldr	r3, [r6, #8]
 1475 0026 0C22     		movs	r2, #12
 1476 0028 02FB0030 		mla	r0, r2, r0, r3
 1477              	.LVL159:
 1478 002c 4068     		ldr	r0, [r0, #4]
 1479 002e 30B9     		cbnz	r0, .L223
 1480              	.LVL160:
 1481              	.L211:
 426:sxmlc/sxmlc.c **** 			*attr_value = NULL; /* NULL but returns 'true' as 'NULL' is the actual attribute value */
 1482              		.loc 1 426 0
 1483 0030 0023     		movs	r3, #0
 1484 0032 2360     		str	r3, [r4]
 434:sxmlc/sxmlc.c **** 	return true;
 1485              		.loc 1 434 0
 1486 0034 0120     		movs	r0, #1
 1487 0036 F8BD     		pop	{r3, r4, r5, r6, r7, pc}
 1488              	.LVL161:
 1489              	.L210:
 427:sxmlc/sxmlc.c **** 	} else if (default_attr_value != NULL) {
 1490              		.loc 1 427 0
 1491 0038 002F     		cmp	r7, #0
 1492 003a F9D0     		beq	.L211
 428:sxmlc/sxmlc.c **** 		*attr_value = sx_strdup(default_attr_value);
 1493              		.loc 1 428 0
 1494 003c 3846     		mov	r0, r7
 1495              	.LVL162:
 1496              	.L223:
 1497 003e FFF7FEFF 		bl	strdup
 1498              	.LVL163:
 1499 0042 2060     		str	r0, [r4]
 429:sxmlc/sxmlc.c **** 		if (*attr_value == NULL)
 1500              		.loc 1 429 0
 1501 0044 0030     		adds	r0, r0, #0
 1502 0046 18BF     		it	ne
 1503 0048 0120     		movne	r0, #1
 1504 004a F8BD     		pop	{r3, r4, r5, r6, r7, pc}
 1505              	.LVL164:
 1506              	.L212:
 1507 004c F8BD     		pop	{r3, r4, r5, r6, r7, pc}
 1508              	.LVL165:
 1509              	.L213:
 416:sxmlc/sxmlc.c **** 		return false;
 1510              		.loc 1 416 0
 1511 004e 0846     		mov	r0, r1
 1512              	.LVL166:
 1513 0050 F8BD     		pop	{r3, r4, r5, r6, r7, pc}
 1514              	.LVL167:
 1515              	.L214:
 1516 0052 1846     		mov	r0, r3
 1517              	.LVL168:
 1518 0054 F8BD     		pop	{r3, r4, r5, r6, r7, pc}
 1519              	.LVL169:
 1520              	.L215:
 1521 0056 1046     		mov	r0, r2
 1522              	.LVL170:
 1523 0058 F8BD     		pop	{r3, r4, r5, r6, r7, pc}
 1524              	.LVL171:
 1525              	.L216:
 1526 005a 0020     		movs	r0, #0
 1527              	.LVL172:
 435:sxmlc/sxmlc.c **** }
 1528              		.loc 1 435 0
 1529 005c F8BD     		pop	{r3, r4, r5, r6, r7, pc}
 1530              	.LVL173:
 1531              	.L225:
 1532 005e 00BF     		.align	2
 1533              	.L224:
 1534 0060 22057719 		.word	427230498
 1535              		.cfi_endproc
 1536              	.LFE14:
 1538              		.section	.text.XMLNode_remove_attribute,"ax",%progbits
 1539              		.align	1
 1540              		.global	XMLNode_remove_attribute
 1541              		.thumb
 1542              		.thumb_func
 1544              	XMLNode_remove_attribute:
 1545              	.LFB17:
 465:sxmlc/sxmlc.c **** {
 1546              		.loc 1 465 0
 1547              		.cfi_startproc
 1548              		@ args = 0, pretend = 0, frame = 0
 1549              		@ frame_needed = 0, uses_anonymous_args = 0
 1550              	.LVL174:
 1551 0000 F8B5     		push	{r3, r4, r5, r6, r7, lr}
 1552              		.cfi_def_cfa_offset 24
 1553              		.cfi_offset 3, -24
 1554              		.cfi_offset 4, -20
 1555              		.cfi_offset 5, -16
 1556              		.cfi_offset 6, -12
 1557              		.cfi_offset 7, -8
 1558              		.cfi_offset 14, -4
 465:sxmlc/sxmlc.c **** {
 1559              		.loc 1 465 0
 1560 0002 0F46     		mov	r7, r1
 467:sxmlc/sxmlc.c **** 	if (node == NULL || node->init_value != XML_INIT_DONE || i_attr < 0 || i_attr >= node->n_attribute
 1561              		.loc 1 467 0
 1562 0004 0446     		mov	r4, r0
 1563 0006 10B9     		cbnz	r0, .L227
 1564              	.LVL175:
 1565              	.L229:
 468:sxmlc/sxmlc.c **** 		return -1;
 1566              		.loc 1 468 0
 1567 0008 4FF0FF30 		mov	r0, #-1
 1568 000c F8BD     		pop	{r3, r4, r5, r6, r7, pc}
 1569              	.LVL176:
 1570              	.L227:
 467:sxmlc/sxmlc.c **** 	if (node == NULL || node->init_value != XML_INIT_DONE || i_attr < 0 || i_attr >= node->n_attribute
 1571              		.loc 1 467 0 discriminator 1
 1572 000e 836A     		ldr	r3, [r0, #40]
 1573 0010 1D4A     		ldr	r2, .L251
 1574 0012 9342     		cmp	r3, r2
 1575 0014 F8D1     		bne	.L229
 1576 0016 0029     		cmp	r1, #0
 1577 0018 F6DB     		blt	.L229
 1578 001a C068     		ldr	r0, [r0, #12]
 1579              	.LVL177:
 1580 001c 8142     		cmp	r1, r0
 1581 001e F3DA     		bge	.L229
 471:sxmlc/sxmlc.c **** 	if (node->n_attributes == 1)
 1582              		.loc 1 471 0
 1583 0020 0128     		cmp	r0, #1
 1584 0022 07D0     		beq	.L235
 474:sxmlc/sxmlc.c **** 		pt = (XMLAttribute*)__malloc((node->n_attributes - 1) * sizeof(XMLAttribute));
 1585              		.loc 1 474 0
 1586 0024 0C23     		movs	r3, #12
 1587 0026 0138     		subs	r0, r0, #1
 1588 0028 5843     		muls	r0, r3, r0
 1589 002a FFF7FEFF 		bl	malloc
 1590              	.LVL178:
 475:sxmlc/sxmlc.c **** 		if (pt == NULL)
 1591              		.loc 1 475 0
 1592 002e 0546     		mov	r5, r0
 1593 0030 08B9     		cbnz	r0, .L230
 1594 0032 E9E7     		b	.L229
 1595              	.LVL179:
 1596              	.L235:
 472:sxmlc/sxmlc.c **** 		pt = NULL;
 1597              		.loc 1 472 0
 1598 0034 0025     		movs	r5, #0
 1599              	.LVL180:
 1600              	.L230:
 480:sxmlc/sxmlc.c **** 	if (node->attributes[i_attr].name != NULL) __free(node->attributes[i_attr].name);
 1601              		.loc 1 480 0
 1602 0036 0C26     		movs	r6, #12
 1603 0038 7E43     		muls	r6, r7, r6
 1604 003a A368     		ldr	r3, [r4, #8]
 1605 003c 9859     		ldr	r0, [r3, r6]
 1606 003e 08B1     		cbz	r0, .L231
 480:sxmlc/sxmlc.c **** 	if (node->attributes[i_attr].name != NULL) __free(node->attributes[i_attr].name);
 1607              		.loc 1 480 0 is_stmt 0 discriminator 1
 1608 0040 FFF7FEFF 		bl	free
 1609              	.LVL181:
 1610              	.L231:
 481:sxmlc/sxmlc.c **** 	if (node->attributes[i_attr].value != NULL) __free(node->attributes[i_attr].value);
 1611              		.loc 1 481 0 is_stmt 1
 1612 0044 A368     		ldr	r3, [r4, #8]
 1613 0046 3344     		add	r3, r3, r6
 1614 0048 5868     		ldr	r0, [r3, #4]
 1615 004a 08B1     		cbz	r0, .L232
 481:sxmlc/sxmlc.c **** 	if (node->attributes[i_attr].value != NULL) __free(node->attributes[i_attr].value);
 1616              		.loc 1 481 0 is_stmt 0 discriminator 1
 1617 004c FFF7FEFF 		bl	free
 1618              	.LVL182:
 1619              	.L232:
 483:sxmlc/sxmlc.c **** 	if (pt != NULL) {
 1620              		.loc 1 483 0 is_stmt 1
 1621 0050 85B1     		cbz	r5, .L233
 484:sxmlc/sxmlc.c **** 		memcpy(pt, node->attributes, i_attr * sizeof(XMLAttribute));
 1622              		.loc 1 484 0
 1623 0052 A168     		ldr	r1, [r4, #8]
 1624 0054 3246     		mov	r2, r6
 1625 0056 2846     		mov	r0, r5
 1626 0058 FFF7FEFF 		bl	memcpy
 1627              	.LVL183:
 485:sxmlc/sxmlc.c **** 		memcpy(&pt[i_attr], &node->attributes[i_attr + 1], (node->n_attributes - i_attr - 1) * sizeof(XML
 1628              		.loc 1 485 0
 1629 005c E368     		ldr	r3, [r4, #12]
 1630 005e 06F10C01 		add	r1, r6, #12
 1631 0062 DF1B     		subs	r7, r3, r7
 1632              	.LVL184:
 1633 0064 A368     		ldr	r3, [r4, #8]
 1634 0066 013F     		subs	r7, r7, #1
 1635 0068 0C22     		movs	r2, #12
 1636 006a A819     		adds	r0, r5, r6
 1637 006c 1944     		add	r1, r1, r3
 1638 006e 7A43     		muls	r2, r7, r2
 1639 0070 FFF7FEFF 		bl	memcpy
 1640              	.LVL185:
 1641              	.L233:
 487:sxmlc/sxmlc.c **** 	if (node->attributes != NULL)
 1642              		.loc 1 487 0
 1643 0074 A068     		ldr	r0, [r4, #8]
 1644 0076 08B1     		cbz	r0, .L234
 488:sxmlc/sxmlc.c **** 		__free(node->attributes);
 1645              		.loc 1 488 0
 1646 0078 FFF7FEFF 		bl	free
 1647              	.LVL186:
 1648              	.L234:
 490:sxmlc/sxmlc.c **** 	node->n_attributes--;
 1649              		.loc 1 490 0
 1650 007c E068     		ldr	r0, [r4, #12]
 489:sxmlc/sxmlc.c **** 	node->attributes = pt;
 1651              		.loc 1 489 0
 1652 007e A560     		str	r5, [r4, #8]
 490:sxmlc/sxmlc.c **** 	node->n_attributes--;
 1653              		.loc 1 490 0
 1654 0080 0138     		subs	r0, r0, #1
 1655 0082 E060     		str	r0, [r4, #12]
 493:sxmlc/sxmlc.c **** }
 1656              		.loc 1 493 0
 1657 0084 F8BD     		pop	{r3, r4, r5, r6, r7, pc}
 1658              	.LVL187:
 1659              	.L252:
 1660 0086 00BF     		.align	2
 1661              	.L251:
 1662 0088 22057719 		.word	427230498
 1663              		.cfi_endproc
 1664              	.LFE17:
 1666              		.section	.text.XMLNode_remove_all_attributes,"ax",%progbits
 1667              		.align	1
 1668              		.global	XMLNode_remove_all_attributes
 1669              		.thumb
 1670              		.thumb_func
 1672              	XMLNode_remove_all_attributes:
 1673              	.LFB18:
 496:sxmlc/sxmlc.c **** {
 1674              		.loc 1 496 0
 1675              		.cfi_startproc
 1676              		@ args = 0, pretend = 0, frame = 0
 1677              		@ frame_needed = 0, uses_anonymous_args = 0
 1678              	.LVL188:
 1679 0000 70B5     		push	{r4, r5, r6, lr}
 1680              		.cfi_def_cfa_offset 16
 1681              		.cfi_offset 4, -16
 1682              		.cfi_offset 5, -12
 1683              		.cfi_offset 6, -8
 1684              		.cfi_offset 14, -4
 499:sxmlc/sxmlc.c **** 	if (node == NULL || node->init_value != XML_INIT_DONE)
 1685              		.loc 1 499 0
 1686 0002 0446     		mov	r4, r0
 1687 0004 08B3     		cbz	r0, .L261
 499:sxmlc/sxmlc.c **** 	if (node == NULL || node->init_value != XML_INIT_DONE)
 1688              		.loc 1 499 0 is_stmt 0 discriminator 1
 1689 0006 836A     		ldr	r3, [r0, #40]
 1690 0008 114A     		ldr	r2, .L272
 1691 000a 9342     		cmp	r3, r2
 1692 000c 1DD1     		bne	.L261
 502:sxmlc/sxmlc.c **** 	if (node->attributes != NULL) {
 1693              		.loc 1 502 0 is_stmt 1
 1694 000e 8368     		ldr	r3, [r0, #8]
 1695 0010 BBB1     		cbz	r3, .L255
 1696 0012 0025     		movs	r5, #0
 1697              	.LVL189:
 1698              	.L256:
 503:sxmlc/sxmlc.c **** 		for (i = 0; i < node->n_attributes; i++) {
 1699              		.loc 1 503 0 discriminator 1
 1700 0014 E368     		ldr	r3, [r4, #12]
 1701 0016 9D42     		cmp	r5, r3
 1702 0018 0EDA     		bge	.L271
 1703 001a 0C26     		movs	r6, #12
 1704 001c 6E43     		muls	r6, r5, r6
 504:sxmlc/sxmlc.c **** 			if (node->attributes[i].name != NULL)
 1705              		.loc 1 504 0
 1706 001e A368     		ldr	r3, [r4, #8]
 1707 0020 9859     		ldr	r0, [r3, r6]
 1708 0022 08B1     		cbz	r0, .L257
 505:sxmlc/sxmlc.c **** 				__free(node->attributes[i].name);
 1709              		.loc 1 505 0
 1710 0024 FFF7FEFF 		bl	free
 1711              	.LVL190:
 1712              	.L257:
 506:sxmlc/sxmlc.c **** 			if (node->attributes[i].value != NULL)
 1713              		.loc 1 506 0
 1714 0028 A368     		ldr	r3, [r4, #8]
 1715 002a 1E44     		add	r6, r6, r3
 1716 002c 7068     		ldr	r0, [r6, #4]
 1717 002e 08B1     		cbz	r0, .L258
 507:sxmlc/sxmlc.c **** 				__free(node->attributes[i].value);
 1718              		.loc 1 507 0
 1719 0030 FFF7FEFF 		bl	free
 1720              	.LVL191:
 1721              	.L258:
 503:sxmlc/sxmlc.c **** 		for (i = 0; i < node->n_attributes; i++) {
 1722              		.loc 1 503 0
 1723 0034 0135     		adds	r5, r5, #1
 1724              	.LVL192:
 1725 0036 EDE7     		b	.L256
 1726              	.L271:
 509:sxmlc/sxmlc.c **** 		__free(node->attributes);
 1727              		.loc 1 509 0
 1728 0038 A068     		ldr	r0, [r4, #8]
 1729 003a FFF7FEFF 		bl	free
 1730              	.LVL193:
 510:sxmlc/sxmlc.c **** 		node->attributes = NULL;
 1731              		.loc 1 510 0
 1732 003e 0023     		movs	r3, #0
 1733 0040 A360     		str	r3, [r4, #8]
 1734              	.LVL194:
 1735              	.L255:
 512:sxmlc/sxmlc.c **** 	node->n_attributes = 0;
 1736              		.loc 1 512 0
 1737 0042 0023     		movs	r3, #0
 1738 0044 E360     		str	r3, [r4, #12]
 514:sxmlc/sxmlc.c **** 	return true;
 1739              		.loc 1 514 0
 1740 0046 0120     		movs	r0, #1
 1741 0048 70BD     		pop	{r4, r5, r6, pc}
 1742              	.LVL195:
 1743              	.L261:
 500:sxmlc/sxmlc.c **** 		return false;
 1744              		.loc 1 500 0
 1745 004a 0020     		movs	r0, #0
 1746              	.LVL196:
 515:sxmlc/sxmlc.c **** }
 1747              		.loc 1 515 0
 1748 004c 70BD     		pop	{r4, r5, r6, pc}
 1749              	.LVL197:
 1750              	.L273:
 1751 004e 00BF     		.align	2
 1752              	.L272:
 1753 0050 22057719 		.word	427230498
 1754              		.cfi_endproc
 1755              	.LFE18:
 1757              		.section	.text.XMLNode_set_text,"ax",%progbits
 1758              		.align	1
 1759              		.global	XMLNode_set_text
 1760              		.thumb
 1761              		.thumb_func
 1763              	XMLNode_set_text:
 1764              	.LFB19:
 518:sxmlc/sxmlc.c **** {
 1765              		.loc 1 518 0
 1766              		.cfi_startproc
 1767              		@ args = 0, pretend = 0, frame = 0
 1768              		@ frame_needed = 0, uses_anonymous_args = 0
 1769              	.LVL198:
 1770 0000 38B5     		push	{r3, r4, r5, lr}
 1771              		.cfi_def_cfa_offset 16
 1772              		.cfi_offset 3, -16
 1773              		.cfi_offset 4, -12
 1774              		.cfi_offset 5, -8
 1775              		.cfi_offset 14, -4
 518:sxmlc/sxmlc.c **** {
 1776              		.loc 1 518 0
 1777 0002 0D46     		mov	r5, r1
 520:sxmlc/sxmlc.c **** 	if (node == NULL || node->init_value != XML_INIT_DONE)
 1778              		.loc 1 520 0
 1779 0004 0446     		mov	r4, r0
 1780 0006 08B9     		cbnz	r0, .L275
 1781              	.LVL199:
 1782              	.L277:
 521:sxmlc/sxmlc.c **** 		return false;
 1783              		.loc 1 521 0
 1784 0008 0020     		movs	r0, #0
 1785 000a 38BD     		pop	{r3, r4, r5, pc}
 1786              	.LVL200:
 1787              	.L275:
 520:sxmlc/sxmlc.c **** 	if (node == NULL || node->init_value != XML_INIT_DONE)
 1788              		.loc 1 520 0 discriminator 1
 1789 000c 836A     		ldr	r3, [r0, #40]
 1790 000e 0C4A     		ldr	r2, .L283
 1791 0010 9342     		cmp	r3, r2
 1792 0012 F9D1     		bne	.L277
 523:sxmlc/sxmlc.c **** 	if (text == NULL) { /* We want to remove it => free node text */
 1793              		.loc 1 523 0
 1794 0014 29B9     		cbnz	r1, .L278
 524:sxmlc/sxmlc.c **** 		if (node->text != NULL) {
 1795              		.loc 1 524 0
 1796 0016 4068     		ldr	r0, [r0, #4]
 1797              	.LVL201:
 1798 0018 80B1     		cbz	r0, .L279
 525:sxmlc/sxmlc.c **** 			__free(node->text);
 1799              		.loc 1 525 0
 1800 001a FFF7FEFF 		bl	free
 1801              	.LVL202:
 526:sxmlc/sxmlc.c **** 			node->text = NULL;
 1802              		.loc 1 526 0
 1803 001e 6560     		str	r5, [r4, #4]
 1804 0020 0CE0     		b	.L279
 1805              	.LVL203:
 1806              	.L278:
 532:sxmlc/sxmlc.c **** 	p = (SXML_CHAR*)__realloc(node->text, (sx_strlen(text) + 1)*sizeof(SXML_CHAR)); /* +1 for '\0' */
 1807              		.loc 1 532 0
 1808 0022 0846     		mov	r0, r1
 1809              	.LVL204:
 1810 0024 FFF7FEFF 		bl	strlen
 1811              	.LVL205:
 1812 0028 411C     		adds	r1, r0, #1
 1813 002a 6068     		ldr	r0, [r4, #4]
 1814 002c FFF7FEFF 		bl	realloc
 1815              	.LVL206:
 533:sxmlc/sxmlc.c **** 	if (p == NULL)
 1816              		.loc 1 533 0
 1817 0030 0028     		cmp	r0, #0
 1818 0032 E9D0     		beq	.L277
 535:sxmlc/sxmlc.c **** 	node->text = p;
 1819              		.loc 1 535 0
 1820 0034 6060     		str	r0, [r4, #4]
 537:sxmlc/sxmlc.c **** 	sx_strcpy(node->text, text);
 1821              		.loc 1 537 0
 1822 0036 2946     		mov	r1, r5
 1823 0038 FFF7FEFF 		bl	strcpy
 1824              	.LVL207:
 1825              	.L279:
 529:sxmlc/sxmlc.c **** 		return true;
 1826              		.loc 1 529 0
 1827 003c 0120     		movs	r0, #1
 540:sxmlc/sxmlc.c **** }
 1828              		.loc 1 540 0
 1829 003e 38BD     		pop	{r3, r4, r5, pc}
 1830              	.LVL208:
 1831              	.L284:
 1832              		.align	2
 1833              	.L283:
 1834 0040 22057719 		.word	427230498
 1835              		.cfi_endproc
 1836              	.LFE19:
 1838              		.section	.text.XMLNode_add_child,"ax",%progbits
 1839              		.align	1
 1840              		.global	XMLNode_add_child
 1841              		.thumb
 1842              		.thumb_func
 1844              	XMLNode_add_child:
 1845              	.LFB20:
 543:sxmlc/sxmlc.c **** {
 1846              		.loc 1 543 0
 1847              		.cfi_startproc
 1848              		@ args = 0, pretend = 0, frame = 0
 1849              		@ frame_needed = 0, uses_anonymous_args = 0
 1850              	.LVL209:
 1851 0000 38B5     		push	{r3, r4, r5, lr}
 1852              		.cfi_def_cfa_offset 16
 1853              		.cfi_offset 3, -16
 1854              		.cfi_offset 4, -12
 1855              		.cfi_offset 5, -8
 1856              		.cfi_offset 14, -4
 543:sxmlc/sxmlc.c **** {
 1857              		.loc 1 543 0
 1858 0002 0D46     		mov	r5, r1
 544:sxmlc/sxmlc.c **** 	if (node == NULL || child == NULL || node->init_value != XML_INIT_DONE || child->init_value != XML
 1859              		.loc 1 544 0
 1860 0004 0446     		mov	r4, r0
 1861 0006 08B9     		cbnz	r0, .L286
 1862              	.LVL210:
 1863              	.L288:
 545:sxmlc/sxmlc.c **** 		return false;
 1864              		.loc 1 545 0
 1865 0008 0020     		movs	r0, #0
 1866 000a 38BD     		pop	{r3, r4, r5, pc}
 1867              	.LVL211:
 1868              	.L286:
 544:sxmlc/sxmlc.c **** 	if (node == NULL || child == NULL || node->init_value != XML_INIT_DONE || child->init_value != XML
 1869              		.loc 1 544 0 discriminator 1
 1870 000c 0029     		cmp	r1, #0
 1871 000e FBD0     		beq	.L288
 1872 0010 836A     		ldr	r3, [r0, #40]
 1873 0012 094A     		ldr	r2, .L292
 1874 0014 9342     		cmp	r3, r2
 1875 0016 F7D1     		bne	.L288
 1876 0018 8A6A     		ldr	r2, [r1, #40]
 1877 001a 9A42     		cmp	r2, r3
 1878 001c F4D1     		bne	.L288
 547:sxmlc/sxmlc.c **** 	if (_add_node(&node->children, &node->n_children, child) >= 0) {
 1879              		.loc 1 547 0
 1880 001e 1430     		adds	r0, r0, #20
 1881              	.LVL212:
 1882 0020 04F11801 		add	r1, r4, #24
 1883              	.LVL213:
 1884 0024 2A46     		mov	r2, r5
 1885 0026 FFF7FEFF 		bl	_add_node
 1886              	.LVL214:
 1887 002a 0028     		cmp	r0, #0
 1888 002c ECDB     		blt	.L288
 548:sxmlc/sxmlc.c **** 		node->tag_type = TAG_FATHER;
 1889              		.loc 1 548 0
 1890 002e 0223     		movs	r3, #2
 1891 0030 2377     		strb	r3, [r4, #28]
 550:sxmlc/sxmlc.c **** 		return true;
 1892              		.loc 1 550 0
 1893 0032 0120     		movs	r0, #1
 549:sxmlc/sxmlc.c **** 		child->father = node;
 1894              		.loc 1 549 0
 1895 0034 2C61     		str	r4, [r5, #16]
 553:sxmlc/sxmlc.c **** }
 1896              		.loc 1 553 0
 1897 0036 38BD     		pop	{r3, r4, r5, pc}
 1898              	.LVL215:
 1899              	.L293:
 1900              		.align	2
 1901              	.L292:
 1902 0038 22057719 		.word	427230498
 1903              		.cfi_endproc
 1904              	.LFE20:
 1906              		.section	.text.XMLNode_get_children_count,"ax",%progbits
 1907              		.align	1
 1908              		.global	XMLNode_get_children_count
 1909              		.thumb
 1910              		.thumb_func
 1912              	XMLNode_get_children_count:
 1913              	.LFB21:
 556:sxmlc/sxmlc.c **** {
 1914              		.loc 1 556 0
 1915              		.cfi_startproc
 1916              		@ args = 0, pretend = 0, frame = 0
 1917              		@ frame_needed = 0, uses_anonymous_args = 0
 1918              	.LVL216:
 1919 0000 10B5     		push	{r4, lr}
 1920              		.cfi_def_cfa_offset 8
 1921              		.cfi_offset 4, -8
 1922              		.cfi_offset 14, -4
 559:sxmlc/sxmlc.c **** 	if (node == NULL || node->init_value != XML_INIT_DONE)
 1923              		.loc 1 559 0
 1924 0002 90B1     		cbz	r0, .L300
 559:sxmlc/sxmlc.c **** 	if (node == NULL || node->init_value != XML_INIT_DONE)
 1925              		.loc 1 559 0 is_stmt 0 discriminator 1
 1926 0004 836A     		ldr	r3, [r0, #40]
 1927 0006 0A4A     		ldr	r2, .L305
 1928 0008 9342     		cmp	r3, r2
 1929 000a 0ED1     		bne	.L300
 562:sxmlc/sxmlc.c **** 	for (i = n = 0; i < node->n_children; i++)
 1930              		.loc 1 562 0 is_stmt 1
 1931 000c 0023     		movs	r3, #0
 1932 000e 8469     		ldr	r4, [r0, #24]
 1933 0010 1A46     		mov	r2, r3
 1934              	.L296:
 1935              	.LVL217:
 562:sxmlc/sxmlc.c **** 	for (i = n = 0; i < node->n_children; i++)
 1936              		.loc 1 562 0 is_stmt 0 discriminator 1
 1937 0012 A242     		cmp	r2, r4
 1938 0014 07DA     		bge	.L304
 563:sxmlc/sxmlc.c **** 		if (node->children[i]->active) n++;
 1939              		.loc 1 563 0 is_stmt 1
 1940 0016 4169     		ldr	r1, [r0, #20]
 1941 0018 51F82210 		ldr	r1, [r1, r2, lsl #2]
 1942 001c 096A     		ldr	r1, [r1, #32]
 1943 001e 01B1     		cbz	r1, .L297
 563:sxmlc/sxmlc.c **** 		if (node->children[i]->active) n++;
 1944              		.loc 1 563 0 is_stmt 0 discriminator 1
 1945 0020 0133     		adds	r3, r3, #1
 1946              	.LVL218:
 1947              	.L297:
 562:sxmlc/sxmlc.c **** 	for (i = n = 0; i < node->n_children; i++)
 1948              		.loc 1 562 0 is_stmt 1
 1949 0022 0132     		adds	r2, r2, #1
 1950              	.LVL219:
 1951 0024 F5E7     		b	.L296
 1952              	.L304:
 1953 0026 1846     		mov	r0, r3
 1954              	.LVL220:
 1955 0028 10BD     		pop	{r4, pc}
 1956              	.LVL221:
 1957              	.L300:
 560:sxmlc/sxmlc.c **** 		return -1;
 1958              		.loc 1 560 0
 1959 002a 4FF0FF30 		mov	r0, #-1
 1960              	.LVL222:
 566:sxmlc/sxmlc.c **** }
 1961              		.loc 1 566 0
 1962 002e 10BD     		pop	{r4, pc}
 1963              	.L306:
 1964              		.align	2
 1965              	.L305:
 1966 0030 22057719 		.word	427230498
 1967              		.cfi_endproc
 1968              	.LFE21:
 1970              		.section	.text.XMLNode_get_child,"ax",%progbits
 1971              		.align	1
 1972              		.global	XMLNode_get_child
 1973              		.thumb
 1974              		.thumb_func
 1976              	XMLNode_get_child:
 1977              	.LFB22:
 569:sxmlc/sxmlc.c **** {
 1978              		.loc 1 569 0
 1979              		.cfi_startproc
 1980              		@ args = 0, pretend = 0, frame = 0
 1981              		@ frame_needed = 0, uses_anonymous_args = 0
 1982              	.LVL223:
 1983 0000 30B5     		push	{r4, r5, lr}
 1984              		.cfi_def_cfa_offset 12
 1985              		.cfi_offset 4, -12
 1986              		.cfi_offset 5, -8
 1987              		.cfi_offset 14, -4
 572:sxmlc/sxmlc.c **** 	if (node == NULL || node->init_value != XML_INIT_DONE || i_child < 0 || i_child >= node->n_childre
 1988              		.loc 1 572 0
 1989 0002 B0B1     		cbz	r0, .L313
 572:sxmlc/sxmlc.c **** 	if (node == NULL || node->init_value != XML_INIT_DONE || i_child < 0 || i_child >= node->n_childre
 1990              		.loc 1 572 0 is_stmt 0 discriminator 1
 1991 0004 836A     		ldr	r3, [r0, #40]
 1992 0006 0D4A     		ldr	r2, .L317
 1993 0008 9342     		cmp	r3, r2
 1994 000a 14D1     		bne	.L316
 1995 000c 0029     		cmp	r1, #0
 1996 000e 12DB     		blt	.L316
 1997 0010 8469     		ldr	r4, [r0, #24]
 1998 0012 A142     		cmp	r1, r4
 1999 0014 0FDA     		bge	.L316
 572:sxmlc/sxmlc.c **** 	if (node == NULL || node->init_value != XML_INIT_DONE || i_child < 0 || i_child >= node->n_childre
 2000              		.loc 1 572 0
 2001 0016 0022     		movs	r2, #0
 2002              	.L309:
 2003              	.LVL224:
 575:sxmlc/sxmlc.c **** 	for (i = 0; i < node->n_children; i++) {
 2004              		.loc 1 575 0 is_stmt 1 discriminator 1
 2005 0018 A242     		cmp	r2, r4
 2006 001a 0CDA     		bge	.L316
 576:sxmlc/sxmlc.c **** 		if (!node->children[i]->active)
 2007              		.loc 1 576 0
 2008 001c 4369     		ldr	r3, [r0, #20]
 2009 001e 53F82230 		ldr	r3, [r3, r2, lsl #2]
 2010 0022 1D6A     		ldr	r5, [r3, #32]
 2011 0024 0DB9     		cbnz	r5, .L310
 577:sxmlc/sxmlc.c **** 			i_child++;
 2012              		.loc 1 577 0
 2013 0026 0131     		adds	r1, r1, #1
 2014              	.LVL225:
 2015 0028 01E0     		b	.L311
 2016              	.L310:
 578:sxmlc/sxmlc.c **** 		else if (i == i_child)
 2017              		.loc 1 578 0
 2018 002a 8A42     		cmp	r2, r1
 2019 002c 04D0     		beq	.L308
 2020              	.L311:
 575:sxmlc/sxmlc.c **** 	for (i = 0; i < node->n_children; i++) {
 2021              		.loc 1 575 0
 2022 002e 0132     		adds	r2, r2, #1
 2023              	.LVL226:
 2024 0030 F2E7     		b	.L309
 2025              	.LVL227:
 2026              	.L313:
 573:sxmlc/sxmlc.c **** 		return NULL;
 2027              		.loc 1 573 0
 2028 0032 0346     		mov	r3, r0
 2029 0034 00E0     		b	.L308
 2030              	.L316:
 2031 0036 0023     		movs	r3, #0
 2032              	.L308:
 583:sxmlc/sxmlc.c **** }
 2033              		.loc 1 583 0
 2034 0038 1846     		mov	r0, r3
 2035              	.LVL228:
 2036 003a 30BD     		pop	{r4, r5, pc}
 2037              	.L318:
 2038              		.align	2
 2039              	.L317:
 2040 003c 22057719 		.word	427230498
 2041              		.cfi_endproc
 2042              	.LFE22:
 2044              		.section	.text.XMLNode_remove_children,"ax",%progbits
 2045              		.align	1
 2046              		.global	XMLNode_remove_children
 2047              		.thumb
 2048              		.thumb_func
 2050              	XMLNode_remove_children:
 2051              	.LFB24:
 632:sxmlc/sxmlc.c **** {
 2052              		.loc 1 632 0
 2053              		.cfi_startproc
 2054              		@ args = 0, pretend = 0, frame = 0
 2055              		@ frame_needed = 0, uses_anonymous_args = 0
 2056              	.LVL229:
 2057 0000 38B5     		push	{r3, r4, r5, lr}
 2058              		.cfi_def_cfa_offset 16
 2059              		.cfi_offset 3, -16
 2060              		.cfi_offset 4, -12
 2061              		.cfi_offset 5, -8
 2062              		.cfi_offset 14, -4
 635:sxmlc/sxmlc.c **** 	if (node == NULL || node->init_value != XML_INIT_DONE)
 2063              		.loc 1 635 0
 2064 0002 0446     		mov	r4, r0
 2065 0004 F8B1     		cbz	r0, .L326
 635:sxmlc/sxmlc.c **** 	if (node == NULL || node->init_value != XML_INIT_DONE)
 2066              		.loc 1 635 0 is_stmt 0 discriminator 1
 2067 0006 836A     		ldr	r3, [r0, #40]
 2068 0008 104A     		ldr	r2, .L334
 2069 000a 9342     		cmp	r3, r2
 2070 000c 1BD1     		bne	.L326
 638:sxmlc/sxmlc.c **** 	if (node->children != NULL) {
 2071              		.loc 1 638 0 is_stmt 1
 2072 000e 4369     		ldr	r3, [r0, #20]
 2073 0010 ABB1     		cbz	r3, .L321
 2074 0012 0025     		movs	r5, #0
 2075              	.LVL230:
 2076              	.L322:
 639:sxmlc/sxmlc.c **** 		for (i = 0; i < node->n_children; i++)
 2077              		.loc 1 639 0 discriminator 1
 2078 0014 A369     		ldr	r3, [r4, #24]
 2079 0016 9D42     		cmp	r5, r3
 2080 0018 0CDA     		bge	.L333
 640:sxmlc/sxmlc.c **** 			if (node->children[i] != NULL) {
 2081              		.loc 1 640 0
 2082 001a 6369     		ldr	r3, [r4, #20]
 2083 001c 53F82500 		ldr	r0, [r3, r5, lsl #2]
 2084 0020 30B1     		cbz	r0, .L323
 641:sxmlc/sxmlc.c **** 				(void)XMLNode_free(node->children[i]);
 2085              		.loc 1 641 0
 2086 0022 FFF7FEFF 		bl	XMLNode_free
 2087              	.LVL231:
 642:sxmlc/sxmlc.c **** 				__free(node->children[i]);
 2088              		.loc 1 642 0
 2089 0026 6369     		ldr	r3, [r4, #20]
 2090 0028 53F82500 		ldr	r0, [r3, r5, lsl #2]
 2091 002c FFF7FEFF 		bl	free
 2092              	.LVL232:
 2093              	.L323:
 639:sxmlc/sxmlc.c **** 		for (i = 0; i < node->n_children; i++)
 2094              		.loc 1 639 0
 2095 0030 0135     		adds	r5, r5, #1
 2096              	.LVL233:
 2097 0032 EFE7     		b	.L322
 2098              	.L333:
 644:sxmlc/sxmlc.c **** 		__free(node->children);
 2099              		.loc 1 644 0
 2100 0034 6069     		ldr	r0, [r4, #20]
 2101 0036 FFF7FEFF 		bl	free
 2102              	.LVL234:
 645:sxmlc/sxmlc.c **** 		node->children = NULL;
 2103              		.loc 1 645 0
 2104 003a 0023     		movs	r3, #0
 2105 003c 6361     		str	r3, [r4, #20]
 2106              	.LVL235:
 2107              	.L321:
 647:sxmlc/sxmlc.c **** 	node->n_children = 0;
 2108              		.loc 1 647 0
 2109 003e 0023     		movs	r3, #0
 2110 0040 A361     		str	r3, [r4, #24]
 649:sxmlc/sxmlc.c **** 	return true;
 2111              		.loc 1 649 0
 2112 0042 0120     		movs	r0, #1
 2113 0044 38BD     		pop	{r3, r4, r5, pc}
 2114              	.LVL236:
 2115              	.L326:
 636:sxmlc/sxmlc.c **** 		return false;
 2116              		.loc 1 636 0
 2117 0046 0020     		movs	r0, #0
 2118              	.LVL237:
 650:sxmlc/sxmlc.c **** }
 2119              		.loc 1 650 0
 2120 0048 38BD     		pop	{r3, r4, r5, pc}
 2121              	.LVL238:
 2122              	.L335:
 2123 004a 00BF     		.align	2
 2124              	.L334:
 2125 004c 22057719 		.word	427230498
 2126              		.cfi_endproc
 2127              	.LFE24:
 2129              		.section	.text.XMLNode_free,"ax",%progbits
 2130              		.align	1
 2131              		.global	XMLNode_free
 2132              		.thumb
 2133              		.thumb_func
 2135              	XMLNode_free:
 2136              	.LFB8:
 242:sxmlc/sxmlc.c **** {
 2137              		.loc 1 242 0
 2138              		.cfi_startproc
 2139              		@ args = 0, pretend = 0, frame = 0
 2140              		@ frame_needed = 0, uses_anonymous_args = 0
 2141              	.LVL239:
 2142 0000 10B5     		push	{r4, lr}
 2143              		.cfi_def_cfa_offset 8
 2144              		.cfi_offset 4, -8
 2145              		.cfi_offset 14, -4
 243:sxmlc/sxmlc.c **** 	if (node == NULL || node->init_value != XML_INIT_DONE)
 2146              		.loc 1 243 0
 2147 0002 0446     		mov	r4, r0
 2148 0004 B8B1     		cbz	r0, .L340
 243:sxmlc/sxmlc.c **** 	if (node == NULL || node->init_value != XML_INIT_DONE)
 2149              		.loc 1 243 0 is_stmt 0 discriminator 1
 2150 0006 836A     		ldr	r3, [r0, #40]
 2151 0008 0C4A     		ldr	r2, .L344
 2152 000a 9342     		cmp	r3, r2
 2153 000c 13D1     		bne	.L340
 2154              	.LVL240:
 2155              	.LBB7:
 2156              	.LBB8:
 246:sxmlc/sxmlc.c **** 	if (node->tag != NULL) {
 2157              		.loc 1 246 0 is_stmt 1
 2158 000e 0068     		ldr	r0, [r0]
 2159              	.LVL241:
 2160 0010 18B1     		cbz	r0, .L338
 247:sxmlc/sxmlc.c **** 		__free(node->tag);
 2161              		.loc 1 247 0
 2162 0012 FFF7FEFF 		bl	free
 2163              	.LVL242:
 248:sxmlc/sxmlc.c **** 		node->tag = NULL;
 2164              		.loc 1 248 0
 2165 0016 0023     		movs	r3, #0
 2166 0018 2360     		str	r3, [r4]
 2167              	.L338:
 251:sxmlc/sxmlc.c **** 	XMLNode_remove_text(node);
 2168              		.loc 1 251 0
 2169 001a 0021     		movs	r1, #0
 2170 001c 2046     		mov	r0, r4
 2171 001e FFF7FEFF 		bl	XMLNode_set_text
 2172              	.LVL243:
 252:sxmlc/sxmlc.c **** 	XMLNode_remove_all_attributes(node);
 2173              		.loc 1 252 0
 2174 0022 2046     		mov	r0, r4
 2175 0024 FFF7FEFF 		bl	XMLNode_remove_all_attributes
 2176              	.LVL244:
 253:sxmlc/sxmlc.c **** 	XMLNode_remove_children(node);
 2177              		.loc 1 253 0
 2178 0028 2046     		mov	r0, r4
 2179 002a FFF7FEFF 		bl	XMLNode_remove_children
 2180              	.LVL245:
 255:sxmlc/sxmlc.c **** 	node->tag_type = TAG_NONE;
 2181              		.loc 1 255 0
 2182 002e 0023     		movs	r3, #0
 2183 0030 2377     		strb	r3, [r4, #28]
 2184 0032 0120     		movs	r0, #1
 2185 0034 10BD     		pop	{r4, pc}
 2186              	.LVL246:
 2187              	.L340:
 2188              	.LBE8:
 2189              	.LBE7:
 244:sxmlc/sxmlc.c **** 		return false;
 2190              		.loc 1 244 0
 2191 0036 0020     		movs	r0, #0
 2192              	.LVL247:
 258:sxmlc/sxmlc.c **** }
 2193              		.loc 1 258 0
 2194 0038 10BD     		pop	{r4, pc}
 2195              	.LVL248:
 2196              	.L345:
 2197 003a 00BF     		.align	2
 2198              	.L344:
 2199 003c 22057719 		.word	427230498
 2200              		.cfi_endproc
 2201              	.LFE8:
 2203              		.section	.text.XMLNode_copy,"ax",%progbits
 2204              		.align	1
 2205              		.global	XMLNode_copy
 2206              		.thumb
 2207              		.thumb_func
 2209              	XMLNode_copy:
 2210              	.LFB9:
 261:sxmlc/sxmlc.c **** {
 2211              		.loc 1 261 0
 2212              		.cfi_startproc
 2213              		@ args = 0, pretend = 0, frame = 0
 2214              		@ frame_needed = 0, uses_anonymous_args = 0
 2215              	.LVL249:
 2216 0000 2DE9F047 		push	{r4, r5, r6, r7, r8, r9, r10, lr}
 2217              		.cfi_def_cfa_offset 32
 2218              		.cfi_offset 4, -32
 2219              		.cfi_offset 5, -28
 2220              		.cfi_offset 6, -24
 2221              		.cfi_offset 7, -20
 2222              		.cfi_offset 8, -16
 2223              		.cfi_offset 9, -12
 2224              		.cfi_offset 10, -8
 2225              		.cfi_offset 14, -4
 261:sxmlc/sxmlc.c **** {
 2226              		.loc 1 261 0
 2227 0004 0D46     		mov	r5, r1
 2228 0006 9146     		mov	r9, r2
 264:sxmlc/sxmlc.c **** 	if (dst == NULL || (src != NULL && src->init_value != XML_INIT_DONE))
 2229              		.loc 1 264 0
 2230 0008 0446     		mov	r4, r0
 2231 000a 0028     		cmp	r0, #0
 2232 000c 72D0     		beq	.L364
 264:sxmlc/sxmlc.c **** 	if (dst == NULL || (src != NULL && src->init_value != XML_INIT_DONE))
 2233              		.loc 1 264 0 is_stmt 0 discriminator 1
 2234 000e 19B1     		cbz	r1, .L348
 2235 0010 8B6A     		ldr	r3, [r1, #40]
 2236 0012 3A4A     		ldr	r2, .L389
 2237              	.LVL250:
 2238 0014 9342     		cmp	r3, r2
 2239 0016 6DD1     		bne	.L364
 2240              	.L348:
 267:sxmlc/sxmlc.c **** 	(void)XMLNode_free(dst); /* 'dst' is freed first */
 2241              		.loc 1 267 0 is_stmt 1
 2242 0018 2046     		mov	r0, r4
 2243              	.LVL251:
 2244 001a FFF7FEFF 		bl	XMLNode_free
 2245              	.LVL252:
 270:sxmlc/sxmlc.c **** 	if (src == NULL)
 2246              		.loc 1 270 0
 2247 001e 15B9     		cbnz	r5, .L349
 2248              	.L358:
 271:sxmlc/sxmlc.c **** 		return true;
 2249              		.loc 1 271 0
 2250 0020 0120     		movs	r0, #1
 2251 0022 BDE8F087 		pop	{r4, r5, r6, r7, r8, r9, r10, pc}
 2252              	.LVL253:
 2253              	.L349:
 274:sxmlc/sxmlc.c **** 	if (src->tag != NULL) {
 2254              		.loc 1 274 0
 2255 0026 2868     		ldr	r0, [r5]
 2256 0028 10B9     		cbnz	r0, .L350
 2257              	.L354:
 280:sxmlc/sxmlc.c **** 	if (dst->text != NULL) {
 2258              		.loc 1 280 0
 2259 002a 6368     		ldr	r3, [r4, #4]
 2260 002c 33B9     		cbnz	r3, .L351
 2261 002e 0BE0     		b	.L352
 2262              	.L350:
 275:sxmlc/sxmlc.c **** 		dst->tag = sx_strdup(src->tag);
 2263              		.loc 1 275 0
 2264 0030 FFF7FEFF 		bl	strdup
 2265              	.LVL254:
 2266 0034 2060     		str	r0, [r4]
 276:sxmlc/sxmlc.c **** 		if (dst->tag == NULL) goto copy_err;
 2267              		.loc 1 276 0
 2268 0036 0028     		cmp	r0, #0
 2269 0038 F7D1     		bne	.L354
 2270 003a 58E0     		b	.L353
 2271              	.L351:
 281:sxmlc/sxmlc.c **** 		dst->text = sx_strdup(src->text);
 2272              		.loc 1 281 0
 2273 003c 6868     		ldr	r0, [r5, #4]
 2274 003e FFF7FEFF 		bl	strdup
 2275              	.LVL255:
 2276 0042 6060     		str	r0, [r4, #4]
 282:sxmlc/sxmlc.c **** 		if (dst->text == NULL) goto copy_err;
 2277              		.loc 1 282 0
 2278 0044 0028     		cmp	r0, #0
 2279 0046 52D0     		beq	.L353
 2280              	.L352:
 286:sxmlc/sxmlc.c **** 	if (src->n_attributes > 0) {
 2281              		.loc 1 286 0
 2282 0048 EF68     		ldr	r7, [r5, #12]
 2283 004a 002F     		cmp	r7, #0
 2284 004c 0DDD     		ble	.L356
 287:sxmlc/sxmlc.c **** 		dst->attributes = (XMLAttribute*)__calloc(src->n_attributes, sizeof(XMLAttribute));
 2285              		.loc 1 287 0
 2286 004e 3846     		mov	r0, r7
 2287 0050 0C21     		movs	r1, #12
 2288 0052 FFF7FEFF 		bl	calloc
 2289              	.LVL256:
 2290 0056 A060     		str	r0, [r4, #8]
 288:sxmlc/sxmlc.c **** 		if (dst->attributes== NULL) goto copy_err;
 2291              		.loc 1 288 0
 2292 0058 0028     		cmp	r0, #0
 2293 005a 48D0     		beq	.L353
 289:sxmlc/sxmlc.c **** 		dst->n_attributes = src->n_attributes;
 2294              		.loc 1 289 0
 2295 005c E760     		str	r7, [r4, #12]
 2296              	.LVL257:
 2297 005e 00F10806 		add	r6, r0, #8
 290:sxmlc/sxmlc.c **** 		for (i = 0; i < src->n_attributes; i++) {
 2298              		.loc 1 290 0
 2299 0062 0027     		movs	r7, #0
 2300              	.LVL258:
 2301              	.L359:
 290:sxmlc/sxmlc.c **** 		for (i = 0; i < src->n_attributes; i++) {
 2302              		.loc 1 290 0 is_stmt 0 discriminator 1
 2303 0064 EB68     		ldr	r3, [r5, #12]
 2304 0066 9F42     		cmp	r7, r3
 2305 0068 0BDB     		blt	.L360
 2306              	.LVL259:
 2307              	.L356:
 298:sxmlc/sxmlc.c **** 	dst->tag_type = src->tag_type;
 2308              		.loc 1 298 0 is_stmt 1
 2309 006a 2B7F     		ldrb	r3, [r5, #28]	@ zero_extendqisi2
 2310 006c 2377     		strb	r3, [r4, #28]
 299:sxmlc/sxmlc.c **** 	dst->father = src->father;
 2311              		.loc 1 299 0
 2312 006e 2B69     		ldr	r3, [r5, #16]
 2313 0070 2361     		str	r3, [r4, #16]
 300:sxmlc/sxmlc.c **** 	dst->user = src->user;
 2314              		.loc 1 300 0
 2315 0072 6B6A     		ldr	r3, [r5, #36]
 2316 0074 6362     		str	r3, [r4, #36]
 301:sxmlc/sxmlc.c **** 	dst->active = src->active;
 2317              		.loc 1 301 0
 2318 0076 2B6A     		ldr	r3, [r5, #32]
 2319 0078 2362     		str	r3, [r4, #32]
 304:sxmlc/sxmlc.c **** 	if (copy_children && src->n_children > 0) {
 2320              		.loc 1 304 0
 2321 007a B9F1000F 		cmp	r9, #0
 2322 007e 1CD1     		bne	.L357
 2323 0080 CEE7     		b	.L358
 2324              	.LVL260:
 2325              	.L360:
 2326 0082 0C23     		movs	r3, #12
 2327 0084 7B43     		muls	r3, r7, r3
 291:sxmlc/sxmlc.c **** 			dst->attributes[i].name = sx_strdup(src->attributes[i].name);
 2328              		.loc 1 291 0
 2329 0086 AA68     		ldr	r2, [r5, #8]
 2330 0088 D058     		ldr	r0, [r2, r3]
 2331 008a 02EB0308 		add	r8, r2, r3
 2332 008e FFF7FEFF 		bl	strdup
 2333              	.LVL261:
 2334 0092 46F8080C 		str	r0, [r6, #-8]
 2335 0096 8246     		mov	r10, r0
 292:sxmlc/sxmlc.c **** 			dst->attributes[i].value = sx_strdup(src->attributes[i].value);
 2336              		.loc 1 292 0
 2337 0098 D8F80400 		ldr	r0, [r8, #4]
 2338 009c FFF7FEFF 		bl	strdup
 2339              	.LVL262:
 2340 00a0 46F8040C 		str	r0, [r6, #-4]
 293:sxmlc/sxmlc.c **** 			if (dst->attributes[i].name == NULL || dst->attributes[i].value == NULL) goto copy_err;
 2341              		.loc 1 293 0
 2342 00a4 BAF1000F 		cmp	r10, #0
 2343 00a8 21D0     		beq	.L353
 2344 00aa 0C36     		adds	r6, r6, #12
 293:sxmlc/sxmlc.c **** 			if (dst->attributes[i].name == NULL || dst->attributes[i].value == NULL) goto copy_err;
 2345              		.loc 1 293 0 is_stmt 0 discriminator 1
 2346 00ac F8B1     		cbz	r0, .L353
 294:sxmlc/sxmlc.c **** 			dst->attributes[i].active = src->attributes[i].active;
 2347              		.loc 1 294 0 is_stmt 1
 2348 00ae D8F80830 		ldr	r3, [r8, #8]
 290:sxmlc/sxmlc.c **** 		for (i = 0; i < src->n_attributes; i++) {
 2349              		.loc 1 290 0
 2350 00b2 0137     		adds	r7, r7, #1
 2351              	.LVL263:
 294:sxmlc/sxmlc.c **** 			dst->attributes[i].active = src->attributes[i].active;
 2352              		.loc 1 294 0
 2353 00b4 46F80C3C 		str	r3, [r6, #-12]
 2354 00b8 D4E7     		b	.L359
 2355              	.LVL264:
 2356              	.L357:
 304:sxmlc/sxmlc.c **** 	if (copy_children && src->n_children > 0) {
 2357              		.loc 1 304 0 discriminator 1
 2358 00ba AE69     		ldr	r6, [r5, #24]
 2359 00bc 002E     		cmp	r6, #0
 2360 00be AFDD     		ble	.L358
 305:sxmlc/sxmlc.c **** 		dst->children = (XMLNode**)__calloc(src->n_children, sizeof(XMLNode*));
 2361              		.loc 1 305 0
 2362 00c0 3046     		mov	r0, r6
 2363 00c2 0421     		movs	r1, #4
 2364 00c4 FFF7FEFF 		bl	calloc
 2365              	.LVL265:
 2366 00c8 6061     		str	r0, [r4, #20]
 306:sxmlc/sxmlc.c **** 		if (dst->children == NULL) goto copy_err;
 2367              		.loc 1 306 0
 2368 00ca 80B1     		cbz	r0, .L353
 307:sxmlc/sxmlc.c **** 		dst->n_children = src->n_children;
 2369              		.loc 1 307 0
 2370 00cc A661     		str	r6, [r4, #24]
 2371              	.LVL266:
 308:sxmlc/sxmlc.c **** 		for (i = 0; i < src->n_children; i++) {
 2372              		.loc 1 308 0
 2373 00ce 0026     		movs	r6, #0
 2374              	.LVL267:
 2375              	.L361:
 308:sxmlc/sxmlc.c **** 		for (i = 0; i < src->n_children; i++) {
 2376              		.loc 1 308 0 is_stmt 0 discriminator 1
 2377 00d0 AB69     		ldr	r3, [r5, #24]
 2378 00d2 9E42     		cmp	r6, r3
 2379 00d4 A4DA     		bge	.L358
 309:sxmlc/sxmlc.c **** 			if (!XMLNode_copy(dst->children[i], src->children[i], true)) goto copy_err;
 2380              		.loc 1 309 0 is_stmt 1
 2381 00d6 6269     		ldr	r2, [r4, #20]
 2382 00d8 6B69     		ldr	r3, [r5, #20]
 2383 00da 52F82600 		ldr	r0, [r2, r6, lsl #2]
 2384 00de 53F82610 		ldr	r1, [r3, r6, lsl #2]
 2385 00e2 0122     		movs	r2, #1
 2386 00e4 FFF7FEFF 		bl	XMLNode_copy
 2387              	.LVL268:
 2388 00e8 08B1     		cbz	r0, .L353
 308:sxmlc/sxmlc.c **** 		for (i = 0; i < src->n_children; i++) {
 2389              		.loc 1 308 0
 2390 00ea 0136     		adds	r6, r6, #1
 2391              	.LVL269:
 2392 00ec F0E7     		b	.L361
 2393              	.LVL270:
 2394              	.L353:
 2395              	.LDL1:
 316:sxmlc/sxmlc.c **** 	(void)XMLNode_free(dst);
 2396              		.loc 1 316 0
 2397 00ee 2046     		mov	r0, r4
 2398 00f0 FFF7FEFF 		bl	XMLNode_free
 2399              	.LVL271:
 2400              	.L364:
 265:sxmlc/sxmlc.c **** 		return false;
 2401              		.loc 1 265 0
 2402 00f4 0020     		movs	r0, #0
 319:sxmlc/sxmlc.c **** }
 2403              		.loc 1 319 0
 2404 00f6 BDE8F087 		pop	{r4, r5, r6, r7, r8, r9, r10, pc}
 2405              	.LVL272:
 2406              	.L390:
 2407 00fa 00BF     		.align	2
 2408              	.L389:
 2409 00fc 22057719 		.word	427230498
 2410              		.cfi_endproc
 2411              	.LFE9:
 2413              		.section	.text.XMLNode_dup,"ax",%progbits
 2414              		.align	1
 2415              		.global	XMLNode_dup
 2416              		.thumb
 2417              		.thumb_func
 2419              	XMLNode_dup:
 2420              	.LFB7:
 221:sxmlc/sxmlc.c **** {
 2421              		.loc 1 221 0
 2422              		.cfi_startproc
 2423              		@ args = 0, pretend = 0, frame = 0
 2424              		@ frame_needed = 0, uses_anonymous_args = 0
 2425              	.LVL273:
 2426 0000 70B5     		push	{r4, r5, r6, lr}
 2427              		.cfi_def_cfa_offset 16
 2428              		.cfi_offset 4, -16
 2429              		.cfi_offset 5, -12
 2430              		.cfi_offset 6, -8
 2431              		.cfi_offset 14, -4
 221:sxmlc/sxmlc.c **** {
 2432              		.loc 1 221 0
 2433 0002 0E46     		mov	r6, r1
 224:sxmlc/sxmlc.c **** 	if (node == NULL)
 2434              		.loc 1 224 0
 2435 0004 0546     		mov	r5, r0
 2436 0006 08B9     		cbnz	r0, .L392
 2437              	.LVL274:
 2438              	.L394:
 225:sxmlc/sxmlc.c **** 		return NULL;
 2439              		.loc 1 225 0
 2440 0008 0020     		movs	r0, #0
 2441 000a 70BD     		pop	{r4, r5, r6, pc}
 2442              	.LVL275:
 2443              	.L392:
 227:sxmlc/sxmlc.c **** 	n = (XMLNode*)__calloc(1, sizeof(XMLNode));
 2444              		.loc 1 227 0
 2445 000c 0120     		movs	r0, #1
 2446              	.LVL276:
 2447 000e 2C21     		movs	r1, #44
 2448              	.LVL277:
 2449 0010 FFF7FEFF 		bl	calloc
 2450              	.LVL278:
 228:sxmlc/sxmlc.c **** 	if (n == NULL)
 2451              		.loc 1 228 0
 2452 0014 0446     		mov	r4, r0
 2453 0016 0028     		cmp	r0, #0
 2454 0018 F6D0     		beq	.L394
 231:sxmlc/sxmlc.c **** 	XMLNode_init(n);
 2455              		.loc 1 231 0
 2456 001a FFF7FEFF 		bl	XMLNode_init
 2457              	.LVL279:
 232:sxmlc/sxmlc.c **** 	if (!XMLNode_copy(n, node, copy_children)) {
 2458              		.loc 1 232 0
 2459 001e 2946     		mov	r1, r5
 2460 0020 2046     		mov	r0, r4
 2461 0022 3246     		mov	r2, r6
 2462 0024 FFF7FEFF 		bl	XMLNode_copy
 2463              	.LVL280:
 2464 0028 0546     		mov	r5, r0
 2465              	.LVL281:
 233:sxmlc/sxmlc.c **** 		XMLNode_free(n);
 2466              		.loc 1 233 0
 2467 002a 2046     		mov	r0, r4
 232:sxmlc/sxmlc.c **** 	if (!XMLNode_copy(n, node, copy_children)) {
 2468              		.loc 1 232 0
 2469 002c 15B9     		cbnz	r5, .L395
 233:sxmlc/sxmlc.c **** 		XMLNode_free(n);
 2470              		.loc 1 233 0
 2471 002e FFF7FEFF 		bl	XMLNode_free
 2472              	.LVL282:
 2473 0032 E9E7     		b	.L394
 2474              	.LVL283:
 2475              	.L395:
 239:sxmlc/sxmlc.c **** }
 2476              		.loc 1 239 0
 2477 0034 70BD     		pop	{r4, r5, r6, pc}
 2478              		.cfi_endproc
 2479              	.LFE7:
 2481              		.section	.text.XMLNode_remove_child,"ax",%progbits
 2482              		.align	1
 2483              		.global	XMLNode_remove_child
 2484              		.thumb
 2485              		.thumb_func
 2487              	XMLNode_remove_child:
 2488              	.LFB23:
 586:sxmlc/sxmlc.c **** {
 2489              		.loc 1 586 0
 2490              		.cfi_startproc
 2491              		@ args = 0, pretend = 0, frame = 0
 2492              		@ frame_needed = 0, uses_anonymous_args = 0
 2493              	.LVL284:
 2494 0000 2DE9F041 		push	{r4, r5, r6, r7, r8, lr}
 2495              		.cfi_def_cfa_offset 24
 2496              		.cfi_offset 4, -24
 2497              		.cfi_offset 5, -20
 2498              		.cfi_offset 6, -16
 2499              		.cfi_offset 7, -12
 2500              		.cfi_offset 8, -8
 2501              		.cfi_offset 14, -4
 586:sxmlc/sxmlc.c **** {
 2502              		.loc 1 586 0
 2503 0004 0D46     		mov	r5, r1
 2504 0006 9046     		mov	r8, r2
 590:sxmlc/sxmlc.c **** 	if (node == NULL || node->init_value != XML_INIT_DONE || i_child < 0 || i_child >= node->n_childre
 2505              		.loc 1 590 0
 2506 0008 0446     		mov	r4, r0
 2507 000a 18B9     		cbnz	r0, .L400
 2508              	.LVL285:
 2509              	.L402:
 591:sxmlc/sxmlc.c **** 		return -1;
 2510              		.loc 1 591 0
 2511 000c 4FF0FF30 		mov	r0, #-1
 2512 0010 BDE8F081 		pop	{r4, r5, r6, r7, r8, pc}
 2513              	.LVL286:
 2514              	.L400:
 590:sxmlc/sxmlc.c **** 	if (node == NULL || node->init_value != XML_INIT_DONE || i_child < 0 || i_child >= node->n_childre
 2515              		.loc 1 590 0 discriminator 1
 2516 0014 836A     		ldr	r3, [r0, #40]
 2517 0016 264A     		ldr	r2, .L428
 2518              	.LVL287:
 2519 0018 9342     		cmp	r3, r2
 2520 001a F7D1     		bne	.L402
 2521 001c 0029     		cmp	r1, #0
 2522 001e F5DB     		blt	.L402
 2523 0020 8069     		ldr	r0, [r0, #24]
 2524              	.LVL288:
 2525 0022 8142     		cmp	r1, r0
 2526 0024 F2DA     		bge	.L402
 590:sxmlc/sxmlc.c **** 	if (node == NULL || node->init_value != XML_INIT_DONE || i_child < 0 || i_child >= node->n_childre
 2527              		.loc 1 590 0 is_stmt 0
 2528 0026 0023     		movs	r3, #0
 2529              	.LVL289:
 2530              	.L403:
 594:sxmlc/sxmlc.c **** 	for (i = 0; i < node->n_children; i++) {
 2531              		.loc 1 594 0 is_stmt 1 discriminator 1
 2532 0028 8342     		cmp	r3, r0
 2533 002a EFDA     		bge	.L402
 595:sxmlc/sxmlc.c **** 		if (!node->children[i]->active)
 2534              		.loc 1 595 0
 2535 002c 6269     		ldr	r2, [r4, #20]
 2536 002e 52F82320 		ldr	r2, [r2, r3, lsl #2]
 2537 0032 126A     		ldr	r2, [r2, #32]
 2538 0034 0AB9     		cbnz	r2, .L404
 596:sxmlc/sxmlc.c **** 			i_child++;
 2539              		.loc 1 596 0
 2540 0036 0135     		adds	r5, r5, #1
 2541              	.LVL290:
 2542 0038 04E0     		b	.L405
 2543              	.L404:
 597:sxmlc/sxmlc.c **** 		else if (i == i_child)
 2544              		.loc 1 597 0
 2545 003a AB42     		cmp	r3, r5
 2546 003c 02D1     		bne	.L405
 604:sxmlc/sxmlc.c **** 	if (node->n_children == 1)
 2547              		.loc 1 604 0
 2548 003e 0128     		cmp	r0, #1
 2549 0040 02D1     		bne	.L426
 2550 0042 08E0     		b	.L427
 2551              	.L405:
 594:sxmlc/sxmlc.c **** 	for (i = 0; i < node->n_children; i++) {
 2552              		.loc 1 594 0
 2553 0044 0133     		adds	r3, r3, #1
 2554              	.LVL291:
 2555 0046 EFE7     		b	.L403
 2556              	.L426:
 607:sxmlc/sxmlc.c **** 		pt = (XMLNode**)__malloc((node->n_children - 1) * sizeof(XMLNode*));
 2557              		.loc 1 607 0
 2558 0048 0138     		subs	r0, r0, #1
 2559 004a 8000     		lsls	r0, r0, #2
 2560 004c FFF7FEFF 		bl	malloc
 2561              	.LVL292:
 608:sxmlc/sxmlc.c **** 		if (pt == NULL)
 2562              		.loc 1 608 0
 2563 0050 0646     		mov	r6, r0
 2564 0052 08B9     		cbnz	r0, .L406
 2565 0054 DAE7     		b	.L402
 2566              	.LVL293:
 2567              	.L427:
 605:sxmlc/sxmlc.c **** 		pt = NULL;
 2568              		.loc 1 605 0
 2569 0056 0026     		movs	r6, #0
 2570              	.LVL294:
 2571              	.L406:
 613:sxmlc/sxmlc.c **** 	(void)XMLNode_free(node->children[i_child]);
 2572              		.loc 1 613 0
 2573 0058 6369     		ldr	r3, [r4, #20]
 2574 005a AF00     		lsls	r7, r5, #2
 2575 005c 53F82500 		ldr	r0, [r3, r5, lsl #2]
 2576 0060 FFF7FEFF 		bl	XMLNode_free
 2577              	.LVL295:
 614:sxmlc/sxmlc.c **** 	if (free_child)
 2578              		.loc 1 614 0
 2579 0064 B8F1000F 		cmp	r8, #0
 2580 0068 04D0     		beq	.L410
 615:sxmlc/sxmlc.c **** 		__free(node->children[i_child]);
 2581              		.loc 1 615 0
 2582 006a 6369     		ldr	r3, [r4, #20]
 2583 006c 53F82500 		ldr	r0, [r3, r5, lsl #2]
 2584 0070 FFF7FEFF 		bl	free
 2585              	.LVL296:
 2586              	.L410:
 617:sxmlc/sxmlc.c **** 	if (pt != NULL) {
 2587              		.loc 1 617 0
 2588 0074 76B1     		cbz	r6, .L411
 618:sxmlc/sxmlc.c **** 		memcpy(pt, node->children, i_child * sizeof(XMLNode*));
 2589              		.loc 1 618 0
 2590 0076 6169     		ldr	r1, [r4, #20]
 2591 0078 3A46     		mov	r2, r7
 2592 007a 3046     		mov	r0, r6
 2593 007c FFF7FEFF 		bl	memcpy
 2594              	.LVL297:
 619:sxmlc/sxmlc.c **** 		memcpy(&pt[i_child], &node->children[i_child + 1], (node->n_children - i_child - 1) * sizeof(XMLN
 2595              		.loc 1 619 0
 2596 0080 A369     		ldr	r3, [r4, #24]
 2597 0082 391D     		adds	r1, r7, #4
 2598 0084 5D1B     		subs	r5, r3, r5
 2599              	.LVL298:
 2600 0086 6369     		ldr	r3, [r4, #20]
 2601 0088 6A1E     		subs	r2, r5, #1
 2602 008a F019     		adds	r0, r6, r7
 2603 008c 1944     		add	r1, r1, r3
 2604 008e 9200     		lsls	r2, r2, #2
 2605 0090 FFF7FEFF 		bl	memcpy
 2606              	.LVL299:
 2607              	.L411:
 621:sxmlc/sxmlc.c **** 	if (node->children != NULL)
 2608              		.loc 1 621 0
 2609 0094 6069     		ldr	r0, [r4, #20]
 2610 0096 08B1     		cbz	r0, .L412
 622:sxmlc/sxmlc.c **** 		__free(node->children);
 2611              		.loc 1 622 0
 2612 0098 FFF7FEFF 		bl	free
 2613              	.LVL300:
 2614              	.L412:
 624:sxmlc/sxmlc.c **** 	node->n_children--;
 2615              		.loc 1 624 0
 2616 009c A069     		ldr	r0, [r4, #24]
 623:sxmlc/sxmlc.c **** 	node->children = pt;
 2617              		.loc 1 623 0
 2618 009e 6661     		str	r6, [r4, #20]
 624:sxmlc/sxmlc.c **** 	node->n_children--;
 2619              		.loc 1 624 0
 2620 00a0 0138     		subs	r0, r0, #1
 2621 00a2 A061     		str	r0, [r4, #24]
 625:sxmlc/sxmlc.c **** 	if (node->n_children == 0)
 2622              		.loc 1 625 0
 2623 00a4 08B9     		cbnz	r0, .L401
 626:sxmlc/sxmlc.c **** 		node->tag_type = TAG_SELF;
 2624              		.loc 1 626 0
 2625 00a6 0323     		movs	r3, #3
 2626 00a8 2377     		strb	r3, [r4, #28]
 2627              	.L401:
 629:sxmlc/sxmlc.c **** }
 2628              		.loc 1 629 0
 2629 00aa BDE8F081 		pop	{r4, r5, r6, r7, r8, pc}
 2630              	.LVL301:
 2631              	.L429:
 2632 00ae 00BF     		.align	2
 2633              	.L428:
 2634 00b0 22057719 		.word	427230498
 2635              		.cfi_endproc
 2636              	.LFE23:
 2638              		.section	.text.DOMXMLDoc_node_start,"ax",%progbits
 2639              		.align	1
 2640              		.global	DOMXMLDoc_node_start
 2641              		.thumb
 2642              		.thumb_func
 2644              	DOMXMLDoc_node_start:
 2645              	.LFB47:
1417:sxmlc/sxmlc.c **** {
 2646              		.loc 1 1417 0
 2647              		.cfi_startproc
 2648              		@ args = 0, pretend = 0, frame = 0
 2649              		@ frame_needed = 0, uses_anonymous_args = 0
 2650              	.LVL302:
 2651 0000 F8B5     		push	{r3, r4, r5, r6, r7, lr}
 2652              		.cfi_def_cfa_offset 24
 2653              		.cfi_offset 3, -24
 2654              		.cfi_offset 4, -20
 2655              		.cfi_offset 5, -16
 2656              		.cfi_offset 6, -12
 2657              		.cfi_offset 7, -8
 2658              		.cfi_offset 14, -4
1418:sxmlc/sxmlc.c **** 	DOM_through_SAX* dom = (DOM_through_SAX*)sd->user;
 2659              		.loc 1 1418 0
 2660 0002 8D68     		ldr	r5, [r1, #8]
 2661              	.LVL303:
1417:sxmlc/sxmlc.c **** {
 2662              		.loc 1 1417 0
 2663 0004 0E46     		mov	r6, r1
1422:sxmlc/sxmlc.c **** 	if ((new_node = XMLNode_dup(node, true)) == NULL) goto node_start_err; /* No real need to put 'tru
 2664              		.loc 1 1422 0
 2665 0006 0121     		movs	r1, #1
 2666              	.LVL304:
1417:sxmlc/sxmlc.c **** {
 2667              		.loc 1 1417 0
 2668 0008 0746     		mov	r7, r0
1422:sxmlc/sxmlc.c **** 	if ((new_node = XMLNode_dup(node, true)) == NULL) goto node_start_err; /* No real need to put 'tru
 2669              		.loc 1 1422 0
 2670 000a FFF7FEFF 		bl	XMLNode_dup
 2671              	.LVL305:
 2672 000e 0446     		mov	r4, r0
 2673 0010 20B3     		cbz	r0, .L431
1424:sxmlc/sxmlc.c **** 	if (dom->current == NULL) {
 2674              		.loc 1 1424 0
 2675 0012 6968     		ldr	r1, [r5, #4]
 2676 0014 A9B9     		cbnz	r1, .L432
1425:sxmlc/sxmlc.c **** 		if ((i = _add_node(&dom->doc->nodes, &dom->doc->n_nodes, new_node)) < 0) goto node_start_err;
 2677              		.loc 1 1425 0
 2678 0016 2968     		ldr	r1, [r5]
 2679 0018 2246     		mov	r2, r4
 2680 001a 01F58070 		add	r0, r1, #256
 2681              	.LVL306:
 2682 001e 01F58271 		add	r1, r1, #260
 2683 0022 FFF7FEFF 		bl	_add_node
 2684              	.LVL307:
 2685 0026 0028     		cmp	r0, #0
 2686 0028 18DB     		blt	.L431
1427:sxmlc/sxmlc.c **** 		if (dom->doc->i_root < 0 && (node->tag_type == TAG_FATHER || node->tag_type == TAG_SELF))
 2687              		.loc 1 1427 0
 2688 002a 2B68     		ldr	r3, [r5]
 2689 002c D3F80821 		ldr	r2, [r3, #264]
 2690 0030 002A     		cmp	r2, #0
 2691 0032 0EDA     		bge	.L434
1427:sxmlc/sxmlc.c **** 		if (dom->doc->i_root < 0 && (node->tag_type == TAG_FATHER || node->tag_type == TAG_SELF))
 2692              		.loc 1 1427 0 is_stmt 0 discriminator 1
 2693 0034 3A7F     		ldrb	r2, [r7, #28]	@ zero_extendqisi2
 2694 0036 023A     		subs	r2, r2, #2
 2695 0038 012A     		cmp	r2, #1
 2696 003a 0AD8     		bhi	.L434
1428:sxmlc/sxmlc.c **** 			dom->doc->i_root = i;
 2697              		.loc 1 1428 0 is_stmt 1
 2698 003c C3F80801 		str	r0, [r3, #264]
 2699 0040 07E0     		b	.L434
 2700              	.LVL308:
 2701              	.L432:
1430:sxmlc/sxmlc.c **** 		if (_add_node(&dom->current->children, &dom->current->n_children, new_node) < 0) goto node_start_
 2702              		.loc 1 1430 0
 2703 0042 01F11400 		add	r0, r1, #20
 2704              	.LVL309:
 2705 0046 2246     		mov	r2, r4
 2706 0048 1831     		adds	r1, r1, #24
 2707 004a FFF7FEFF 		bl	_add_node
 2708              	.LVL310:
 2709 004e 0028     		cmp	r0, #0
 2710 0050 04DB     		blt	.L431
 2711              	.L434:
1433:sxmlc/sxmlc.c **** 	new_node->father = dom->current;
 2712              		.loc 1 1433 0
 2713 0052 6B68     		ldr	r3, [r5, #4]
1436:sxmlc/sxmlc.c **** 	return true;
 2714              		.loc 1 1436 0
 2715 0054 0120     		movs	r0, #1
1433:sxmlc/sxmlc.c **** 	new_node->father = dom->current;
 2716              		.loc 1 1433 0
 2717 0056 2361     		str	r3, [r4, #16]
1434:sxmlc/sxmlc.c **** 	dom->current = new_node;
 2718              		.loc 1 1434 0
 2719 0058 6C60     		str	r4, [r5, #4]
1436:sxmlc/sxmlc.c **** 	return true;
 2720              		.loc 1 1436 0
 2721 005a F8BD     		pop	{r3, r4, r5, r6, r7, pc}
 2722              	.LVL311:
 2723              	.L431:
 2724              	.LDL2:
1439:sxmlc/sxmlc.c **** 	dom->error = PARSE_ERR_MEMORY;
 2725              		.loc 1 1439 0
 2726 005c FF23     		movs	r3, #255
 2727 005e 2B72     		strb	r3, [r5, #8]
1440:sxmlc/sxmlc.c **** 	dom->line_error = sd->line_num;
 2728              		.loc 1 1440 0
 2729 0060 7368     		ldr	r3, [r6, #4]
1441:sxmlc/sxmlc.c **** 	(void)XMLNode_free(new_node);
 2730              		.loc 1 1441 0
 2731 0062 2046     		mov	r0, r4
1440:sxmlc/sxmlc.c **** 	dom->line_error = sd->line_num;
 2732              		.loc 1 1440 0
 2733 0064 EB60     		str	r3, [r5, #12]
1441:sxmlc/sxmlc.c **** 	(void)XMLNode_free(new_node);
 2734              		.loc 1 1441 0
 2735 0066 FFF7FEFF 		bl	XMLNode_free
 2736              	.LVL312:
1442:sxmlc/sxmlc.c **** 	__free(new_node);
 2737              		.loc 1 1442 0
 2738 006a 2046     		mov	r0, r4
 2739 006c FFF7FEFF 		bl	free
 2740              	.LVL313:
1444:sxmlc/sxmlc.c **** 	return false;
 2741              		.loc 1 1444 0
 2742 0070 0020     		movs	r0, #0
1445:sxmlc/sxmlc.c **** }
 2743              		.loc 1 1445 0
 2744 0072 F8BD     		pop	{r3, r4, r5, r6, r7, pc}
 2745              		.cfi_endproc
 2746              	.LFE47:
 2748              		.section	.text.DOMXMLDoc_node_text,"ax",%progbits
 2749              		.align	1
 2750              		.global	DOMXMLDoc_node_text
 2751              		.thumb
 2752              		.thumb_func
 2754              	DOMXMLDoc_node_text:
 2755              	.LFB49:
1470:sxmlc/sxmlc.c **** {
 2756              		.loc 1 1470 0
 2757              		.cfi_startproc
 2758              		@ args = 0, pretend = 0, frame = 0
 2759              		@ frame_needed = 0, uses_anonymous_args = 0
 2760              	.LVL314:
 2761 0000 2DE9F843 		push	{r3, r4, r5, r6, r7, r8, r9, lr}
 2762              		.cfi_def_cfa_offset 32
 2763              		.cfi_offset 3, -32
 2764              		.cfi_offset 4, -28
 2765              		.cfi_offset 5, -24
 2766              		.cfi_offset 6, -20
 2767              		.cfi_offset 7, -16
 2768              		.cfi_offset 8, -12
 2769              		.cfi_offset 9, -8
 2770              		.cfi_offset 14, -4
1472:sxmlc/sxmlc.c **** 	DOM_through_SAX* dom = (DOM_through_SAX*)sd->user;
 2771              		.loc 1 1472 0
 2772 0004 8C68     		ldr	r4, [r1, #8]
 2773              	.LVL315:
1470:sxmlc/sxmlc.c **** {
 2774              		.loc 1 1470 0
 2775 0006 0746     		mov	r7, r0
1481:sxmlc/sxmlc.c **** 	if (dom->current == NULL) {
 2776              		.loc 1 1481 0
 2777 0008 6368     		ldr	r3, [r4, #4]
1470:sxmlc/sxmlc.c **** {
 2778              		.loc 1 1470 0
 2779 000a 0E46     		mov	r6, r1
1481:sxmlc/sxmlc.c **** 	if (dom->current == NULL) {
 2780              		.loc 1 1481 0
 2781 000c 93B9     		cbnz	r3, .L441
1482:sxmlc/sxmlc.c **** 		while(*p != NULC && sx_isspace(*p++)) ;
 2782              		.loc 1 1482 0
 2783 000e 314B     		ldr	r3, .L468
 2784 0010 1968     		ldr	r1, [r3]
 2785              	.LVL316:
 2786              	.L443:
 2787 0012 3B46     		mov	r3, r7
 2788              	.LVL317:
1482:sxmlc/sxmlc.c **** 		while(*p != NULC && sx_isspace(*p++)) ;
 2789              		.loc 1 1482 0 is_stmt 0 discriminator 1
 2790 0014 17F8012B 		ldrb	r2, [r7], #1	@ zero_extendqisi2
 2791 0018 22B1     		cbz	r2, .L442
1482:sxmlc/sxmlc.c **** 		while(*p != NULC && sx_isspace(*p++)) ;
 2792              		.loc 1 1482 0 discriminator 2
 2793 001a 0A44     		add	r2, r2, r1
 2794 001c 5278     		ldrb	r2, [r2, #1]	@ zero_extendqisi2
 2795 001e 3B46     		mov	r3, r7
 2796              	.LVL318:
 2797 0020 1207     		lsls	r2, r2, #28
 2798 0022 F6D4     		bmi	.L443
 2799              	.L442:
1483:sxmlc/sxmlc.c **** 		if (*p == NULC) /* Only spaces => probably pretty-printing */
 2800              		.loc 1 1483 0 is_stmt 1
 2801 0024 1B78     		ldrb	r3, [r3]	@ zero_extendqisi2
 2802              	.LVL319:
 2803 0026 002B     		cmp	r3, #0
 2804 0028 50D0     		beq	.L451
1485:sxmlc/sxmlc.c **** 		dom->error = PARSE_ERR_TEXT_OUTSIDE_NODE;
 2805              		.loc 1 1485 0
 2806 002a FB23     		movs	r3, #251
 2807 002c 2372     		strb	r3, [r4, #8]
1486:sxmlc/sxmlc.c **** 		dom->line_error = sd->line_num;
 2808              		.loc 1 1486 0
 2809 002e 7368     		ldr	r3, [r6, #4]
 2810 0030 E360     		str	r3, [r4, #12]
 2811 0032 10E0     		b	.L467
 2812              	.LVL320:
 2813              	.L441:
1490:sxmlc/sxmlc.c **** 	if (dom->text_as_nodes) {
 2814              		.loc 1 1490 0
 2815 0034 2569     		ldr	r5, [r4, #16]
 2816 0036 25B3     		cbz	r5, .L445
 2817              	.LBB9:
1491:sxmlc/sxmlc.c **** 		XMLNode* new_node = XMLNode_allocN(1);
 2818              		.loc 1 1491 0
 2819 0038 0120     		movs	r0, #1
 2820              	.LVL321:
 2821 003a FFF7FEFF 		bl	XMLNode_allocN
 2822              	.LVL322:
1492:sxmlc/sxmlc.c **** 		if (new_node == NULL || (new_node->text = sx_strdup(text)) == NULL
 2823              		.loc 1 1492 0
 2824 003e 0546     		mov	r5, r0
 2825 0040 58B9     		cbnz	r0, .L446
 2826              	.LVL323:
 2827              	.L447:
1494:sxmlc/sxmlc.c **** 			dom->error = PARSE_ERR_MEMORY;
 2828              		.loc 1 1494 0
 2829 0042 FF23     		movs	r3, #255
 2830 0044 2372     		strb	r3, [r4, #8]
1495:sxmlc/sxmlc.c **** 			dom->line_error = sd->line_num;
 2831              		.loc 1 1495 0
 2832 0046 7368     		ldr	r3, [r6, #4]
1496:sxmlc/sxmlc.c **** 			(void)XMLNode_free(new_node);
 2833              		.loc 1 1496 0
 2834 0048 2846     		mov	r0, r5
1495:sxmlc/sxmlc.c **** 			dom->line_error = sd->line_num;
 2835              		.loc 1 1495 0
 2836 004a E360     		str	r3, [r4, #12]
1496:sxmlc/sxmlc.c **** 			(void)XMLNode_free(new_node);
 2837              		.loc 1 1496 0
 2838 004c FFF7FEFF 		bl	XMLNode_free
 2839              	.LVL324:
1497:sxmlc/sxmlc.c **** 			__free(new_node);
 2840              		.loc 1 1497 0
 2841 0050 2846     		mov	r0, r5
 2842 0052 FFF7FEFF 		bl	free
 2843              	.LVL325:
 2844              	.L467:
1498:sxmlc/sxmlc.c **** 			return false;
 2845              		.loc 1 1498 0
 2846 0056 0025     		movs	r5, #0
 2847 0058 39E0     		b	.L444
 2848              	.LVL326:
 2849              	.L446:
1492:sxmlc/sxmlc.c **** 		if (new_node == NULL || (new_node->text = sx_strdup(text)) == NULL
 2850              		.loc 1 1492 0 discriminator 1
 2851 005a 3846     		mov	r0, r7
 2852              	.LVL327:
 2853 005c FFF7FEFF 		bl	strdup
 2854              	.LVL328:
 2855 0060 6860     		str	r0, [r5, #4]
 2856 0062 0028     		cmp	r0, #0
 2857 0064 EDD0     		beq	.L447
1493:sxmlc/sxmlc.c **** 			|| _add_node(&dom->current->children, &dom->current->n_children, new_node) < 0) {
 2858              		.loc 1 1493 0
 2859 0066 6168     		ldr	r1, [r4, #4]
 2860 0068 2A46     		mov	r2, r5
 2861 006a 01F11400 		add	r0, r1, #20
 2862 006e 1831     		adds	r1, r1, #24
 2863 0070 FFF7FEFF 		bl	_add_node
 2864              	.LVL329:
 2865 0074 0028     		cmp	r0, #0
 2866 0076 E4DB     		blt	.L447
1500:sxmlc/sxmlc.c **** 		new_node->tag_type = TAG_TEXT;
 2867              		.loc 1 1500 0
 2868 0078 0923     		movs	r3, #9
 2869 007a 2B77     		strb	r3, [r5, #28]
1501:sxmlc/sxmlc.c **** 		new_node->father = dom->current;
 2870              		.loc 1 1501 0
 2871 007c 6368     		ldr	r3, [r4, #4]
 2872 007e 2B61     		str	r3, [r5, #16]
 2873 0080 24E0     		b	.L451
 2874              	.LVL330:
 2875              	.L445:
 2876              	.LBE9:
1506:sxmlc/sxmlc.c **** 		if (dom->current->text == NULL) {
 2877              		.loc 1 1506 0
 2878 0082 D3F80480 		ldr	r8, [r3, #4]
 2879 0086 B8F1000F 		cmp	r8, #0
 2880 008a 04D1     		bne	.L448
1507:sxmlc/sxmlc.c **** 			p = sx_strdup(text);
 2881              		.loc 1 1507 0
 2882 008c FFF7FEFF 		bl	strdup
 2883              	.LVL331:
1513:sxmlc/sxmlc.c **** 		if (p == NULL) {
 2884              		.loc 1 1513 0
 2885 0090 8046     		mov	r8, r0
 2886 0092 C0B9     		cbnz	r0, .L450
 2887 0094 12E0     		b	.L449
 2888              	.LVL332:
 2889              	.L448:
1509:sxmlc/sxmlc.c **** 			p = (SXML_CHAR*)__realloc(dom->current->text, (sx_strlen(dom->current->text) + sx_strlen(text) +
 2890              		.loc 1 1509 0
 2891 0096 4046     		mov	r0, r8
 2892              	.LVL333:
 2893 0098 FFF7FEFF 		bl	strlen
 2894              	.LVL334:
 2895 009c 8146     		mov	r9, r0
 2896 009e 3846     		mov	r0, r7
 2897 00a0 FFF7FEFF 		bl	strlen
 2898              	.LVL335:
 2899 00a4 09EB0001 		add	r1, r9, r0
 2900 00a8 0131     		adds	r1, r1, #1
 2901 00aa 4046     		mov	r0, r8
 2902 00ac FFF7FEFF 		bl	realloc
 2903              	.LVL336:
1510:sxmlc/sxmlc.c **** 			if (p != NULL)
 2904              		.loc 1 1510 0
 2905 00b0 8046     		mov	r8, r0
 2906 00b2 18B1     		cbz	r0, .L449
1511:sxmlc/sxmlc.c **** 				sx_strcat(p, text);
 2907              		.loc 1 1511 0
 2908 00b4 3946     		mov	r1, r7
 2909 00b6 FFF7FEFF 		bl	strcat
 2910              	.LVL337:
 2911 00ba 04E0     		b	.L450
 2912              	.LVL338:
 2913              	.L449:
1514:sxmlc/sxmlc.c **** 			dom->error = PARSE_ERR_MEMORY;
 2914              		.loc 1 1514 0
 2915 00bc FF23     		movs	r3, #255
 2916 00be 2372     		strb	r3, [r4, #8]
1515:sxmlc/sxmlc.c **** 			dom->line_error = sd->line_num;
 2917              		.loc 1 1515 0
 2918 00c0 7368     		ldr	r3, [r6, #4]
 2919 00c2 E360     		str	r3, [r4, #12]
1516:sxmlc/sxmlc.c **** 			return false;
 2920              		.loc 1 1516 0
 2921 00c4 03E0     		b	.L444
 2922              	.LVL339:
 2923              	.L450:
1519:sxmlc/sxmlc.c **** 		dom->current->text = p;
 2924              		.loc 1 1519 0
 2925 00c6 6368     		ldr	r3, [r4, #4]
 2926 00c8 C3F80480 		str	r8, [r3, #4]
 2927              	.LVL340:
 2928              	.L451:
1484:sxmlc/sxmlc.c **** 			return true;
 2929              		.loc 1 1484 0
 2930 00cc 0125     		movs	r5, #1
 2931              	.L444:
1523:sxmlc/sxmlc.c **** }
 2932              		.loc 1 1523 0
 2933 00ce 2846     		mov	r0, r5
 2934 00d0 BDE8F883 		pop	{r3, r4, r5, r6, r7, r8, r9, pc}
 2935              	.LVL341:
 2936              	.L469:
 2937              		.align	2
 2938              	.L468:
 2939 00d4 00000000 		.word	__ctype_ptr__
 2940              		.cfi_endproc
 2941              	.LFE49:
 2943              		.section	.text.XMLNode_equal,"ax",%progbits
 2944              		.align	1
 2945              		.global	XMLNode_equal
 2946              		.thumb
 2947              		.thumb_func
 2949              	XMLNode_equal:
 2950              	.LFB25:
 653:sxmlc/sxmlc.c **** {
 2951              		.loc 1 653 0
 2952              		.cfi_startproc
 2953              		@ args = 0, pretend = 0, frame = 0
 2954              		@ frame_needed = 0, uses_anonymous_args = 0
 2955              	.LVL342:
 656:sxmlc/sxmlc.c **** 	if (node1 == node2)
 2956              		.loc 1 656 0
 2957 0000 8842     		cmp	r0, r1
 653:sxmlc/sxmlc.c **** {
 2958              		.loc 1 653 0
 2959 0002 2DE9F047 		push	{r4, r5, r6, r7, r8, r9, r10, lr}
 2960              		.cfi_def_cfa_offset 32
 2961              		.cfi_offset 4, -32
 2962              		.cfi_offset 5, -28
 2963              		.cfi_offset 6, -24
 2964              		.cfi_offset 7, -20
 2965              		.cfi_offset 8, -16
 2966              		.cfi_offset 9, -12
 2967              		.cfi_offset 10, -8
 2968              		.cfi_offset 14, -4
 653:sxmlc/sxmlc.c **** {
 2969              		.loc 1 653 0
 2970 0006 0546     		mov	r5, r0
 2971 0008 0E46     		mov	r6, r1
 656:sxmlc/sxmlc.c **** 	if (node1 == node2)
 2972              		.loc 1 656 0
 2973 000a 53D0     		beq	.L478
 659:sxmlc/sxmlc.c **** 	if (node1 == NULL || node2 == NULL || node1->init_value != XML_INIT_DONE || node2->init_value != X
 2974              		.loc 1 659 0
 2975 000c 0028     		cmp	r0, #0
 2976 000e 53D0     		beq	.L479
 659:sxmlc/sxmlc.c **** 	if (node1 == NULL || node2 == NULL || node1->init_value != XML_INIT_DONE || node2->init_value != X
 2977              		.loc 1 659 0 is_stmt 0 discriminator 1
 2978 0010 0029     		cmp	r1, #0
 2979 0012 53D0     		beq	.L480
 2980 0014 836A     		ldr	r3, [r0, #40]
 2981 0016 2C4A     		ldr	r2, .L491
 2982 0018 9342     		cmp	r3, r2
 2983 001a 51D1     		bne	.L483
 2984 001c 8A6A     		ldr	r2, [r1, #40]
 2985 001e 9A42     		cmp	r2, r3
 2986 0020 4ED1     		bne	.L483
 662:sxmlc/sxmlc.c **** 	if (sx_strcmp(node1->tag, node2->tag))
 2987              		.loc 1 662 0 is_stmt 1
 2988 0022 0068     		ldr	r0, [r0]
 2989              	.LVL343:
 2990 0024 0968     		ldr	r1, [r1]
 2991              	.LVL344:
 2992 0026 FFF7FEFF 		bl	strcmp
 2993              	.LVL345:
 2994 002a 0446     		mov	r4, r0
 2995 002c 0028     		cmp	r0, #0
 2996 002e 47D1     		bne	.L483
 666:sxmlc/sxmlc.c **** 	for (i = 0; i < node1->n_attributes; i++) {
 2997              		.loc 1 666 0
 2998 0030 D5F80CA0 		ldr	r10, [r5, #12]
 2999 0034 0746     		mov	r7, r0
 3000              	.L472:
 3001              	.LVL346:
 666:sxmlc/sxmlc.c **** 	for (i = 0; i < node1->n_attributes; i++) {
 3002              		.loc 1 666 0 is_stmt 0 discriminator 1
 3003 0036 5745     		cmp	r7, r10
 3004 0038 1BDA     		bge	.L490
 3005 003a 4FF00C09 		mov	r9, #12
 3006 003e 09FB07F3 		mul	r3, r9, r7
 667:sxmlc/sxmlc.c **** 		if (!node1->attributes[i].active)
 3007              		.loc 1 667 0 is_stmt 1
 3008 0042 AA68     		ldr	r2, [r5, #8]
 3009 0044 02EB0308 		add	r8, r2, r3
 3010 0048 D8F80810 		ldr	r1, [r8, #8]
 3011 004c 79B1     		cbz	r1, .L473
 669:sxmlc/sxmlc.c **** 		j = XMLNode_search_attribute(node2, node1->attributes[i].name, 0);
 3012              		.loc 1 669 0
 3013 004e D158     		ldr	r1, [r2, r3]
 3014 0050 3046     		mov	r0, r6
 3015 0052 0022     		movs	r2, #0
 3016 0054 FFF7FEFF 		bl	XMLNode_search_attribute
 3017              	.LVL347:
 670:sxmlc/sxmlc.c **** 		if (j < 0)
 3018              		.loc 1 670 0
 3019 0058 0028     		cmp	r0, #0
 3020 005a 32DB     		blt	.L471
 672:sxmlc/sxmlc.c **** 		if (sx_strcmp(node1->attributes[i].value, node2->attributes[j].value))
 3021              		.loc 1 672 0
 3022 005c B368     		ldr	r3, [r6, #8]
 3023 005e 09FB0033 		mla	r3, r9, r0, r3
 3024 0062 D8F80400 		ldr	r0, [r8, #4]
 3025              	.LVL348:
 3026 0066 5968     		ldr	r1, [r3, #4]
 3027 0068 FFF7FEFF 		bl	strcmp
 3028              	.LVL349:
 3029 006c 48BB     		cbnz	r0, .L471
 3030              	.L473:
 666:sxmlc/sxmlc.c **** 	for (i = 0; i < node1->n_attributes; i++) {
 3031              		.loc 1 666 0
 3032 006e 0137     		adds	r7, r7, #1
 3033              	.LVL350:
 3034 0070 E1E7     		b	.L472
 3035              	.L490:
 677:sxmlc/sxmlc.c **** 	for (i = 0; i < node2->n_attributes; i++) {
 3036              		.loc 1 677 0
 3037 0072 D6F80CA0 		ldr	r10, [r6, #12]
 3038 0076 0027     		movs	r7, #0
 3039              	.LVL351:
 3040              	.L475:
 677:sxmlc/sxmlc.c **** 	for (i = 0; i < node2->n_attributes; i++) {
 3041              		.loc 1 677 0 is_stmt 0 discriminator 1
 3042 0078 5745     		cmp	r7, r10
 3043 007a 1BDA     		bge	.L478
 3044 007c 4FF00C09 		mov	r9, #12
 3045 0080 09FB07F3 		mul	r3, r9, r7
 678:sxmlc/sxmlc.c **** 		if (!node2->attributes[i].active)
 3046              		.loc 1 678 0 is_stmt 1
 3047 0084 B268     		ldr	r2, [r6, #8]
 3048 0086 D118     		adds	r1, r2, r3
 3049 0088 8968     		ldr	r1, [r1, #8]
 3050 008a 89B1     		cbz	r1, .L476
 680:sxmlc/sxmlc.c **** 		j = XMLNode_search_attribute(node1, node2->attributes[i].name, 0);
 3051              		.loc 1 680 0
 3052 008c 52F80380 		ldr	r8, [r2, r3]
 3053 0090 2846     		mov	r0, r5
 3054 0092 4146     		mov	r1, r8
 3055 0094 0022     		movs	r2, #0
 3056 0096 FFF7FEFF 		bl	XMLNode_search_attribute
 3057              	.LVL352:
 681:sxmlc/sxmlc.c **** 		if (j < 0)
 3058              		.loc 1 681 0
 3059 009a 0028     		cmp	r0, #0
 3060 009c 11DB     		blt	.L471
 683:sxmlc/sxmlc.c **** 		if (sx_strcmp(node2->attributes[i].name, node1->attributes[j].name))
 3061              		.loc 1 683 0
 3062 009e 09FB00F9 		mul	r9, r9, r0
 3063 00a2 AB68     		ldr	r3, [r5, #8]
 3064 00a4 4046     		mov	r0, r8
 3065              	.LVL353:
 3066 00a6 53F80910 		ldr	r1, [r3, r9]
 3067 00aa FFF7FEFF 		bl	strcmp
 3068              	.LVL354:
 3069 00ae 40B9     		cbnz	r0, .L471
 3070              	.L476:
 677:sxmlc/sxmlc.c **** 	for (i = 0; i < node2->n_attributes; i++) {
 3071              		.loc 1 677 0
 3072 00b0 0137     		adds	r7, r7, #1
 3073              	.LVL355:
 3074 00b2 E1E7     		b	.L475
 3075              	.LVL356:
 3076              	.L478:
 657:sxmlc/sxmlc.c **** 		return true;
 3077              		.loc 1 657 0
 3078 00b4 0124     		movs	r4, #1
 3079 00b6 04E0     		b	.L471
 3080              	.LVL357:
 3081              	.L479:
 660:sxmlc/sxmlc.c **** 		return false;
 3082              		.loc 1 660 0
 3083 00b8 0446     		mov	r4, r0
 3084 00ba 02E0     		b	.L471
 3085              	.L480:
 3086 00bc 0C46     		mov	r4, r1
 3087 00be 00E0     		b	.L471
 3088              	.LVL358:
 3089              	.L483:
 3090 00c0 0024     		movs	r4, #0
 3091              	.L471:
 688:sxmlc/sxmlc.c **** }
 3092              		.loc 1 688 0
 3093 00c2 2046     		mov	r0, r4
 3094 00c4 BDE8F087 		pop	{r4, r5, r6, r7, r8, r9, r10, pc}
 3095              	.LVL359:
 3096              	.L492:
 3097              		.align	2
 3098              	.L491:
 3099 00c8 22057719 		.word	427230498
 3100              		.cfi_endproc
 3101              	.LFE25:
 3103              		.section	.text.XMLNode_next_sibling,"ax",%progbits
 3104              		.align	1
 3105              		.global	XMLNode_next_sibling
 3106              		.thumb
 3107              		.thumb_func
 3109              	XMLNode_next_sibling:
 3110              	.LFB26:
 691:sxmlc/sxmlc.c **** {
 3111              		.loc 1 691 0
 3112              		.cfi_startproc
 3113              		@ args = 0, pretend = 0, frame = 0
 3114              		@ frame_needed = 0, uses_anonymous_args = 0
 3115              	.LVL360:
 3116 0000 30B5     		push	{r4, r5, lr}
 3117              		.cfi_def_cfa_offset 12
 3118              		.cfi_offset 4, -12
 3119              		.cfi_offset 5, -8
 3120              		.cfi_offset 14, -4
 695:sxmlc/sxmlc.c **** 	if (node == NULL || node->init_value != XML_INIT_DONE || node->father == NULL)
 3121              		.loc 1 695 0
 3122 0002 C0B1     		cbz	r0, .L500
 695:sxmlc/sxmlc.c **** 	if (node == NULL || node->init_value != XML_INIT_DONE || node->father == NULL)
 3123              		.loc 1 695 0 is_stmt 0 discriminator 1
 3124 0004 836A     		ldr	r3, [r0, #40]
 3125 0006 0E4A     		ldr	r2, .L505
 3126 0008 9342     		cmp	r3, r2
 3127 000a 16D1     		bne	.L501
 3128 000c 0369     		ldr	r3, [r0, #16]
 3129 000e ABB1     		cbz	r3, .L494
 699:sxmlc/sxmlc.c **** 	for (i = 0; i < father->n_children && father->children[i] != node; i++) ;
 3130              		.loc 1 699 0 is_stmt 1
 3131 0010 9C69     		ldr	r4, [r3, #24]
 3132 0012 0022     		movs	r2, #0
 3133              	.L495:
 3134              	.LVL361:
 699:sxmlc/sxmlc.c **** 	for (i = 0; i < father->n_children && father->children[i] != node; i++) ;
 3135              		.loc 1 699 0 is_stmt 0 discriminator 1
 3136 0014 A242     		cmp	r2, r4
 3137 0016 02F10101 		add	r1, r2, #1
 3138 001a 05DB     		blt	.L496
 3139              	.LVL362:
 3140              	.L499:
 702:sxmlc/sxmlc.c **** 	return i < father->n_children ? father->children[i] : NULL;
 3141              		.loc 1 702 0 is_stmt 1
 3142 001c A142     		cmp	r1, r4
 3143 001e 0CDA     		bge	.L501
 702:sxmlc/sxmlc.c **** 	return i < father->n_children ? father->children[i] : NULL;
 3144              		.loc 1 702 0 is_stmt 0 discriminator 1
 3145 0020 5B69     		ldr	r3, [r3, #20]
 3146 0022 53F82130 		ldr	r3, [r3, r1, lsl #2]
 3147 0026 09E0     		b	.L494
 3148              	.LVL363:
 3149              	.L496:
 699:sxmlc/sxmlc.c **** 	for (i = 0; i < father->n_children && father->children[i] != node; i++) ;
 3150              		.loc 1 699 0 is_stmt 1 discriminator 2
 3151 0028 5D69     		ldr	r5, [r3, #20]
 3152 002a 55F82220 		ldr	r2, [r5, r2, lsl #2]
 3153              	.LVL364:
 3154 002e 8242     		cmp	r2, r0
 3155 0030 F4D0     		beq	.L499
 699:sxmlc/sxmlc.c **** 	for (i = 0; i < father->n_children && father->children[i] != node; i++) ;
 3156              		.loc 1 699 0 is_stmt 0 discriminator 1
 3157 0032 0A46     		mov	r2, r1
 3158              	.LVL365:
 3159 0034 EEE7     		b	.L495
 3160              	.LVL366:
 3161              	.L500:
 696:sxmlc/sxmlc.c **** 		return NULL;
 3162              		.loc 1 696 0 is_stmt 1
 3163 0036 0346     		mov	r3, r0
 3164 0038 00E0     		b	.L494
 3165              	.L501:
 3166 003a 0023     		movs	r3, #0
 3167              	.L494:
 703:sxmlc/sxmlc.c **** }
 3168              		.loc 1 703 0
 3169 003c 1846     		mov	r0, r3
 3170              	.LVL367:
 3171 003e 30BD     		pop	{r4, r5, pc}
 3172              	.L506:
 3173              		.align	2
 3174              	.L505:
 3175 0040 22057719 		.word	427230498
 3176              		.cfi_endproc
 3177              	.LFE26:
 3179              		.section	.text.XMLNode_next,"ax",%progbits
 3180              		.align	1
 3181              		.global	XMLNode_next
 3182              		.thumb
 3183              		.thumb_func
 3185              	XMLNode_next:
 3186              	.LFB28:
 725:sxmlc/sxmlc.c **** {
 3187              		.loc 1 725 0
 3188              		.cfi_startproc
 3189              		@ args = 0, pretend = 0, frame = 0
 3190              		@ frame_needed = 0, uses_anonymous_args = 0
 3191              	.LVL368:
 3192 0000 10B5     		push	{r4, lr}
 3193              		.cfi_def_cfa_offset 8
 3194              		.cfi_offset 4, -8
 3195              		.cfi_offset 14, -4
 725:sxmlc/sxmlc.c **** {
 3196              		.loc 1 725 0
 3197 0002 0446     		mov	r4, r0
 3198              	.LVL369:
 3199 0004 0120     		movs	r0, #1
 3200              	.LVL370:
 3201              	.L510:
 3202              	.LBB12:
 3203              	.LBB13:
 709:sxmlc/sxmlc.c **** 	if (node == NULL || node->init_value != XML_INIT_DONE)
 3204              		.loc 1 709 0
 3205 0006 84B1     		cbz	r4, .L511
 3206 0008 A36A     		ldr	r3, [r4, #40]
 3207 000a 0A4A     		ldr	r2, .L517
 3208 000c 9342     		cmp	r3, r2
 3209 000e 0ED1     		bne	.L512
 713:sxmlc/sxmlc.c **** 	if (in_children && node->n_children > 0)
 3210              		.loc 1 713 0
 3211 0010 28B1     		cbz	r0, .L509
 3212 0012 A369     		ldr	r3, [r4, #24]
 3213 0014 002B     		cmp	r3, #0
 3214 0016 02DD     		ble	.L509
 714:sxmlc/sxmlc.c **** 		return node->children[0];
 3215              		.loc 1 714 0
 3216 0018 6369     		ldr	r3, [r4, #20]
 3217 001a 1868     		ldr	r0, [r3]
 3218 001c 10BD     		pop	{r4, pc}
 3219              	.L509:
 717:sxmlc/sxmlc.c **** 	if ((node2 = XMLNode_next_sibling(node)) != NULL)
 3220              		.loc 1 717 0
 3221 001e 2046     		mov	r0, r4
 3222 0020 FFF7FEFF 		bl	XMLNode_next_sibling
 3223              	.LVL371:
 3224 0024 20B9     		cbnz	r0, .L508
 721:sxmlc/sxmlc.c **** 	return _XMLNode_next(node->father, false);
 3225              		.loc 1 721 0
 3226 0026 2469     		ldr	r4, [r4, #16]
 3227 0028 EDE7     		b	.L510
 3228              	.LVL372:
 3229              	.L511:
 710:sxmlc/sxmlc.c **** 		return NULL;
 3230              		.loc 1 710 0
 3231 002a 2046     		mov	r0, r4
 3232 002c 10BD     		pop	{r4, pc}
 3233              	.L512:
 3234 002e 0020     		movs	r0, #0
 3235              	.L508:
 3236              	.LBE13:
 3237              	.LBE12:
 727:sxmlc/sxmlc.c **** }
 3238              		.loc 1 727 0
 3239 0030 10BD     		pop	{r4, pc}
 3240              	.L518:
 3241 0032 00BF     		.align	2
 3242              	.L517:
 3243 0034 22057719 		.word	427230498
 3244              		.cfi_endproc
 3245              	.LFE28:
 3247              		.section	.text.XMLDoc_init,"ax",%progbits
 3248              		.align	1
 3249              		.global	XMLDoc_init
 3250              		.thumb
 3251              		.thumb_func
 3253              	XMLDoc_init:
 3254              	.LFB29:
 732:sxmlc/sxmlc.c **** {
 3255              		.loc 1 732 0
 3256              		.cfi_startproc
 3257              		@ args = 0, pretend = 0, frame = 0
 3258              		@ frame_needed = 0, uses_anonymous_args = 0
 3259              		@ link register save eliminated.
 3260              	.LVL373:
 3261 0000 0023     		movs	r3, #0
 733:sxmlc/sxmlc.c **** 	if (doc == NULL)
 3262              		.loc 1 733 0
 3263 0002 60B1     		cbz	r0, .L520
 736:sxmlc/sxmlc.c **** 	doc->filename[0] = NULC;
 3264              		.loc 1 736 0
 3265 0004 0370     		strb	r3, [r0]
 740:sxmlc/sxmlc.c **** 	doc->nodes = NULL;
 3266              		.loc 1 740 0
 3267 0006 C0F80031 		str	r3, [r0, #256]
 741:sxmlc/sxmlc.c **** 	doc->n_nodes = 0;
 3268              		.loc 1 741 0
 3269 000a C0F80431 		str	r3, [r0, #260]
 742:sxmlc/sxmlc.c **** 	doc->i_root = -1;
 3270              		.loc 1 742 0
 3271 000e 4FF0FF33 		mov	r3, #-1
 3272 0012 C0F80831 		str	r3, [r0, #264]
 743:sxmlc/sxmlc.c **** 	doc->init_value = XML_INIT_DONE;
 3273              		.loc 1 743 0
 3274 0016 024B     		ldr	r3, .L522
 3275 0018 C0F80C31 		str	r3, [r0, #268]
 745:sxmlc/sxmlc.c **** 	return true;
 3276              		.loc 1 745 0
 3277 001c 0120     		movs	r0, #1
 3278              	.LVL374:
 3279              	.L520:
 746:sxmlc/sxmlc.c **** }
 3280              		.loc 1 746 0
 3281 001e 7047     		bx	lr
 3282              	.L523:
 3283              		.align	2
 3284              	.L522:
 3285 0020 22057719 		.word	427230498
 3286              		.cfi_endproc
 3287              	.LFE29:
 3289              		.section	.text.XMLDoc_free,"ax",%progbits
 3290              		.align	1
 3291              		.global	XMLDoc_free
 3292              		.thumb
 3293              		.thumb_func
 3295              	XMLDoc_free:
 3296              	.LFB30:
 749:sxmlc/sxmlc.c **** {
 3297              		.loc 1 749 0
 3298              		.cfi_startproc
 3299              		@ args = 0, pretend = 0, frame = 0
 3300              		@ frame_needed = 0, uses_anonymous_args = 0
 3301              	.LVL375:
 3302 0000 38B5     		push	{r3, r4, r5, lr}
 3303              		.cfi_def_cfa_offset 16
 3304              		.cfi_offset 3, -16
 3305              		.cfi_offset 4, -12
 3306              		.cfi_offset 5, -8
 3307              		.cfi_offset 14, -4
 752:sxmlc/sxmlc.c **** 	if (doc == NULL || doc->init_value != XML_INIT_DONE)
 3308              		.loc 1 752 0
 3309 0002 0446     		mov	r4, r0
 3310 0004 30B3     		cbz	r0, .L529
 752:sxmlc/sxmlc.c **** 	if (doc == NULL || doc->init_value != XML_INIT_DONE)
 3311              		.loc 1 752 0 is_stmt 0 discriminator 1
 3312 0006 D0F80C31 		ldr	r3, [r0, #268]
 3313 000a 134A     		ldr	r2, .L531
 3314 000c 9342     		cmp	r3, r2
 3315 000e 21D1     		bne	.L529
 752:sxmlc/sxmlc.c **** 	if (doc == NULL || doc->init_value != XML_INIT_DONE)
 3316              		.loc 1 752 0
 3317 0010 0025     		movs	r5, #0
 3318              	.LVL376:
 3319              	.L526:
 3320              	.LBB16:
 3321              	.LBB17:
 755:sxmlc/sxmlc.c **** 	for (i = 0; i < doc->n_nodes; i++) {
 3322              		.loc 1 755 0 is_stmt 1
 3323 0012 D4F80431 		ldr	r3, [r4, #260]
 3324 0016 9D42     		cmp	r5, r3
 3325 0018 0DDA     		bge	.L530
 756:sxmlc/sxmlc.c **** 		(void)XMLNode_free(doc->nodes[i]);
 3326              		.loc 1 756 0
 3327 001a D4F80031 		ldr	r3, [r4, #256]
 3328 001e 53F82500 		ldr	r0, [r3, r5, lsl #2]
 3329 0022 FFF7FEFF 		bl	XMLNode_free
 3330              	.LVL377:
 757:sxmlc/sxmlc.c **** 		__free(doc->nodes[i]);
 3331              		.loc 1 757 0
 3332 0026 D4F80031 		ldr	r3, [r4, #256]
 3333 002a 53F82500 		ldr	r0, [r3, r5, lsl #2]
 3334 002e FFF7FEFF 		bl	free
 3335              	.LVL378:
 755:sxmlc/sxmlc.c **** 	for (i = 0; i < doc->n_nodes; i++) {
 3336              		.loc 1 755 0
 3337 0032 0135     		adds	r5, r5, #1
 3338              	.LVL379:
 3339 0034 EDE7     		b	.L526
 3340              	.L530:
 759:sxmlc/sxmlc.c **** 	__free(doc->nodes);
 3341              		.loc 1 759 0
 3342 0036 D4F80001 		ldr	r0, [r4, #256]
 3343 003a FFF7FEFF 		bl	free
 3344              	.LVL380:
 760:sxmlc/sxmlc.c **** 	doc->nodes = NULL;
 3345              		.loc 1 760 0
 3346 003e 0023     		movs	r3, #0
 3347 0040 C4F80031 		str	r3, [r4, #256]
 761:sxmlc/sxmlc.c **** 	doc->n_nodes = 0;
 3348              		.loc 1 761 0
 3349 0044 C4F80431 		str	r3, [r4, #260]
 762:sxmlc/sxmlc.c **** 	doc->i_root = -1;
 3350              		.loc 1 762 0
 3351 0048 4FF0FF33 		mov	r3, #-1
 3352 004c C4F80831 		str	r3, [r4, #264]
 3353 0050 0120     		movs	r0, #1
 3354 0052 38BD     		pop	{r3, r4, r5, pc}
 3355              	.LVL381:
 3356              	.L529:
 3357              	.LBE17:
 3358              	.LBE16:
 753:sxmlc/sxmlc.c **** 		return false;
 3359              		.loc 1 753 0
 3360 0054 0020     		movs	r0, #0
 3361              	.LVL382:
 765:sxmlc/sxmlc.c **** }
 3362              		.loc 1 765 0
 3363 0056 38BD     		pop	{r3, r4, r5, pc}
 3364              	.LVL383:
 3365              	.L532:
 3366              		.align	2
 3367              	.L531:
 3368 0058 22057719 		.word	427230498
 3369              		.cfi_endproc
 3370              	.LFE30:
 3372              		.section	.text.DOMXMLDoc_doc_end,"ax",%progbits
 3373              		.align	1
 3374              		.global	DOMXMLDoc_doc_end
 3375              		.thumb
 3376              		.thumb_func
 3378              	DOMXMLDoc_doc_end:
 3379              	.LFB51:
1538:sxmlc/sxmlc.c **** {
 3380              		.loc 1 1538 0
 3381              		.cfi_startproc
 3382              		@ args = 0, pretend = 0, frame = 0
 3383              		@ frame_needed = 0, uses_anonymous_args = 0
 3384              	.LVL384:
 3385 0000 37B5     		push	{r0, r1, r2, r4, r5, lr}
 3386              		.cfi_def_cfa_offset 24
 3387              		.cfi_offset 0, -24
 3388              		.cfi_offset 1, -20
 3389              		.cfi_offset 2, -16
 3390              		.cfi_offset 4, -12
 3391              		.cfi_offset 5, -8
 3392              		.cfi_offset 14, -4
1539:sxmlc/sxmlc.c **** 	DOM_through_SAX* dom = (DOM_through_SAX*)sd->user;
 3393              		.loc 1 1539 0
 3394 0002 8468     		ldr	r4, [r0, #8]
 3395              	.LVL385:
1538:sxmlc/sxmlc.c **** {
 3396              		.loc 1 1538 0
 3397 0004 0346     		mov	r3, r0
